 Open1560

 Timestamp is 68aa62dd (Sun Aug 24 00:54:53 2025)

 Preferred load address is 00400000

 Start         Length     Name                   Class
 0001:00000000 00001310H .text$di                CODE
 0001:00001310 0020c510H .text$mn                CODE
 0001:0020d820 00000330H .text$x                 CODE
 0001:0020db50 0000096bH .text$yd                CODE
 0002:00000000 0000047cH .idata$5                DATA
 0002:0000047c 00000004H .00cfg                  DATA
 0002:00000480 00000004H .CRT$XCA                DATA
 0002:00000484 00000004H .CRT$XCAA               DATA
 0002:00000488 00000004H .CRT$XCC                DATA
 0002:0000048c 00000004H .CRT$XCL                DATA
 0002:00000490 000001dcH .CRT$XCU                DATA
 0002:0000066c 00000004H .CRT$XCZ                DATA
 0002:00000670 00000004H .CRT$XIA                DATA
 0002:00000674 00000004H .CRT$XIAA               DATA
 0002:00000678 00000004H .CRT$XIAC               DATA
 0002:0000067c 0000001cH .CRT$XIC                DATA
 0002:00000698 00000004H .CRT$XIZ                DATA
 0002:0000069c 00000004H .CRT$XLA                DATA
 0002:000006a0 00000004H .CRT$XLZ                DATA
 0002:000006a4 00000004H .CRT$XPA                DATA
 0002:000006a8 00000008H .CRT$XPX                DATA
 0002:000006b0 00000004H .CRT$XPXA               DATA
 0002:000006b4 00000004H .CRT$XPZ                DATA
 0002:000006b8 00000004H .CRT$XTA                DATA
 0002:000006bc 00000004H .CRT$XTZ                DATA
 0002:000006c0 00000000H .gfids$y                DATA
 0002:000006c0 0004ad80H .rdata                  DATA
 0002:0004b440 00000000H .rdata$CastGuardVftablesA DATA
 0002:0004b440 00000000H .rdata$CastGuardVftablesC DATA
 0002:0004b440 00000018H .rdata$T                DATA
 0002:0004b458 00002d24H .rdata$r                DATA
 0002:0004e17c 0000038cH .rdata$voltmd           DATA
 0002:0004e508 00000000H .rdata$zETW0            DATA
 0002:0004e508 00000000H .rdata$zETW9            DATA
 0002:0004e508 0000043cH .rdata$zzzdbg           DATA
 0002:0004e944 00000004H .rtc$IAA                DATA
 0002:0004e948 00000004H .rtc$IZZ                DATA
 0002:0004e94c 00000004H .rtc$TAA                DATA
 0002:0004e950 00000004H .rtc$TZZ                DATA
 0002:0004e954 00000004H .tls                    DATA
 0002:0004e958 00000005H .tls$                   DATA
 0002:0004e95d 00000003H .tls$ZZZ                DATA
 0002:0004e960 00000b50H .xdata$x                DATA
 0002:0004f4b0 00000030H .edata                  DATA
 0002:0004f4e0 000000c8H .idata$2                DATA
 0002:0004f5a8 00000014H .idata$3                DATA
 0002:0004f5bc 0000047cH .idata$4                DATA
 0002:0004fa38 0000153aH .idata$6                DATA
 0003:00000000 000264e4H .data                   DATA
 0003:000264e4 0000009cH .data$r                 DATA
 0003:00026580 00001040H .data$rs                DATA
 0003:000275c0 002b2a74H .bss                    DATA
 0004:00000000 00000080H .fptable                DATA
 0005:00000000 00000130H .rsrc$01                DATA
 0005:00000130 00000cb0H .rsrc$02                DATA

  Address         Publics by Value              Rva+Base       Lib:Object

 0000:00000000       ___guard_iat_table         00000000     <absolute>
 0000:00000000       ___hybrid_code_map         00000000     <absolute>
 0000:00000000       ___x64_code_ranges_to_entry_points_count 00000000     <absolute>
 0000:00000000       ___x64_code_ranges_to_entry_points 00000000     <absolute>
 0000:00000000       ___arm64x_extra_rfe_table_size 00000000     <absolute>
 0000:00000000       ___guard_iat_count         00000000     <absolute>
 0000:00000000       ___hybrid_code_map_count   00000000     <absolute>
 0000:00000000       ___safe_se_handler_count   00000000     <absolute>
 0000:00000000       ___guard_eh_cont_table     00000000     <absolute>
 0000:00000000       ___guard_longjmp_count     00000000     <absolute>
 0000:00000000       __except_list              00000000     <absolute>
 0000:00000000       ___guard_check_icall_a64n_fptr 00000000     <absolute>
 0000:00000000       ___arm64x_redirection_metadata_count 00000000     <absolute>
 0000:00000000       ___guard_eh_cont_count     00000000     <absolute>
 0000:00000000       ___hybrid_auxiliary_iat    00000000     <absolute>
 0000:00000000       ___dynamic_value_reloc_table 00000000     <absolute>
 0000:00000000       ___guard_fids_count        00000000     <absolute>
 0000:00000000       ___AbsoluteZero            00000000     <absolute>
 0000:00000000       ___safe_se_handler_table   00000000     <absolute>
 0000:00000000       ___arm64x_redirection_metadata 00000000     <absolute>
 0000:00000000       ___arm64x_extra_rfe_table  00000000     <absolute>
 0000:00000000       ___enclave_config          00000000     <absolute>
 0000:00000000       ___arm64x_native_entrypoint 00000000     <absolute>
 0000:00000000       ___guard_fids_table        00000000     <absolute>
 0000:00000000       ___guard_longjmp_table     00000000     <absolute>
 0000:00000000       ___hybrid_auxiliary_iat_copy 00000000     <absolute>
 0000:0000002c       __tls_array                0000002c     <absolute>
 0000:00000100       ___guard_flags             00000100     <absolute>
 0000:00000000       ___ImageBase               00400000     <linker-defined>
 0001:000013b0       ??$Get@I@Stream@@QAEIXZ    004023b0 f i midtown.obj
 0001:00001560       ??$_Med3_unchecked@PAPADV<lambda_e460803e1ad7f18661ab83dfd8ab5b44>@@@std@@YAXPAPAD00V<lambda_e460803e1ad7f18661ab83dfd8ab5b44>@@@Z 00402560 f i midtown.obj
 0001:000016a0       ??$_Partition_by_median_guess_unchecked@PAPADV<lambda_e460803e1ad7f18661ab83dfd8ab5b44>@@@std@@YA?AU?$pair@PAPADPAPAD@0@PAPAD0V<lambda_e460803e1ad7f18661ab83dfd8ab5b44>@@@Z 004026a0 f i midtown.obj
 0001:00001f00       ??$_Pop_heap_hole_by_index@PAPADPADV<lambda_e460803e1ad7f18661ab83dfd8ab5b44>@@@std@@YAXPAPADHH$$QAPADV<lambda_e460803e1ad7f18661ab83dfd8ab5b44>@@@Z 00402f00 f i midtown.obj
 0001:00002160       ??$_Sort_unchecked@PAPADV<lambda_e460803e1ad7f18661ab83dfd8ab5b44>@@@std@@YAXPAPAD0HV<lambda_e460803e1ad7f18661ab83dfd8ab5b44>@@@Z 00403160 f i midtown.obj
 0001:00002680       ??$sprintf_s@$0CI@@@YAHAAY0CI@DPBDZZ 00403680 f i midtown.obj
 0001:000026b0       ??0?$CStringBuffer@$0BA@@@QAA@Varts_format_t@@PBDZZ 004036b0 f i midtown.obj
 0001:000026e0       ??0?$CStringBuffer@$0BAA@@@QAA@Varts_format_t@@PBDZZ 004036e0 f i midtown.obj
 0001:00002710       ??0?$CStringBuffer@$0EAA@@@QAA@Varts_format_t@@PBDZZ 00403710 f i midtown.obj
 0001:00002740       ??0?$CStringBuffer@$0FA@@@QAA@Varts_format_t@@PBDZZ 00403740 f i midtown.obj
 0001:00002770       ??0Callback@@QAE@XZ        00403770 f i midtown.obj
 0001:00002780       ??0PreCamCS@@QAE@XZ        00403780 f i midtown.obj
 0001:000027e0       ??0Vector3@@QAE@MMM@Z      004037e0 f i midtown.obj
 0001:00002810       ??0agiTexParameters@@QAE@XZ 00403810 f i midtown.obj
 0001:00002840       ??0asCullable@@QAE@XZ      00403840 f i midtown.obj
 0001:00002850       ??0asNode@@QAE@XZ          00403850 f i midtown.obj
 0001:00002890       ??0asOverSample@@QAE@XZ    00403890 f i midtown.obj
 0001:000028f0       ??0cmd_param@mem@@QAE@PBD00@Z 004038f0 f   midtown.obj
 0001:000029a0       ??0mmAxle@@QAE@XZ          004039a0 f i midtown.obj
 0001:00002a10       ??0mmInfoBase@@QAE@XZ      00403a10 f i midtown.obj
 0001:00002a40       ??0mmInstance@@QAE@XZ      00403a40 f i midtown.obj
 0001:00002a70       ??0mmTimer@@QAE@XZ         00403a70 f i midtown.obj
 0001:00002ad0       ??0string@@QAE@ABV0@@Z     00403ad0 f i midtown.obj
 0001:00002b30       ??0string@@QAE@PBD@Z       00403b30 f i midtown.obj
 0001:00002b80       ??0string@@QAE@XZ          00403b80 f i midtown.obj
 0001:00002bb0       ??1?$Rc@VagiBitmap@@@@QAE@XZ 00403bb0 f i midtown.obj
 0001:00002c00       ??1?$unique_ptr@VPreGameUpdate@@U?$default_delete@VPreGameUpdate@@@std@@@std@@QAE@XZ 00403c00 f i midtown.obj
 0001:00002c20       ??1?$unique_ptr@VagiPipeline@@U?$default_delete@VagiPipeline@@@std@@@std@@QAE@XZ 00403c20 f i midtown.obj
 0001:00002c20       ??1?$unique_ptr@VStream@@U?$default_delete@VStream@@@std@@@std@@QAE@XZ 00403c20 f i midtown.obj
 0001:00002c30       ??1?$unique_ptr@VmmGameManager@@U?$default_delete@VmmGameManager@@@std@@@std@@QAE@XZ 00403c30 f i midtown.obj
 0001:00002c50       ??1?$unique_ptr@VmmInterface@@U?$default_delete@VmmInterface@@@std@@@std@@QAE@XZ 00403c50 f i midtown.obj
 0001:00002c70       ??1mmDrivetrain@@UAE@XZ    00403c70 f i midtown.obj
 0001:00002c70       ??1uiWidget@@UAE@XZ        00403c70 f i midtown.obj
 0001:00002c70       ??1mmNetObject@@UAE@XZ     00403c70 f i arts_mmgame:gamemulti.obj
 0001:00002c70       ??1Joint3Dof@@UAE@XZ       00403c70 f i arts_mmai:aiVehicleOpponent.obj
 0001:00002c70       ??1mmBangerManager@@UAE@XZ 00403c70 f i arts_mmai:aiMap.obj
 0001:00002c70       ??1mmWaypointObject@@UAE@XZ 00403c70 f i arts_mmgame:multicr.obj
 0001:00002c70       ??1PolarCamCS@@UAE@XZ      00403c70 f i midtown.obj
 0001:00002c70       ??1asBound@@UAE@XZ         00403c70 f i midtown.obj
 0001:00002c70       ??1CarCamCS@@UAE@XZ        00403c70 f i midtown.obj
 0001:00002c70       ??1mmCompBase@@UAE@XZ      00403c70 f i arts_mmwidget:compbase.obj
 0001:00002c70       ??1aiVehicleData@@UAE@XZ   00403c70 f i arts_mmai:aiVehicleMGR.obj
 0001:00002c70       ??1AppCamCS@@UAE@XZ        00403c70 f i midtown.obj
 0001:00002c70       ??1mmPhysEntity@@UAE@XZ    00403c70 f i midtown.obj
 0001:00002c70       ??1mmSplash@@UAE@XZ        00403c70 f i midtown.obj
 0001:00002c70       ??1mmPedManager@@UAE@XZ    00403c70 f i arts_mmcity:ped.obj
 0001:00002c70       ??1asBirthRule@@UAE@XZ     00403c70 f i midtown.obj
 0001:00002c70       ??1mmScreenClearFlunky@@UAE@XZ 00403c70 f i midtown.obj
 0001:00002c70       ??1mmWheelCheap@@UAE@XZ    00403c70 f i arts_mmai:aiVehicleMGR.obj
 0001:00002c70       ??1TransitionCS@@UAE@XZ    00403c70 f i arts_mmcamcs:transitioncs.obj
 0001:00002c70       ??1JointedStruct@@UAE@XZ   00403c70 f i arts_mmai:aiVehicleOpponent.obj
 0001:00002c70       ??1PostCamCS@@UAE@XZ       00403c70 f i midtown.obj
 0001:00002c70       ??1PointCamCS@@UAE@XZ      00403c70 f i midtown.obj
 0001:00002c70       ??1BaseCamCS@@UAE@XZ       00403c70 f i midtown.obj
 0001:00002c70       ??1mmWheel@@UAE@XZ         00403c70 f i midtown.obj
 0001:00002c70       ??1PreCamCS@@UAE@XZ        00403c70 f i midtown.obj
 0001:00002c70       ??1asLinearCS@@UAE@XZ      00403c70 f i midtown.obj
 0001:00002c70       ??1asDofCS@@UAE@XZ         00403c70 f i arts_arts7:dof.obj
 0001:00002c70       ??1mmForce@@UAE@XZ         00403c70 f i midtown.obj
 0001:00002c70       ??1VehGyro@@UAE@XZ         00403c70 f i midtown.obj
 0001:00002c70       ??1PovCamCS@@UAE@XZ        00403c70 f i midtown.obj
 0001:00002c70       ??1AICamCS@@UAE@XZ         00403c70 f i midtown.obj
 0001:00002c70       ??1UICWArray@@UAE@XZ       00403c70 f i arts_mmwidget:cwarray.obj
 0001:00002c70       ??1UIIcon@@UAE@XZ          00403c70 f i arts_mmwidget:icon.obj
 0001:00002c70       ??1asViewCS@@UAE@XZ        00403c70 f i arts_arts7:view.obj
 0001:00002c70       ??1asNetObject@@UAE@XZ     00403c70 f i arts_mmgame:gamemulti.obj
 0001:00002c70       ??1Card2D@@UAE@XZ          00403c70 f i arts_mmeffects:card2d.obj
 0001:00002c70       ??1mmShock@@UAE@XZ         00403c70 f i midtown.obj
 0001:00002c70       ??1AudHead@@UAE@XZ         00403c70 f i arts_mmaudio:head.obj
 0001:00002c70       ??1mmViewCS@@UAE@XZ        00403c70 f i arts_mmcamcs:viewcs.obj
 0001:00002c70       ??1asAero@@UAE@XZ          00403c70 f i midtown.obj
 0001:00002c70       ??1mmTransmission@@UAE@XZ  00403c70 f i midtown.obj
 0001:00002c70       ??1aiMap@@UAE@XZ           00403c70 f i midtown.obj
 0001:00002c70       ??1asMeshSetForm@@UAE@XZ   00403c70 f i arts_mmeffects:meshform.obj
 0001:00002c70       ??1mmAxle@@UAE@XZ          00403c70 f i midtown.obj
 0001:00002c70       ??1Spline@@UAE@XZ          00403c70 f i midtown.obj
 0001:00002c70       ??1mmMouseSteerBar@@UAE@XZ 00403c70 f i arts_mmeffects:mousesteerbar.obj
 0001:00002c70       ??1mmEngine@@UAE@XZ        00403c70 f i midtown.obj
 0001:00002c70       ??1mmStuck@@UAE@XZ         00403c70 f i midtown.obj
 0001:00002c70       ??1mmTimer@@UAE@XZ         00403c70 f i midtown.obj
 0001:00002c70       ??1asOverSample@@UAE@XZ    00403c70 f i midtown.obj
 0001:00002c70       ??1foobar@@UAE@XZ          00403c70 f i midtown.obj
 0001:00002c70       ??1aiStuck@@UAE@XZ         00403c70 f i arts_mmai:aiGoalChase.obj
 0001:00002c70       ??1asInertialCS@@UAE@XZ    00403c70 f i midtown.obj
 0001:00002c80       ??1mmShearInstance@@UAE@XZ 00403c80 f i midtown.obj
 0001:00002c80       ??1aiTrafficLightInstance@@UAE@XZ 00403c80 f i arts_mmai:aiTrafficLight.obj
 0001:00002c80       ??1mmTrailerInstance@@UAE@XZ 00403c80 f i arts_mmai:aiVehicleOpponent.obj
 0001:00002c80       ??1mmInfoBase@@UAE@XZ      00403c80 f i midtown.obj
 0001:00002c80       ??1mmMatrixInstance@@UAE@XZ 00403c80 f i midtown.obj
 0001:00002c80       ??1mmStaticInstance@@UAE@XZ 00403c80 f i midtown.obj
 0001:00002c80       ??1mmBuildingInstance@@UAE@XZ 00403c80 f i midtown.obj
 0001:00002c80       ??1aiVehicleInstance@@UAE@XZ 00403c80 f i arts_mmai:aiVehicleMGR.obj
 0001:00002c80       ??1mmAnimTrainCar@@UAE@XZ  00403c80 f i arts_mmanim:traincar.obj
 0001:00002c80       ??1aiPedestrianInstance@@UAE@XZ 00403c80 f i arts_mmai:aiPedestrian.obj
 0001:00002c80       ??1mmInstance@@UAE@XZ      00403c80 f i midtown.obj
 0001:00002c80       ??1mmShard@@UAE@XZ         00403c80 f i midtown.obj
 0001:00002c80       ??1mmPlayerRecord@@UAE@XZ  00403c80 f i arts_mmcityinfo:playerdata.obj
 0001:00002c80       ??1mmRecord@@UAE@XZ        00403c80 f i arts_mmcityinfo:racerecord.obj
 0001:00002c80       ??1asCullable@@UAE@XZ      00403c80 f i midtown.obj
 0001:00002c80       ??1Base@@UAE@XZ            00403c80 f i midtown.obj
 0001:00002c80       ??1mmHitBangerInstance@@UAE@XZ 00403c80 f i arts_mmai:aiMap.obj
 0001:00002c80       ??1mmUpperInstance@@UAE@XZ 00403c80 f i arts_mmai:aiMap.obj
 0001:00002c80       ??1mmUnhitBangerInstance@@UAE@XZ 00403c80 f i arts_mmai:aiMap.obj
 0001:00002c80       ??1mmWaypointInstance@@UAE@XZ 00403c80 f i arts_mmgame:wpinst.obj
 0001:00002c80       ??1mmIODev@@UAE@XZ         00403c80 f i arts_mminput:input.obj
 0001:00002c80       ??1mmFacadeInstance@@UAE@XZ 00403c80 f i midtown.obj
 0001:00002c80       ??1mmYInstance@@UAE@XZ     00403c80 f i midtown.obj
 0001:00002c80       ??1mmRunwayLight@@UAE@XZ   00403c80 f i arts_mmai:aiMap.obj
 0001:00002c80       ??1mmPed@@UAE@XZ           00403c80 f i arts_mmcity:ped.obj
 0001:00002c80       ??1mmDrawbridgeInstance@@UAE@XZ 00403c80 f i arts_mmanim:AnimDOF.obj
 0001:00002c80       ??1mmSkid@@UAE@XZ          00403c80 f i midtown.obj
 0001:00002c80       ??1mmDofBangerInstance@@UAE@XZ 00403c80 f i arts_mmanim:AnimDOF.obj
 0001:00002c90       ??1HashTable@@QAE@XZ       00403c90 f i midtown.obj
 0001:00002cf0       ??1MemStat@@QAE@XZ         00403cf0 f i midtown.obj
 0001:00002d40       ??1cmd_param@mem@@QAE@XZ   00403d40 f   midtown.obj
 0001:00002d70       ??1mmCar@@UAE@XZ           00403d70 f i midtown.obj
 0001:00002dd0       ??1mmCarModel@@UAE@XZ      00403dd0 f i midtown.obj
 0001:00002e60       ??1mmPlayer@@UAE@XZ        00403e60 f i midtown.obj
 0001:00002f10       ??1string@@QAE@XZ          00403f10 f i midtown.obj
 0001:00002f10       ??1mmIO@@QAE@XZ            00403f10 f i arts_mminput:input.obj
 0001:00002f20       ??DVector3@@QBE?AV0@M@Z    00403f20 f i midtown.obj
 0001:00002f60       ??GVector3@@QBE?AV0@ABV0@@Z 00403f60 f i midtown.obj
 0001:00002fa0       ??GVector3@@QBE?AV0@XZ     00403fa0 f i midtown.obj
 0001:00002fe0       ??HVector3@@QBE?AV0@ABV0@@Z 00403fe0 f i midtown.obj
 0001:00003020       ??KVector3@@QBE?AV0@M@Z    00404020 f i midtown.obj
 0001:00003060       ??LVector3@@QBE?AV0@ABV0@@Z 00404060 f i midtown.obj
 0001:00003130       ??SVector3@@QBE?AV0@XZ     00404130 f i midtown.obj
 0001:00003170       ??TVector3@@QBE?AV0@ABVMatrix34@@@Z 00404170 f i midtown.obj
 0001:000031a0       ??TVector3@@QBEMABV0@@Z    004041a0 f i midtown.obj
 0001:000031c0       ??XVector3@@QAEXM@Z        004041c0 f i midtown.obj
 0001:000031f0       ??YVector3@@QAEXABV0@@Z    004041f0 f i midtown.obj
 0001:00003230       ??ZVector3@@QAEXABV0@@Z    00404230 f i midtown.obj
 0001:00003270       ??_EPreCamCS@@UAEPAXI@Z    00404270 f i midtown.obj
 0001:00003320       ??_EasNode@@UAEPAXI@Z      00404320 f i midtown.obj
 0001:000033d0       ??_EmmTimer@@UAEPAXI@Z     004043d0 f i midtown.obj
 0001:000033d0       ??_EasOverSample@@UAEPAXI@Z 004043d0 f i midtown.obj
 0001:00003480       ??_EmmAxle@@UAEPAXI@Z      00404480 f i midtown.obj
 0001:00003530       ??_EmmInfoBase@@UAEPAXI@Z  00404530 f i midtown.obj
 0001:000035e0       ??_EmmInstance@@UAEPAXI@Z  004045e0 f i midtown.obj
 0001:000036a0       ??_EPreGameUpdate@@UAEPAXI@Z 004046a0 f i midtown.obj
 0001:000036a0       ??_GPreGameUpdate@@UAEPAXI@Z 004046a0 f i midtown.obj
 0001:000036d0       ?Add@Vector3@@QAEXABV1@0@Z 004046d0 f i midtown.obj
 0001:00004190       ?CreatePipeline@@YA?AV?$unique_ptr@VagiPipeline@@U?$default_delete@VagiPipeline@@@std@@@std@@HPAPAD@Z 00405190 f   midtown.obj
 0001:00004400       ?Cross@Vector3@@QAEXABV1@0@Z 00405400 f i midtown.obj
 0001:00004460       ?BeginGroup@agiGLRasterizer@@UAEXXZ 00405460 f i arts_agigl:glrsys.obj
 0001:00004460       ?dummy_symbol_mmdjpeg_jidctint@@YAXXZ 00405460 f i arts_mmdjpeg:jidctint.obj
 0001:00004460       ?dummy_symbol_mmcar_netaudiomanager@@YAXXZ 00405460 f i arts_mmcar:netaudiomanager.obj
 0001:00004460       ?Detach@mmInstance@@UAEXXZ 00405460 f i arts_mmcity:inst.obj
 0001:00004460       ?dummy_symbol_vector7_random@@YAXXZ 00405460 f i arts_vector7:random.obj
 0001:00004460       ?dummy_symbol_mmai_aiPoliceForce@@YAXXZ 00405460 f i arts_mmai:aiPoliceForce.obj
 0001:00004460       ?dummy_symbol_agiworld_meshlight@@YAXXZ 00405460 f i arts_agiworld:meshlight.obj
 0001:00004460       ?DeleteFont@mmText@@SAXPAX@Z 00405460 f i arts_mmeffects:mmtext_freetype.obj
 0001:00004460       ?Reset@VehicleSelectBase@@UAEXXZ 00405460 f i arts_mmui:vselect.obj
 0001:00004460       ?dummy_symbol_mmcar_transmission@@YAXXZ 00405460 f i arts_mmcar:transmission.obj
 0001:00004460       ?dummy_symbol_mmui_dlg_msg@@YAXXZ 00405460 f i arts_mmui:dlg_msg.obj
 0001:00004460       ?dummy_symbol_mmeffects_card2d@@YAXXZ 00405460 f i arts_mmeffects:card2d.obj
 0001:00004460       ?AfterLoad@mmPlayer@@UAEXXZ 00405460 f i arts_mmgame:player.obj
 0001:00004460       ?NotifyDelete@FileSystem@@MAEXXZ 00405460 f i arts_stream:fsystem.obj
 0001:00004460       ?dummy_symbol_mmaudio_manager@@YAXXZ 00405460 f i arts_mmaudio:manager.obj
 0001:00004460       ?dummy_symbol_mmcamcs_appcamcs@@YAXXZ 00405460 f i arts_mmcamcs:appcamcs.obj
 0001:00004460       ?dummy_symbol_agirend_rdlp@@YAXXZ 00405460 f i arts_agirend:rdlp.obj
 0001:00004460       ?dummy_symbol_mmui_race@@YAXXZ 00405460 f i arts_mmui:race.obj
 0001:00004460       ?BeforeSave@Base@@UAEXXZ   00405460 f i arts_data7:base.obj
 0001:00004460       ?dummy_symbol_mmui_pu_options@@YAXXZ 00405460 f i arts_mmui:pu_options.obj
 0001:00004460       ?BeginGroup@agiSWRasterizer@@UAEXXZ 00405460 f i arts_agisw:swrsys.obj
 0001:00004460       ?dummy_symbol_mmcamcs_precamcs@@YAXXZ 00405460 f i arts_mmcamcs:precamcs.obj
 0001:00004460       ?Reset@TransitionCS@@UAEXXZ 00405460 f i arts_mmcamcs:transitioncs.obj
 0001:00004460       ?InitRecord@eqReplayChannel@@UAEXXZ 00405460 f i arts_eventq7:replay.obj
 0001:00004460       ?dummy_symbol_mmui_vehicle@@YAXXZ 00405460 f i arts_mmui:vehicle.obj
 0001:00004460       ?dummy_symbol_vector7_matrix44@@YAXXZ 00405460 f i arts_vector7:matrix44.obj
 0001:00004460       ?dummy_symbol_mmgame_gamemulti@@YAXXZ 00405460 f i arts_mmgame:gamemulti.obj
 0001:00004460       ?dummy_symbol_mmanim_Excel@@YAXXZ 00405460 f i arts_mmanim:Excel.obj
 0001:00004460       ?StopVoice@aiVehicleSpline@@UAEXXZ 00405460 f i arts_mmai:aiVehicleSpline.obj
 0001:00004460       ?dummy_symbol_mmui_pu_key@@YAXXZ 00405460 f i arts_mmui:pu_key.obj
 0001:00004460       ?dummy_symbol_mmai_aiVehicle@@YAXXZ 00405460 f i arts_mmai:aiVehicle.obj
 0001:00004460       ?dummy_symbol_mmwidget_slider@@YAXXZ 00405460 f i arts_mmwidget:slider.obj
 0001:00004460       ?dummy_symbol_mmgame_gauge@@YAXXZ 00405460 f i arts_mmgame:gauge.obj
 0001:00004460       ??1agiColorModelABGR@@UAE@XZ 00405460 f i arts_agi:cmodelx.obj
 0001:00004460       ?dummy_symbol_localize_localize@@YAXXZ 00405460 f i arts_localize:localize.obj
 0001:00004460       ?Reset@mmDrivetrain@@UAEXXZ 00405460 f i arts_mmcar:drivetrain.obj
 0001:00004460       ?dummy_symbol_mmgame_cd@@YAXXZ 00405460 f i arts_mmgame:cd.obj
 0001:00004460       ?dummy_symbol_mmdjpeg_jcomapi@@YAXXZ 00405460 f i arts_mmdjpeg:jcomapi.obj
 0001:00004460       ?dummy_symbol_mmcity_ped@@YAXXZ 00405460 f i arts_mmcity:ped.obj
 0001:00004460       ?UpdateHill@TrackCamCS@@AAEXXZ 00405460 f i arts_mmcamcs:trackcamcs.obj
 0001:00004460       ?dummy_symbol_mmcar_surfaceaudioinfo@@YAXXZ 00405460 f i arts_mmcar:surfaceaudioinfo.obj
 0001:00004460       ??3mmInstance@@SAXPAX@Z    00405460 f i arts_mmcity:inst.obj
 0001:00004460       ?dummy_symbol_mmcamcs_carcamcs@@YAXXZ 00405460 f i arts_mmcamcs:carcamcs.obj
 0001:00004460       ?dummy_symbol_mmgame_mmambientaudio@@YAXXZ 00405460 f i arts_mmgame:mmambientaudio.obj
 0001:00004460       ?dummy_symbol_mmcar_netaddoncaraudio@@YAXXZ 00405460 f i arts_mmcar:netaddoncaraudio.obj
 0001:00004460       ?dummy_symbol_agi_error@@YAXXZ 00405460 f i arts_agi:error.obj
 0001:00004460       ??1agiRGBLighter@@UAE@XZ   00405460 f i arts_agigl:glpipe.obj
 0001:00004460       ?dummy_symbol_agi_rsys@@YAXXZ 00405460 f i arts_agi:rsys.obj
 0001:00004460       ?dummy_symbol_agirend_surfrender@@YAXXZ 00405460 f i arts_agirend:surfrender.obj
 0001:00004460       ?dummy_symbol_stream_filestream@@YAXXZ 00405460 f i arts_stream:filestream.obj
 0001:00004460       ?PreSetup@Dialog_Message@@UAEXXZ 00405460 f i arts_mmui:dlg_msg.obj
 0001:00004460       ?dummy_symbol_mmui_controlbase@@YAXXZ 00405460 f i arts_mmui:controlbase.obj
 0001:00004460       ?dummy_symbol_vector7_randmath@@YAXXZ 00405460 f i arts_vector7:randmath.obj
 0001:00004460       ?dummy_symbol_mmwidget_wstore@@YAXXZ 00405460 f i arts_mmwidget:wstore.obj
 0001:00004460       ?dummy_symbol_agi_render@@YAXXZ 00405460 f i arts_agi:render.obj
 0001:00004460       ?dummy_symbol_mmcityinfo_vehinfo@@YAXXZ 00405460 f i arts_mmcityinfo:vehinfo.obj
 0001:00004460       ?dummy_symbol_mmai_aiVehicleAmbient@@YAXXZ 00405460 f i arts_mmai:aiVehicleAmbient.obj
 0001:00004460       ??1agiColorModelRGB565@@UAE@XZ 00405460 f i arts_agi:cmodelx.obj
 0001:00004460       ?dummy_symbol_mmaudio_cd@@YAXXZ 00405460 f i arts_mmaudio:cd.obj
 0001:00004460       ?dummy_symbol_eventq7_dispatchable@@YAXXZ 00405460 f i arts_eventq7:dispatchable.obj
 0001:00004460       ?dummy_symbol_mmui_pu_main@@YAXXZ 00405460 f i arts_mmui:pu_main.obj
 0001:00004460       ?dummy_symbol_data7_global@@YAXXZ 00405460 f i arts_data7:global.obj
 0001:00004460       ?dummy_symbol_agiworld_mrkni@@YAXXZ 00405460 f i arts_agiworld:mrkni.obj
 0001:00004460       ?dummy_symbol_mmui_options@@YAXXZ 00405460 f i arts_mmui:options.obj
 0001:00004460       ?dummy_symbol_arts7_form@@YAXXZ 00405460 f i arts_arts7:form.obj
 0001:00004460       ?dummy_symbol_memory_stub@@YAXXZ 00405460 f i arts_memory:stub.obj
 0001:00004460       ?dummy_symbol_mmbangers_data@@YAXXZ 00405460 f i arts_mmbangers:data.obj
 0001:00004460       ?dummy_symbol_agi_light@@YAXXZ 00405460 f i arts_agi:light.obj
 0001:00004460       ?dummy_symbol_agi_dyndlp@@YAXXZ 00405460 f i arts_agi:dyndlp.obj
 0001:00004460       ?NextRace@mmGameMulti@@UAEXXZ 00405460 f i arts_mmgame:gamemulti.obj
 0001:00004460       ?dummy_symbol_mmdjpeg_jdcoefct@@YAXXZ 00405460 f i arts_mmdjpeg:jdcoefct.obj
 0001:00004460       ?dummy_symbol_mmcamcs_pointcamcs@@YAXXZ 00405460 f i arts_mmcamcs:pointcamcs.obj
 0001:00004460       @_guard_check_icall_nop@4  00405460 f i LIBCMT:guard_support.obj
 0001:00004460       ?UnlockFrameBuffer@agiPipeline@@UAEXXZ 00405460 f i arts_agi:pipeline.obj
 0001:00004460       ?dummy_symbol_mminput_road@@YAXXZ 00405460 f i arts_mminput:road.obj
 0001:00004460       ??1agiColorModelRGB888@@UAE@XZ 00405460 f i arts_agi:cmodelx.obj
 0001:00004460       ?dummy_symbol_mmbangers_dof@@YAXXZ 00405460 f i arts_mmbangers:dof.obj
 0001:00004460       ?dummy_symbol_pcwindis_dxsetup@@YAXXZ 00405460 f i arts_pcwindis:dxsetup.obj
 0001:00004460       ?dummy_symbol_mmaudio_dsglobal@@YAXXZ 00405460 f i arts_mmaudio:dsglobal.obj
 0001:00004460       ?dummy_symbol_mmnetwork_network@@YAXXZ 00405460 f i arts_mmnetwork:network.obj
 0001:00004460       ?dummy_symbol_mmdjpeg_jidctflt@@YAXXZ 00405460 f i arts_mmdjpeg:jidctflt.obj
 0001:00004460       ?dummy_symbol_mmui_pu_audio@@YAXXZ 00405460 f i arts_mmui:pu_audio.obj
 0001:00004460       ?BackUp@uiNavBar@@UAEXXZ   00405460 f i arts_mmwidget:navbar.obj
 0001:00004460       ?dummy_symbol_agi_mtldef@@YAXXZ 00405460 f i arts_agi:mtldef.obj
 0001:00004460       ?dummy_symbol_agirend_projvtx@@YAXXZ 00405460 f i arts_agirend:projvtx.obj
 0001:00004460       ?dummy_symbol_stream_vfsystem@@YAXXZ 00405460 f i arts_stream:vfsystem.obj
 0001:00004460       ?NextRace@mmGameEdit@@UAEXXZ 00405460 f i arts_mmgame:gameedit.obj
 0001:00004460       ?dummy_symbol_mmui_dlg_password@@YAXXZ 00405460 f i arts_mmui:dlg_password.obj
 0001:00004460       ?dummy_symbol_mmeffects_vehform@@YAXXZ 00405460 f i arts_mmeffects:vehform.obj
 0001:00004460       ?dummy_symbol_mmcity_sky@@YAXXZ 00405460 f i arts_mmcity:sky.obj
 0001:00004460       ?dummy_symbol_mminput_input@@YAXXZ 00405460 f i arts_mminput:input.obj
 0001:00004460       ?dummy_symbol_mmai_aiStuck@@YAXXZ 00405460 f i arts_mmai:aiStuck.obj
 0001:00004460       ?dummy_symbol_mmcamcs_polarcamcs@@YAXXZ 00405460 f i arts_mmcamcs:polarcamcs.obj
 0001:00004460       ?dummy_symbol_data7_utimer@@YAXXZ 00405460 f i arts_data7:utimer.obj
 0001:00004460       ?dummy_symbol_agi_mtllib@@YAXXZ 00405460 f i arts_agi:mtllib.obj
 0001:00004460       ?dummy_symbol_mmcamcs_postcamcs@@YAXXZ 00405460 f i arts_mmcamcs:postcamcs.obj
 0001:00004460       ?dummy_symbol_mmai_aiGoalFollowWayPts@@YAXXZ 00405460 f i arts_mmai:aiGoalFollowWayPts.obj
 0001:00004460       ?dummy_symbol_mmdjpeg_jdinput@@YAXXZ 00405460 f i arts_mmdjpeg:jdinput.obj
 0001:00004460       ?dummy_symbol_mmwidget_sliderbar@@YAXXZ 00405460 f i arts_mmwidget:sliderbar.obj
 0001:00004460       ?dummy_symbol_agi_cmodel8@@YAXXZ 00405460 f i arts_agi:cmodel8.obj
 0001:00004460       ?dummy_symbol_mmcar_axle@@YAXXZ 00405460 f i arts_mmcar:axle.obj
 0001:00004460       ?ShutdownPlayback@eqReplayChannel@@UAEXXZ 00405460 f i arts_eventq7:replay.obj
 0001:00004460       ?dummy_symbol_data7_printer@@YAXXZ 00405460 f i arts_data7:printer.obj
 0001:00004460       ?dummy_symbol_agi_bitmap@@YAXXZ 00405460 f i arts_agi:bitmap.obj
 0001:00004460       ?__setupNone@@YIXPAUswSurface@@@Z 00405460 f i arts_agisw:swrend.obj
 0001:00004460       ?dummy_symbol_mmcity_instchn@@YAXXZ 00405460 f i arts_mmcity:instchn.obj
 0001:00004460       ?dummy_symbol_mmgame_rainaudio@@YAXXZ 00405460 f i arts_mmgame:rainaudio.obj
 0001:00004460       ?dummy_symbol_agisw_swtexdef@@YAXXZ 00405460 f i arts_agisw:swtexdef.obj
 0001:00004460       ?dummy_symbol_mmaudio_creverb@@YAXXZ 00405460 f i arts_mmaudio:creverb.obj
 0001:00004460       ?PostSetup@VehShowcase@@UAEXXZ 00405460 f i arts_mmui:vshow.obj
 0001:00004460       ?DrawGlow@mmInstance@@UAIXXZ 00405460 f i arts_mmcity:inst.obj
 0001:00004460       ?dummy_symbol_mmui_about@@YAXXZ 00405460 f i arts_mmui:about.obj
 0001:00004460       ?dummy_symbol_mmwidget_vscrollbar@@YAXXZ 00405460 f i arts_mmwidget:vscrollbar.obj
 0001:00004460       ?dummy_symbol_mmgame_multicr@@YAXXZ 00405460 f i arts_mmgame:multicr.obj
 0001:00004460       ?dummy_symbol_data7_cache@@YAXXZ 00405460 f i arts_data7:cache.obj
 0001:00004460       ?dummy_symbol_data7_ipc@@YAXXZ 00405460 f i arts_data7:ipc.obj
 0001:00004460       ?dummy_symbol_mmai_aiData@@YAXXZ 00405460 f i arts_mmai:aiData.obj
 0001:00004460       ?dummy_symbol_vector7_matrix34@@YAXXZ 00405460 f i arts_vector7:matrix34.obj
 0001:00004460       ?dummy_symbol_mmcar_carmodel@@YAXXZ 00405460 f i arts_mmcar:carmodel.obj
 0001:00004460       ?dummy_symbol_mmcar_engineaudio@@YAXXZ 00405460 f i arts_mmcar:engineaudio.obj
 0001:00004460       ??1VolumeDW@@QAE@XZ        00405460 f i arts_mmaudio:mixer.obj
 0001:00004460       ?dummy_symbol_mmcar_engineaudioopponent@@YAXXZ 00405460 f i arts_mmcar:engineaudioopponent.obj
 0001:00004460       ?dummy_symbol_mmai_aiVehiclePolice@@YAXXZ 00405460 f i arts_mmai:aiVehiclePolice.obj
 0001:00004460       ?dummy_symbol_data7_speed@@YAXXZ 00405460 f i arts_data7:speed.obj
 0001:00004460       ?dummy_symbol_mmai_aiVehicleMGR@@YAXXZ 00405460 f i arts_mmai:aiVehicleMGR.obj
 0001:00004460       ?dummy_symbol_mmcityinfo_playerdir@@YAXXZ 00405460 f i arts_mmcityinfo:playerdir.obj
 0001:00004460       ?dummy_symbol_mmai_aiGoalRandomDrive@@YAXXZ 00405460 f i arts_mmai:aiGoalRandomDrive.obj
 0001:00004460       ?dummy_symbol_mmcityinfo_playerdata@@YAXXZ 00405460 f i arts_mmcityinfo:playerdata.obj
 0001:00004460       ?dummy_symbol_agi_getdlp@@YAXXZ 00405460 f i arts_agi:getdlp.obj
 0001:00004460       ?dummy_symbol_mmgame_dash@@YAXXZ 00405460 f i arts_mmgame:dash.obj
 0001:00004460       ?dummy_symbol_arts7_lamp@@YAXXZ 00405460 f i arts_arts7:lamp.obj
 0001:00004460       ?dummy_symbol_mmai_aiGoalStop@@YAXXZ 00405460 f i arts_mmai:aiGoalStop.obj
 0001:00004460       ?dummy_symbol_mmwidget_toggle2@@YAXXZ 00405460 f i arts_mmwidget:toggle2.obj
 0001:00004460       ?dummy_symbol_stream_sparser@@YAXXZ 00405460 f i arts_stream:sparser.obj
 0001:00004460       ?dummy_symbol_arts7_cullmgr@@YAXXZ 00405460 f i arts_arts7:cullmgr.obj
 0001:00004460       ?dummy_symbol_mmeffects_mmtext@@YAXXZ 00405460 f i arts_mmeffects:mmtext.obj
 0001:00004460       ?dummy_symbol_stream_hfsystem@@YAXXZ 00405460 f i arts_stream:hfsystem.obj
 0001:00004460       ?dummy_symbol_arts7_linear@@YAXXZ 00405460 f i arts_arts7:linear.obj
 0001:00004460       ?dummy_symbol_data7_hash@@YAXXZ 00405460 f i arts_data7:hash.obj
 0001:00004460       ?dummy_symbol_mmgame_gamesingle@@YAXXZ 00405460 f i arts_mmgame:gamesingle.obj
 0001:00004460       ?dummy_symbol_mminput_localize@@YAXXZ 00405460 f i arts_mminput:localize.obj
 0001:00004460       ?dummy_symbol_mmcityinfo_vehlist@@YAXXZ 00405460 f i arts_mmcityinfo:vehlist.obj
 0001:00004460       ?dummy_symbol_mmphysics_entity@@YAXXZ 00405460 f i arts_mmphysics:entity.obj
 0001:00004460       ?dummy_symbol_mmdjpeg_jdapimin@@YAXXZ 00405460 f i arts_mmdjpeg:jdapimin.obj
 0001:00004460       ??1agiLightModelParameters@@QAE@XZ 00405460 f i arts_agi:lmodel.obj
 0001:00004460       ?dummy_symbol_mmdjpeg_jerror@@YAXXZ 00405460 f i arts_mmdjpeg:jerror.obj
 0001:00004460       ?dummy_symbol_mmcamcs_spline@@YAXXZ 00405460 f i arts_mmcamcs:spline.obj
 0001:00004460       ?dummy_symbol_mmai_aiPedestrian@@YAXXZ 00405460 f i arts_mmai:aiPedestrian.obj
 0001:00004460       ?dummy_symbol_agiworld_meshset@@YAXXZ 00405460 f i arts_agiworld:meshset.obj
 0001:00004460       ?dummy_symbol_agirend_bilmodel@@YAXXZ 00405460 f i arts_agirend:bilmodel.obj
 0001:00004460       ?dummy_symbol_mmwidget_manager@@YAXXZ 00405460 f i arts_mmwidget:manager.obj
 0001:00004460       ?dummy_symbol_agisw_swrsys@@YAXXZ 00405460 f i arts_agisw:swrsys.obj
 0001:00004460       ?EndGfx@agiSWTexLut@@UAEXXZ 00405460 f i arts_agisw:swtexdef.obj
 0001:00004460       ?dummy_symbol_mmwidget_bm_label@@YAXXZ 00405460 f i arts_mmwidget:bm_label.obj
 0001:00004460       ?dummy_symbol_mmcar_opponentimpactaudio@@YAXXZ 00405460 f i arts_mmcar:opponentimpactaudio.obj
 0001:00004460       ?UpdatePaused@mmHUD@@UAEXXZ 00405460 f i arts_mmgame:hud.obj
 0001:00004460       ?dummy_symbol_mmaudio_mixer@@YAXXZ 00405460 f i arts_mmaudio:mixer.obj
 0001:00004460       ?PreSetup@Dialog_ControlAssign@@UAEXXZ 00405460 f i arts_mmui:dlg_ctrl.obj
 0001:00004460       ?dummy_symbol_mmui_audio@@YAXXZ 00405460 f i arts_mmui:audio.obj
 0001:00004460       ?dummy_symbol_vector7_vector3@@YAXXZ 00405460 f i arts_vector7:vector3.obj
 0001:00004460       ?dummy_symbol_arts7_bank@@YAXXZ 00405460 f i arts_arts7:bank.obj
 0001:00004460       ?dummy_symbol_mmanim_plane@@YAXXZ 00405460 f i arts_mmanim:plane.obj
 0001:00004460       ?dummy_symbol_mmwidget_widget@@YAXXZ 00405460 f i arts_mmwidget:widget.obj
 0001:00004460       ?dummy_symbol_mmbangers_active@@YAXXZ 00405460 f i arts_mmbangers:active.obj
 0001:00004460       ?dummy_symbol_mmwidget_controlwidget@@YAXXZ 00405460 f i arts_mmwidget:controlwidget.obj
 0001:00004460       ?dummy_symbol_mmwidget_textroller@@YAXXZ 00405460 f i arts_mmwidget:textroller.obj
 0001:00004460       ??1agiColorModel8@@UAE@XZ  00405460 f i arts_agi:cmodel8.obj
 0001:00004460       ?dummy_symbol_eventq7_replay@@YAXXZ 00405460 f i arts_eventq7:replay.obj
 0001:00004460       ?EndFrame@agiPipeline@@UAEXXZ 00405460 f i arts_agi:pipeline.obj
 0001:00004460       ?dummy_symbol_mmgame_player@@YAXXZ 00405460 f i arts_mmgame:player.obj
 0001:00004460       ?dummy_symbol_mmai_aiIntersection@@YAXXZ 00405460 f i arts_mmai:aiIntersection.obj
 0001:00004460       ?dummy_symbol_mmcar_networkcaraudio@@YAXXZ 00405460 f i arts_mmcar:networkcaraudio.obj
 0001:00004460       ?dummy_symbol_mmcamtour_gamerecord@@YAXXZ 00405460 f i arts_mmcamtour:gamerecord.obj
 0001:00004460       ?dummy_symbol_mmwidget_togglebutton@@YAXXZ 00405460 f i arts_mmwidget:togglebutton.obj
 0001:00004460       ?dummy_symbol_mmcityinfo_crc@@YAXXZ 00405460 f i arts_mmcityinfo:crc.obj
 0001:00004460       ?dummy_symbol_mminput_spring@@YAXXZ 00405460 f i arts_mminput:spring.obj
 0001:00004460       ?dummy_symbol_mmcar_engine@@YAXXZ 00405460 f i arts_mmcar:engine.obj
 0001:00004460       ?dummy_symbol_agiworld_meshrend@@YAXXZ 00405460 f i arts_agiworld:meshrend.obj
 0001:00004460       ?Update@mmToolTip@@UAEXXZ  00405460 f i arts_mmwidget:ttip.obj
 0001:00004460       ?dummy_symbol_mmwidget_tdwidget@@YAXXZ 00405460 f i arts_mmwidget:tdwidget.obj
 0001:00004460       ?dummy_symbol_mmbangers_banger@@YAXXZ 00405460 f i arts_mmbangers:banger.obj
 0001:00004460       ?dummy_symbol_mmai_aipedaudiomanager@@YAXXZ 00405460 f i arts_mmai:aipedaudiomanager.obj
 0001:00004460       ?InitOtherPlayers@mmGameEdit@@UAEXXZ 00405460 f i arts_mmgame:gameedit.obj
 0001:00004460       ?dummy_symbol_mmui_pu_chat@@YAXXZ 00405460 f i arts_mmui:pu_chat.obj
 0001:00004460       ?dummy_symbol_mmdjpeg_jdmainct@@YAXXZ 00405460 f i arts_mmdjpeg:jdmainct.obj
 0001:00004460       ?Reset@aiGoalStop@@UAEXXZ  00405460 f i arts_mmai:aiGoalStop.obj
 0001:00004460       ?dummy_symbol_mmwidget_bm_button@@YAXXZ 00405460 f i arts_mmwidget:bm_button.obj
 0001:00004460       ?dummy_symbol_mmeffects_ptx@@YAXXZ 00405460 f i arts_mmeffects:ptx.obj
 0001:00004460       ?dummy_symbol_agisw_swemitrunall@@YAXXZ 00405460 f i arts_agisw:swemitrunall.obj
 0001:00004460       ?dummy_symbol_mmcar_policecaraudio@@YAXXZ 00405460 f i arts_mmcar:policecaraudio.obj
 0001:00004460       ?dummy_symbol_mminput_joyman@@YAXXZ 00405460 f i arts_mminput:joyman.obj
 0001:00004460       ?UpdatePaused@asNode@@UAEXXZ 00405460 f i arts_arts7:node.obj
 0001:00004460       ?dummy_symbol_agi_cmodelx@@YAXXZ 00405460 f i arts_agi:cmodelx.obj
 0001:00004460       ?dummy_symbol_mmeffects_meshform@@YAXXZ 00405460 f i arts_mmeffects:meshform.obj
 0001:00004460       ?dummy_symbol_mminput_joystick@@YAXXZ 00405460 f i arts_mminput:joystick.obj
 0001:00004460       ??1agiMonoLighter@@UAE@XZ  00405460 f i arts_agigl:glpipe.obj
 0001:00004460       ??1agiColorModelRGB888_Rev@@UAE@XZ 00405460 f i arts_agi:cmodelx.obj
 0001:00004460       ?dummy_symbol_mmgame_gameman@@YAXXZ 00405460 f i arts_mmgame:gameman.obj
 0001:00004460       ?dummy_symbol_mmdyna_poly@@YAXXZ 00405460 f i arts_mmdyna:poly.obj
 0001:00004460       ?dummy_symbol_mmcity_inst@@YAXXZ 00405460 f i arts_mmcity:inst.obj
 0001:00004460       ?dummy_symbol_agi_palette@@YAXXZ 00405460 f i arts_agi:palette.obj
 0001:00004460       ?DrawShadow@mmInstance@@UAIXXZ 00405460 f i arts_mmcity:inst.obj
 0001:00004460       ?dummy_symbol_vector7_trigmath@@YAXXZ 00405460 f i arts_vector7:trigmath.obj
 0001:00004460       ?dummy_symbol_mmgame_netobject@@YAXXZ 00405460 f i arts_mmgame:netobject.obj
 0001:00004460       ?dummy_symbol_agi_cmodel@@YAXXZ 00405460 f i arts_agi:cmodel.obj
 0001:00004460       ?dummy_symbol_mmaudio_dupbufcreator@@YAXXZ 00405460 f i arts_mmaudio:dupbufcreator.obj
 0001:00004460       ?dummy_symbol_arts7_dof@@YAXXZ 00405460 f i arts_arts7:dof.obj
 0001:00004460       ?ResetToolTip@uiWidget@@QAEXXZ 00405460 f i arts_mmwidget:widget.obj
 0001:00004460       ?Init@mmViewCS@@QAEXXZ     00405460 f i arts_mmcamcs:viewcs.obj
 0001:00004460       ?dummy_symbol_mmui_racebase@@YAXXZ 00405460 f i arts_mmui:racebase.obj
 0001:00004460       ?dummy_symbol_mmcamcs_viewcs@@YAXXZ 00405460 f i arts_mmcamcs:viewcs.obj
 0001:00004460       ?dummy_symbol_mmdjpeg_jmemnobs@@YAXXZ 00405460 f i arts_mmdjpeg:jmemnobs.obj
 0001:00004460       ?dummy_symbol_mmcityinfo_playercfg@@YAXXZ 00405460 f i arts_mmcityinfo:playercfg.obj
 0001:00004460       ?dummy_symbol_mmdjpeg_jdmarker@@YAXXZ 00405460 f i arts_mmdjpeg:jdmarker.obj
 0001:00004460       ?dummy_symbol_agi_dlp@@YAXXZ 00405460 f i arts_agi:dlp.obj
 0001:00004460       ?dummy_symbol_mmcity_portal@@YAXXZ 00405460 f i arts_mmcity:portal.obj
 0001:00004460       ?dummy_symbol_data7_b2f@@YAXXZ 00405460 f i arts_data7:b2f.obj
 0001:00004460       ?dummy_symbol_mmcar_wheel@@YAXXZ 00405460 f i arts_mmcar:wheel.obj
 0001:00004460       ?dummy_symbol_mmgame_hud@@YAXXZ 00405460 f i arts_mmgame:hud.obj
 0001:00004460       ?PopColumn@asMidgets@@UAEXXZ 00405460 f i arts_arts7:midgets.obj
 0001:00004460       ?dummy_symbol_mmui_dlg_ctrl@@YAXXZ 00405460 f i arts_mmui:dlg_ctrl.obj
 0001:00004460       ?dummy_symbol_mmcamcs_basecamcs@@YAXXZ 00405460 f i arts_mmcamcs:basecamcs.obj
 0001:00004460       ??1mmAnimTrigger@@QAE@XZ   00405460 f i arts_mmanim:AnimMgr.obj
 0001:00004460       ?dummy_symbol_mmdjpeg_jdcolor@@YAXXZ 00405460 f i arts_mmdjpeg:jdcolor.obj
 0001:00004460       ?dummy_symbol_mmaudio_audstream@@YAXXZ 00405460 f i arts_mmaudio:audstream.obj
 0001:00004460       ?dummy_symbol_agi_lmodel@@YAXXZ 00405460 f i arts_agi:lmodel.obj
 0001:00004460       ?AfterLoad@Base@@UAEXXZ    00405460 f i arts_data7:base.obj
 0001:00004460       ?DestroyPipelineAttachableWindow@@YAXXZ 00405460 f i arts_agi:pipeline.obj
 0001:00004460       ?dummy_symbol_mmui_dlg_hoff@@YAXXZ 00405460 f i arts_mmui:dlg_hoff.obj
 0001:00004460       ??1agiSurfRenderer@@MAE@XZ 00405460 f i arts_agigl:glpipe.obj
 0001:00004460       ?dummy_symbol_mmui_dlg_tcpip@@YAXXZ 00405460 f i arts_mmui:dlg_tcpip.obj
 0001:00004460       ?dummy_symbol_agiworld_getmesh@@YAXXZ 00405460 f i arts_agiworld:getmesh.obj
 0001:00004460       ?dummy_symbol_mmui_netselect@@YAXXZ 00405460 f i arts_mmui:netselect.obj
 0001:00004460       ?dummy_symbol_mmgame_multiblitz@@YAXXZ 00405460 f i arts_mmgame:multiblitz.obj
 0001:00004460       ?dummy_symbol_mmai_aiGoalRegainRail@@YAXXZ 00405460 f i arts_mmai:aiGoalRegainRail.obj
 0001:00004460       ?dummy_symbol_agiworld_getmodel@@YAXXZ 00405460 f i arts_agiworld:getmodel.obj
 0001:00004460       ?dummy_symbol_mmeffects_mmnumber@@YAXXZ 00405460 f i arts_mmeffects:mmnumber.obj
 0001:00004460       ??1mmJaxis@@QAE@XZ         00405460 f i arts_mminput:joystick.obj
 0001:00004460       ?PostUpdate@mmPhysEntity@@UAEXXZ 00405460 f i midtown.obj
 0001:00004460       ?EndGroup@agiSWRasterizer@@UAEXXZ 00405460 f i arts_agisw:swrsys.obj
 0001:00004460       ?dummy_symbol_mminput_io@@YAXXZ 00405460 f i arts_mminput:io.obj
 0001:00004460       ?dummy_symbol_mmai_aiVehicleSpline@@YAXXZ 00405460 f i arts_mmai:aiVehicleSpline.obj
 0001:00004460       ?dummy_symbol_mmcar_skid@@YAXXZ 00405460 f i arts_mmcar:skid.obj
 0001:00004460       ?Cull@mmWaypoints@@UAEXXZ  00405460 f i arts_mmgame:waypoints.obj
 0001:00004460       ?dummy_symbol_mmcar_roadff@@YAXXZ 00405460 f i arts_mmcar:roadff.obj
 0001:00004460       ?dummy_symbol_agiworld_packnorm@@YAXXZ 00405460 f i arts_agiworld:packnorm.obj
 0001:00004460       ?dummy_symbol_mmanim_bridge@@YAXXZ 00405460 f i arts_mmanim:bridge.obj
 0001:00004460       ?dummy_symbol_agirend_zbrender@@YAXXZ 00405460 f i arts_agirend:zbrender.obj
 0001:00004460       ?dummy_symbol_mmdjpeg_jddctmgr@@YAXXZ 00405460 f i arts_mmdjpeg:jddctmgr.obj
 0001:00004460       ?dummy_symbol_data7_metatype@@YAXXZ 00405460 f i arts_data7:metatype.obj
 0001:00004460       ?dummy_symbol_mmanim_boat@@YAXXZ 00405460 f i arts_mmanim:boat.obj
 0001:00004460       ?dummy_symbol_arts7_view@@YAXXZ 00405460 f i arts_arts7:view.obj
 0001:00004460       ?Restore@agiRefreshable@@UAEXXZ 00405460 f i arts_agi:refresh.obj
 0001:00004460       ?dummy_symbol_arts7_camera@@YAXXZ 00405460 f i arts_arts7:camera.obj
 0001:00004460       ?_Doraise@exception@stdext@@MBEXXZ 00405460 f i arts_data7:metaclass.obj
 0001:00004460       ?FromMatrix@mmSkid@@UAIXABVMatrix34@@@Z 00405460 f i arts_mmcar:skid.obj
 0001:00004460       ?dummy_symbol_mmphysics_joint3dof@@YAXXZ 00405460 f i arts_mmphysics:joint3dof.obj
 0001:00004460       ?dummy_symbol_mmgame_hudmap@@YAXXZ 00405460 f i arts_mmgame:hudmap.obj
 0001:00004460       ?dummy_symbol_mmcityinfo_miscdata@@YAXXZ 00405460 f i arts_mmcityinfo:miscdata.obj
 0001:00004460       ?dummy_symbol_mmphysics_osample@@YAXXZ 00405460 f i arts_mmphysics:osample.obj
 0001:00004460       ?dummy_symbol_mmdjpeg_jdsample@@YAXXZ 00405460 f i arts_mmdjpeg:jdsample.obj
 0001:00004460       ?UpdateFlags@agiBitmap@@UAEXXZ 00405460 f i arts_agi:bitmap.obj
 0001:00004460       ?dummy_symbol_vector7_const@@YAXXZ 00405460 f i arts_vector7:const.obj
 0001:00004460       ?dummy_symbol_mmai_aiGoalAvoidPlayer@@YAXXZ 00405460 f i arts_mmai:aiGoalAvoidPlayer.obj
 0001:00004460       ?dummy_symbol_mmcar_force@@YAXXZ 00405460 f i arts_mmcar:force.obj
 0001:00004460       ?ResetDefaultAction@OptionsBase@@UAEXXZ 00405460 f i arts_mmui:optionsbase.obj
 0001:00004460       ?dummy_symbol_arts7_node@@YAXXZ 00405460 f i arts_arts7:node.obj
 0001:00004460       ?Relight@mmStaticInstance@@UAIXXZ 00405460 f i arts_mmcity:inst.obj
 0001:00004460       ?BeforeSave@mmPlayer@@UAEXXZ 00405460 f i arts_mmgame:player.obj
 0001:00004460       ?dummy_symbol_mmcamcs_transitioncs@@YAXXZ 00405460 f i arts_mmcamcs:transitioncs.obj
 0001:00004460       ?dummy_symbol_mmcity_cullcity@@YAXXZ 00405460 f i arts_mmcity:cullcity.obj
 0001:00004460       ?Cull@mmWPHUD@@UAEXXZ      00405460 f i arts_mmgame:wphud.obj
 0001:00004460       ?Reset@mmInstance@@UAEXXZ  00405460 f i arts_mmcity:inst.obj
 0001:00004460       ?UpdateInput@TrackCamCS@@UAEXXZ 00405460 f i arts_mmcamcs:trackcamcs.obj
 0001:00004460       ?dummy_symbol_agi_refresh@@YAXXZ 00405460 f i arts_agi:refresh.obj
 0001:00004460       ?ShutdownRecord@eqReplayChannel@@UAEXXZ 00405460 f i arts_eventq7:replay.obj
 0001:00004460       ?dummy_symbol_mmui_vselect@@YAXXZ 00405460 f i arts_mmui:vselect.obj
 0001:00004460       ?dummy_symbol_mmcity_renderweb@@YAXXZ 00405460 f i arts_mmcity:renderweb.obj
 0001:00004460       ?dummy_symbol_mmui_pu_results@@YAXXZ 00405460 f i arts_mmui:pu_results.obj
 0001:00004460       ?dummy_symbol_mmui_dlg_newp@@YAXXZ 00405460 f i arts_mmui:dlg_newp.obj
 0001:00004460       ?dummy_symbol_mmcamcs_trackcamcs@@YAXXZ 00405460 f i arts_mmcamcs:trackcamcs.obj
 0001:00004460       ?dummy_symbol_agi_texdef@@YAXXZ 00405460 f i arts_agi:texdef.obj
 0001:00004460       ?DrawShadow@mmSkid@@UAIXXZ 00405460 f i arts_mmcar:skid.obj
 0001:00004460       ?dummy_symbol_mmui_optionsbase@@YAXXZ 00405460 f i arts_mmui:optionsbase.obj
 0001:00004460       ?dummy_symbol_mmeffects_birth@@YAXXZ 00405460 f i arts_mmeffects:birth.obj
 0001:00004460       ?dummy_symbol_mmaudio_mmvoicecommentary@@YAXXZ 00405460 f i arts_mmaudio:mmvoicecommentary.obj
 0001:00004460       ?dummy_symbol_stream_stream@@YAXXZ 00405460 f i arts_stream:stream.obj
 0001:00004460       ?dummy_symbol_arts7_benchstats@@YAXXZ 00405460 f i arts_arts7:benchstats.obj
 0001:00004460       ?dummy_symbol_mmcar_carsimcheap@@YAXXZ 00405460 f i arts_mmcar:carsimcheap.obj
 0001:00004460       ?dummy_symbol_mmcar_opponentcaraudio@@YAXXZ 00405460 f i arts_mmcar:opponentcaraudio.obj
 0001:00004460       ?dummy_symbol_mmwidget_compscroll@@YAXXZ 00405460 f i arts_mmwidget:compscroll.obj
 0001:00004460       ?dummy_symbol_memory_valloc@@YAXXZ 00405460 f i arts_memory:valloc.obj
 0001:00004460       ?dummy_symbol_arts7_midgets@@YAXXZ 00405460 f i arts_arts7:midgets.obj
 0001:00004460       ?dummy_symbol_mmai_aiGoal@@YAXXZ 00405460 f i arts_mmai:aiGoal.obj
 0001:00004460       ??1mmVehInfo@@UAE@XZ       00405460 f i arts_mmai:aiVehicleOpponent.obj
 0001:00004460       ?dummy_symbol_agisw_swrend@@YAXXZ 00405460 f i arts_agisw:swrend.obj
 0001:00004460       ?dummy_symbol_mmui_pu_graphics@@YAXXZ 00405460 f i arts_mmui:pu_graphics.obj
 0001:00004460       ??1aiPoliceForce@@QAE@XZ   00405460 f i arts_mmai:aiGoalChase.obj
 0001:00004460       ?jpeg_mem_term@@YAXPAUjpeg_common_struct@@@Z 00405460 f i arts_mmdjpeg:jmemnobs.obj
 0001:00004460       ?dummy_symbol_mmphysics_inertia@@YAXXZ 00405460 f i arts_mmphysics:inertia.obj
 0001:00004460       ?Remove@agiLight@@UAEXXZ   00405460 f i arts_agi:light.obj
 0001:00004460       ?dummy_symbol_mmwidget_menu@@YAXXZ 00405460 f i arts_mmwidget:menu.obj
 0001:00004460       ?dummy_symbol_mmcar_drivetrain@@YAXXZ 00405460 f i arts_mmcar:drivetrain.obj
 0001:00004460       ?dummy_symbol_mmcar_carsim@@YAXXZ 00405460 f i arts_mmcar:carsim.obj
 0001:00004460       ?dummy_symbol_mmnetwork_netobject@@YAXXZ 00405460 f i arts_mmnetwork:netobject.obj
 0001:00004460       ?dummy_symbol_mmgame_wphud@@YAXXZ 00405460 f i arts_mmgame:wphud.obj
 0001:00004460       ?DetachMe@mmPhysEntity@@UAEXXZ 00405460 f i midtown.obj
 0001:00004460       ?dummy_symbol_mmdyna_bndtmpl2@@YAXXZ 00405460 f i arts_mmdyna:bndtmpl2.obj
 0001:00004460       ?dummy_symbol_mmcamcs_aicamcs@@YAXXZ 00405460 f i arts_mmcamcs:aicamcs.obj
 0001:00004460       ?dummy_symbol_mmanim_AnimTrigger@@YAXXZ 00405460 f i arts_mmanim:AnimTrigger.obj
 0001:00004460       ?dummy_symbol_data7_args@@YAXXZ 00405460 f i arts_data7:args.obj
 0001:00004460       ?dummy_symbol_mmwidget_label@@YAXXZ 00405460 f i arts_mmwidget:label.obj
 0001:00004460       ?dummy_symbol_mmai_aiPath@@YAXXZ 00405460 f i arts_mmai:aiPath.obj
 0001:00004460       ?dummy_symbol_agirend_lighter@@YAXXZ 00405460 f i arts_agirend:lighter.obj
 0001:00004460       ?dummy_symbol_agi_pipeline@@YAXXZ 00405460 f i arts_agi:pipeline.obj
 0001:00004460       ?dummy_symbol_mmgame_wpobject@@YAXXZ 00405460 f i arts_mmgame:wpobject.obj
 0001:00004460       ?dummy_symbol_stream_fsystem@@YAXXZ 00405460 f i arts_stream:fsystem.obj
 0001:00004460       ?dummy_symbol_vector7_geomath@@YAXXZ 00405460 f i arts_vector7:geomath.obj
 0001:00004460       ?dummy_symbol_agi_surface@@YAXXZ 00405460 f i arts_agi:surface.obj
 0001:00004460       ?dummy_symbol_pcwindis_pcwindis@@YAXXZ 00405460 f i arts_pcwindis:pcwindis.obj
 0001:00004460       ?dummy_symbol_agirend_bilight@@YAXXZ 00405460 f i arts_agirend:bilight.obj
 0001:00004460       ?dummy_symbol_mmaudio_head@@YAXXZ 00405460 f i arts_mmaudio:head.obj
 0001:00004460       ?dummy_symbol_eventq7_eventq@@YAXXZ 00405460 f i arts_eventq7:eventq.obj
 0001:00004460       ?dummy_symbol_mmphysics_aero@@YAXXZ 00405460 f i arts_mmphysics:aero.obj
 0001:00004460       ?dummy_symbol_mmgame_game@@YAXXZ 00405460 f i arts_mmgame:game.obj
 0001:00004460       ?dummy_symbol_mmgame_waypoints@@YAXXZ 00405460 f i arts_mmgame:waypoints.obj
 0001:00004460       ?dummy_symbol_mmwidget_textdrop@@YAXXZ 00405460 f i arts_mmwidget:textdrop.obj
 0001:00004460       ?dummy_symbol_mmeffects_mousesteerbar@@YAXXZ 00405460 f i arts_mmeffects:mousesteerbar.obj
 0001:00004460       ?UpdatePaused@aiMap@@UAEXXZ 00405460 f i arts_mmai:aiMap.obj
 0001:00004460       ?dummy_symbol_data7_str@@YAXXZ 00405460 f i arts_data7:str.obj
 0001:00004460       ?dummy_symbol_mmanim_AnimMgr@@YAXXZ 00405460 f i arts_mmanim:AnimMgr.obj
 0001:00004460       ?dummy_symbol_stream_token@@YAXXZ 00405460 f i arts_stream:token.obj
 0001:00004460       ?dummy_symbol_mmphysics_bound@@YAXXZ 00405460 f i arts_mmphysics:bound.obj
 0001:00004460       ?DisableSessions@NetSelectMenu@@QAEXXZ 00405460 f i arts_mmui:netselect.obj
 0001:00004460       ?EndScene@agiPipeline@@UAEXXZ 00405460 f i arts_agi:pipeline.obj
 0001:00004460       ?dummy_symbol_mmgame_singlecircuit@@YAXXZ 00405460 f i arts_mmgame:singlecircuit.obj
 0001:00004460       ?dummy_symbol_mmaudio_sound@@YAXXZ 00405460 f i arts_mmaudio:sound.obj
 0001:00004460       ?dummy_symbol_mmcity_anim@@YAXXZ 00405460 f i arts_mmcity:anim.obj
 0001:00004460       ?dummy_symbol_mmcar_opponentsurfaceaudio@@YAXXZ 00405460 f i arts_mmcar:opponentsurfaceaudio.obj
 0001:00004460       ?dummy_symbol_mmaudio_crevbuf@@YAXXZ 00405460 f i arts_mmaudio:crevbuf.obj
 0001:00004460       ?ShowTCPIPNetSessions@NetSelectMenu@@QAEXXZ 00405460 f i arts_mmui:netselect.obj
 0001:00004460       ?dummy_symbol_mmwidget_compbase@@YAXXZ 00405460 f i arts_mmwidget:compbase.obj
 0001:00004460       ?BeginTracking@SDLEventHandler@@UAEXXZ 00405460 f i arts_eventq7:sdlevent.obj
 0001:00004460       __initialize_invalid_parameter_handler 00405460 f i LIBCMT:invalid_parameter_handler.obj
 0001:00004460       ?dummy_symbol_mmcar_shard@@YAXXZ 00405460 f i arts_mmcar:shard.obj
 0001:00004460       ?dummy_symbol_mmanim_AnimSpline@@YAXXZ 00405460 f i arts_mmanim:AnimSpline.obj
 0001:00004460       ?SetGlobalTuning@mmCarSim@@SAXMM@Z 00405460 f i arts_mmcar:carsim.obj
 0001:00004460       ?dummy_symbol_mmcityinfo_cityinfo@@YAXXZ 00405460 f i arts_mmcityinfo:cityinfo.obj
 0001:00004460       ?dummy_symbol_mmdjpeg_jdatasrc@@YAXXZ 00405460 f i arts_mmdjpeg:jdatasrc.obj
 0001:00004460       ?dummy_symbol_mmaudio_streamobj@@YAXXZ 00405460 f i arts_mmaudio:streamobj.obj
 0001:00004460       ??1ControlBase@@QAE@XZ     00405460 f i arts_mmui:controlbase.obj
 0001:00004460       ?dummy_symbol_stream_vstream@@YAXXZ 00405460 f i arts_stream:vstream.obj
 0001:00004460       ?dummy_symbol_dyna7_dyna@@YAXXZ 00405460 f i arts_dyna7:dyna.obj
 0001:00004460       ?EndGroup@agiRasterizer@@UAEXXZ 00405460 f i arts_agi:rsys.obj
 0001:00004460       ?dummy_symbol_mmcamcs_povcamcs@@YAXXZ 00405460 f i arts_mmcamcs:povcamcs.obj
 0001:00004460       ?dummy_symbol_mmcar_car@@YAXXZ 00405460 f i arts_mmcar:car.obj
 0001:00004460       ?dummy_symbol_arts7_sim@@YAXXZ 00405460 f i arts_arts7:sim.obj
 0001:00004460       ??1mmRaceData@@QAE@XZ      00405460 f i arts_mmcityinfo:racedata.obj
 0001:00004460       ?__empty_global_delete@@YAXPAXI@Z 00405460 f i midtown.obj
 0001:00004460       ?EndGfx@agiSDLViewport@@UAEXXZ 00405460 f i arts_agisdl:sdlswpipe.obj
 0001:00004460       ?dummy_symbol_mmwidget_compdrec@@YAXXZ 00405460 f i arts_mmwidget:compdrec.obj
 0001:00004460       ?dummy_symbol_mmdjpeg_jdhuff@@YAXXZ 00405460 f i arts_mmdjpeg:jdhuff.obj
 0001:00004460       ?dummy_symbol_mmgame_wpinst@@YAXXZ 00405460 f i arts_mmgame:wpinst.obj
 0001:00004460       ?dummy_symbol_mmanim_AnimDOF@@YAXXZ 00405460 f i arts_mmanim:AnimDOF.obj
 0001:00004460       ?dummy_symbol_agi_print@@YAXXZ 00405460 f i arts_agi:print.obj
 0001:00004460       ?dummy_symbol_agiworld_texsort@@YAXXZ 00405460 f i arts_agiworld:texsort.obj
 0001:00004460       ?dummy_symbol_agiworld_texsheet@@YAXXZ 00405460 f i arts_agiworld:texsheet.obj
 0001:00004460       ?dummy_symbol_agi_viewport@@YAXXZ 00405460 f i arts_agi:viewport.obj
 0001:00004460       ?dummy_symbol_arts7_cullable@@YAXXZ 00405460 f i arts_arts7:cullable.obj
 0001:00004460       ?dummy_symbol_mmui_dlg_drec@@YAXXZ 00405460 f i arts_mmui:dlg_drec.obj
 0001:00004460       ?Discard@agiGLStreamBuffer@@UAEXXZ 00405460 f i arts_agigl:glstream.obj
 0001:00004460       ?dummy_symbol_mmui_pu_control@@YAXXZ 00405460 f i arts_mmui:pu_control.obj
 0001:00004460       ?dummy_symbol_mmwidget_vswidget@@YAXXZ 00405460 f i arts_mmwidget:vswidget.obj
 0001:00004460       ?dummy_symbol_pcwindis_dxinit@@YAXXZ 00405460 f i arts_pcwindis:dxinit.obj
 0001:00004460       ??1mmOpponentSurfaceAudio@@QAE@XZ 00405460 f i arts_mmcar:opponentsurfaceaudio.obj
 0001:00004460       ?dummy_symbol_mmcityinfo_racerecord@@YAXXZ 00405460 f i arts_mmcityinfo:racerecord.obj
 0001:00004460       ?dummy_symbol_mmcityinfo_state@@YAXXZ 00405460 f i arts_mmcityinfo:state.obj
 0001:00004460       ?dummy_symbol_mmgame_popup@@YAXXZ 00405460 f i arts_mmgame:popup.obj
 0001:00004460       ?DoneAction@ControlSetup@@UAEXXZ 00405460 f i arts_mmui:control.obj
 0001:00004460       ?dummy_symbol_mmwidget_togglebutton2@@YAXXZ 00405460 f i arts_mmwidget:togglebutton2.obj
 0001:00004460       ?dummy_symbol_mmui_dlg_serial@@YAXXZ 00405460 f i arts_mmui:dlg_serial.obj
 0001:00004460       ?Print@asBenchStats@@QAEXXZ 00405460 f i arts_arts7:benchstats.obj
 0001:00004460       ?dummy_symbol_mmai_aiaudiomanager@@YAXXZ 00405460 f i arts_mmai:aiaudiomanager.obj
 0001:00004460       ?Request@agiTexDef@@UAEXXZ 00405460 f i arts_agi:texdef.obj
 0001:00004460       ?dummy_symbol_data7_miniparser@@YAXXZ 00405460 f i arts_data7:miniparser.obj
 0001:00004460       ?dummy_symbol_dyna7_gfx@@YAXXZ 00405460 f i arts_dyna7:gfx.obj
 0001:00004460       ?dummy_symbol_agiworld_quality@@YAXXZ 00405460 f i arts_agiworld:quality.obj
 0001:00004460       ?dummy_symbol_mmcityinfo_mapdata@@YAXXZ 00405460 f i arts_mmcityinfo:mapdata.obj
 0001:00004460       ?dummy_symbol_pcwindis_setupdata@@YAXXZ 00405460 f i arts_pcwindis:setupdata.obj
 0001:00004460       ?dummy_symbol_mmui_vshow@@YAXXZ 00405460 f i arts_mmui:vshow.obj
 0001:00004460       ?dummy_symbol_mmgame_multicircuit@@YAXXZ 00405460 f i arts_mmgame:multicircuit.obj
 0001:00004460       ?dummy_symbol_mmcar_splash@@YAXXZ 00405460 f i arts_mmcar:splash.obj
 0001:00004460       ?dummy_symbol_mmanim_traincar@@YAXXZ 00405460 f i arts_mmanim:traincar.obj
 0001:00004460       ?dummy_symbol_mmeffects_linespark@@YAXXZ 00405460 f i arts_mmeffects:linespark.obj
 0001:00004460       ?dummy_symbol_mmanim_mmbridgeaudmgr@@YAXXZ 00405460 f i arts_mmanim:mmbridgeaudmgr.obj
 0001:00004460       ?Reset@mmExternalView@@UAEXXZ 00405460 f i arts_mmgame:dash.obj
 0001:00004460       ?dummy_symbol_mmgame_interface@@YAXXZ 00405460 f i arts_mmgame:interface.obj
 0001:00004460       ?dummy_symbol_mmdyna_bndtmpl@@YAXXZ 00405460 f i arts_mmdyna:bndtmpl.obj
 0001:00004460       ?dummy_symbol_mmai_aiRailSet@@YAXXZ 00405460 f i arts_mmai:aiRailSet.obj
 0001:00004460       ?dummy_symbol_data7_mmx@@YAXXZ 00405460 f i arts_data7:mmx.obj
 0001:00004460       ?Reset@AudManager@@UAEXXZ  00405460 f i arts_mmaudio:manager.obj
 0001:00004460       ??1agiColorModelRGB555_Rev@@UAE@XZ 00405460 f i arts_agi:cmodelx.obj
 0001:00004460       ?dummy_symbol_mmcity_positions@@YAXXZ 00405460 f i arts_mmcity:positions.obj
 0001:00004460       ?dummy_symbol_mmwidget_button@@YAXXZ 00405460 f i arts_mmwidget:button.obj
 0001:00004460       ?dummy_symbol_mmwidget_cwarray@@YAXXZ 00405460 f i arts_mmwidget:cwarray.obj
 0001:00004460       ?dummy_symbol_mmcityinfo_infobase@@YAXXZ 00405460 f i arts_mmcityinfo:infobase.obj
 0001:00004460       ?dummy_symbol_mmeffects_damage@@YAXXZ 00405460 f i arts_mmeffects:damage.obj
 0001:00004460       ?dummy_symbol_mmui_pu_roster@@YAXXZ 00405460 f i arts_mmui:pu_roster.obj
 0001:00004460       ?PostSetup@UIMenu@@UAEXXZ  00405460 f i arts_mmwidget:menu.obj
 0001:00004460       ?EndTracking@SDLEventHandler@@UAEXXZ 00405460 f i arts_eventq7:sdlevent.obj
 0001:00004460       ?UpdateInput@PovCamCS@@UAEXXZ 00405460 f i arts_mmcamcs:povcamcs.obj
 0001:00004460       ?dummy_symbol_mmai_aiMap@@YAXXZ 00405460 f i arts_mmai:aiMap.obj
 0001:00004460       ?dummy_symbol_mmgame_singleblitz@@YAXXZ 00405460 f i arts_mmgame:singleblitz.obj
 0001:00004460       ?dummy_symbol_mmdjpeg_jmemmgr@@YAXXZ 00405460 f i arts_mmdjpeg:jmemmgr.obj
 0001:00004460       ?dummy_symbol_mmai_aiTrafficLight@@YAXXZ 00405460 f i arts_mmai:aiTrafficLight.obj
 0001:00004460       ?dummy_symbol_memory_stack@@YAXXZ 00405460 f i arts_memory:stack.obj
 0001:00004460       ?dummy_symbol_mmcar_gyro@@YAXXZ 00405460 f i arts_mmcar:gyro.obj
 0001:00004460       ?dummy_symbol_mmcity_loader@@YAXXZ 00405460 f i arts_mmcity:loader.obj
 0001:00004460       ?dummy_symbol_mminput_collide@@YAXXZ 00405460 f i arts_mminput:collide.obj
 0001:00004460       ?Update@mmPhysEntity@@UAEXXZ 00405460 f i midtown.obj
 0001:00004460       ?dummy_symbol_data7_timer@@YAXXZ 00405460 f i arts_data7:timer.obj
 0001:00004460       ?dummy_symbol_mmai_aiGoalBackup@@YAXXZ 00405460 f i arts_mmai:aiGoalBackup.obj
 0001:00004460       ?dummy_symbol_mmcar_surfaceaudio@@YAXXZ 00405460 f i arts_mmcar:surfaceaudio.obj
 0001:00004460       ?Update@aiPoliceForce@@QAEXXZ 00405460 f i arts_mmai:aiPoliceForce.obj
 0001:00004460       ?dummy_symbol_mmcar_stuck@@YAXXZ 00405460 f i arts_mmcar:stuck.obj
 0001:00004460       ?dummy_symbol_agi_smap@@YAXXZ 00405460 f i arts_agi:smap.obj
 0001:00004460       ??1agiColorModelRGB565_Rev@@UAE@XZ 00405460 f i arts_agi:cmodelx.obj
 0001:00004460       __initialize_denormal_control 00405460 f i LIBCMT:denormal_control.obj
 0001:00004460       ?dummy_symbol_agi_physdef@@YAXXZ 00405460 f i arts_agi:physdef.obj
 0001:00004460       ?dummy_symbol_mmai_aiGoalChase@@YAXXZ 00405460 f i arts_mmai:aiGoalChase.obj
 0001:00004460       ?dummy_symbol_mmdjpeg_jdapistd@@YAXXZ 00405460 f i arts_mmdjpeg:jdapistd.obj
 0001:00004460       ?dummy_symbol_memory_allocator@@YAXXZ 00405460 f i arts_memory:allocator.obj
 0001:00004460       ?Relight@mmInstance@@UAIXXZ 00405460 f i arts_mmcity:inst.obj
 0001:00004460       ??1agiColorModelARGB@@UAE@XZ 00405460 f i arts_agi:cmodelx.obj
 0001:00004460       ?dummy_symbol_mmai_aiVehicleOpponent@@YAXXZ 00405460 f i arts_mmai:aiVehicleOpponent.obj
 0001:00004460       ?dummy_symbol_arts7_pgraph@@YAXXZ 00405460 f i arts_arts7:pgraph.obj
 0001:00004460       ?dummy_symbol_mmwidget_tscroll@@YAXXZ 00405460 f i arts_mmwidget:tscroll.obj
 0001:00004460       ?dummy_symbol_mmai_aiGoalCollision@@YAXXZ 00405460 f i arts_mmai:aiGoalCollision.obj
 0001:00004460       ?dummy_symbol_mmcityinfo_racedata@@YAXXZ 00405460 f i arts_mmcityinfo:racedata.obj
 0001:00004460       ?dummy_symbol_mmui_pu_menu@@YAXXZ 00405460 f i arts_mmui:pu_menu.obj
 0001:00004460       ?dummy_symbol_agiworld_bone@@YAXXZ 00405460 f i arts_agiworld:bone.obj
 0001:00004460       ?AddPointer@MenuManager@@QAEXXZ 00405460 f i arts_mmwidget:manager.obj
 0001:00004460       ?dummy_symbol_data7_quitf@@YAXXZ 00405460 f i arts_data7:quitf.obj
 0001:00004460       ?dummy_symbol_mmwidget_mstore@@YAXXZ 00405460 f i arts_mmwidget:mstore.obj
 0001:00004460       ?dummy_symbol_agiworld_meshload@@YAXXZ 00405460 f i arts_agiworld:meshload.obj
 0001:00004460       ?__global_delete@@YAXPAXI@Z 00405460 f i midtown.obj
 0001:00004460       ?StoreCurrentSetup@OptionsBase@@UAEXXZ 00405460 f i arts_mmui:optionsbase.obj
 0001:00004460       ?dummy_symbol_mmui_pu_quit@@YAXXZ 00405460 f i arts_mmui:pu_quit.obj
 0001:00004460       ??1agiColorModelRGBA5551@@UAE@XZ 00405460 f i arts_agi:cmodelx.obj
 0001:00004460       ?dummy_symbol_data7_callback@@YAXXZ 00405460 f i arts_data7:callback.obj
 0001:00004460       ?EndGfx@DLP@@UAEXXZ        00405460 f i arts_agi:dlp.obj
 0001:00004460       ?Defragment@agiPipeline@@UAEXXZ 00405460 f i arts_agi:pipeline.obj
 0001:00004460       ?dummy_symbol_mmdjpeg_jutils@@YAXXZ 00405460 f i arts_mmdjpeg:jutils.obj
 0001:00004460       ?MakeActive@BaseCamCS@@UAEXXZ 00405460 f i arts_mmcamcs:basecamcs.obj
 0001:00004460       ?dummy_symbol_mmcar_shock@@YAXXZ 00405460 f i arts_mmcar:shock.obj
 0001:00004460       ?dummy_symbol_agiworld_skeleton@@YAXXZ 00405460 f i arts_agiworld:skeleton.obj
 0001:00004460       ?dummy_symbol_mmwidget_pointer@@YAXXZ 00405460 f i arts_mmwidget:pointer.obj
 0001:00004460       ?dummy_symbol_mmui_dlg_city@@YAXXZ 00405460 f i arts_mmui:dlg_city.obj
 0001:00004460       ?dummy_symbol_agiworld_meshsave@@YAXXZ 00405460 f i arts_agiworld:meshsave.obj
 0001:00004460       ?dummy_symbol_mmaudio_eaxguid@@YAXXZ 00405460 f i arts_mmaudio:eaxguid.obj
 0001:00004460       ?dummy_symbol_mmwidget_textroller2@@YAXXZ 00405460 f i arts_mmwidget:textroller2.obj
 0001:00004460       ?dummy_symbol_vector7_algmath@@YAXXZ 00405460 f i arts_vector7:algmath.obj
 0001:00004460       ??1agiLighter@@MAE@XZ      00405460 f i arts_agigl:glpipe.obj
 0001:00004460       ?dummy_symbol_mmanim_train@@YAXXZ 00405460 f i arts_mmanim:train.obj
 0001:00004460       ?dummy_symbol_mmwidget_toggle@@YAXXZ 00405460 f i arts_mmwidget:toggle.obj
 0001:00004460       ?dummy_symbol_mmdjpeg_jidctfst@@YAXXZ 00405460 f i arts_mmdjpeg:jidctfst.obj
 0001:00004460       ??1agiColorModelRGBA4444@@UAE@XZ 00405460 f i arts_agi:cmodelx.obj
 0001:00004460       ??1aiRailSet@@QAE@XZ       00405460 f i arts_mmai:aiGoalBackup.obj
 0001:00004460       ?dummy_symbol_mmcityinfo_citylist@@YAXXZ 00405460 f i arts_mmcityinfo:citylist.obj
 0001:00004460       ?dummy_symbol_mmui_control@@YAXXZ 00405460 f i arts_mmui:control.obj
 0001:00004460       ?dummy_symbol_mmui_dlg_renv@@YAXXZ 00405460 f i arts_mmui:dlg_renv.obj
 0001:00004460       ?dummy_symbol_mmui_netarena@@YAXXZ 00405460 f i arts_mmui:netarena.obj
 0001:00004460       ?dummy_symbol_mmdyna_isect@@YAXXZ 00405460 f i arts_mmdyna:isect.obj
 0001:00004460       ?dummy_symbol_agi_texlib@@YAXXZ 00405460 f i arts_agi:texlib.obj
 0001:00004460       ?dummy_symbol_mmwidget_iconwidget@@YAXXZ 00405460 f i arts_mmwidget:iconwidget.obj
 0001:00004460       ?dummy_symbol_mmui_main@@YAXXZ 00405460 f i arts_mmui:main.obj
 0001:00004460       ?dummy_symbol_mmai_arraylist@@YAXXZ 00405460 f i arts_mmai:arraylist.obj
 0001:00004460       ?dummy_symbol_vector7_vector2@@YAXXZ 00405460 f i arts_vector7:vector2.obj
 0001:00004460       ?dummy_symbol_mmgame_multirace@@YAXXZ 00405460 f i arts_mmgame:multirace.obj
 0001:00004460       ?dummy_symbol_agiworld_meshmodel@@YAXXZ 00405460 f i arts_agiworld:meshmodel.obj
 0001:00004460       ?dummy_symbol_mminput_friction@@YAXXZ 00405460 f i arts_mminput:friction.obj
 0001:00004460       ?dummy_symbol_data7_base@@YAXXZ 00405460 f i arts_data7:base.obj
 0001:00004460       ?dummy_symbol_mmui_cr_settings@@YAXXZ 00405460 f i arts_mmui:cr_settings.obj
 0001:00004460       ??1agiZBufRenderer@@UAE@XZ 00405460 f i arts_agigl:glpipe.obj
 0001:00004460       ?dummy_symbol_mmcity_position@@YAXXZ 00405460 f i arts_mmcity:position.obj
 0001:00004460       ?dummy_symbol_mmphysics_phys@@YAXXZ 00405460 f i arts_mmphysics:phys.obj
 0001:00004460       ?dummy_symbol_mmui_graphics@@YAXXZ 00405460 f i arts_mmui:graphics.obj
 0001:00004460       ?dummy_symbol_mmgame_gameedit@@YAXXZ 00405460 f i arts_mmgame:gameedit.obj
 0001:00004460       ?dummy_symbol_mmcity_cellrend@@YAXXZ 00405460 f i arts_mmcity:cellrend.obj
 0001:00004460       ?dummy_symbol_data7_list@@YAXXZ 00405460 f i arts_data7:list.obj
 0001:00004460       ?dummy_symbol_mmwidget_navbar@@YAXXZ 00405460 f i arts_mmwidget:navbar.obj
 0001:00004460       ?dummy_symbol_data7_memstat@@YAXXZ 00405460 f i arts_data7:memstat.obj
 0001:00004460       ?dummy_symbol_mmui_racehost@@YAXXZ 00405460 f i arts_mmui:racehost.obj
 0001:00004460       ?dummy_symbol_mmui_pu_exit@@YAXXZ 00405460 f i arts_mmui:pu_exit.obj
 0001:00004460       ?dummy_symbol_vector7_quat@@YAXXZ 00405460 f i arts_vector7:quat.obj
 0001:00004460       ?dummy_symbol_mmwidget_comprrec@@YAXXZ 00405460 f i arts_mmwidget:comprrec.obj
 0001:00004460       ?dummy_symbol_mmcityinfo_roadsect@@YAXXZ 00405460 f i arts_mmcityinfo:roadsect.obj
 0001:00004460       ?dummy_symbol_mmcar_trailer@@YAXXZ 00405460 f i arts_mmcar:trailer.obj
 0001:00004460       ?BeginGroup@agiRasterizer@@UAEXXZ 00405460 f i arts_agi:rsys.obj
 0001:00004460       ?dummy_symbol_mmgame_icons@@YAXXZ 00405460 f i arts_mmgame:icons.obj
 0001:00004460       ?FromMatrix@mmRunwayLight@@UAIXABVMatrix34@@@Z 00405460 f i arts_mmcity:cullcity.obj
 0001:00004460       ?Relight@mmCellRenderer@@QAEXXZ 00405460 f i arts_mmcity:cellrend.obj
 0001:00004460       ?dummy_symbol_mmui_pu_debug@@YAXXZ 00405460 f i arts_mmui:pu_debug.obj
 0001:00004460       ?dummy_symbol_agi_dlptmpl@@YAXXZ 00405460 f i arts_agi:dlptmpl.obj
 0001:00004460       ?dummy_symbol_mmwidget_icon@@YAXXZ 00405460 f i arts_mmwidget:icon.obj
 0001:00004460       ?Reset@mmCompBase@@UAEXXZ  00405460 f i arts_mmwidget:compbase.obj
 0001:00004460       ?dummy_symbol_mminput_iodev@@YAXXZ 00405460 f i arts_mminput:iodev.obj
 0001:00004460       ??1agiColorModelRGB555@@UAE@XZ 00405460 f i arts_agi:cmodelx.obj
 0001:00004460       ?InitPlayback@eqReplayChannel@@UAEXXZ 00405460 f i arts_eventq7:replay.obj
 0001:00004460       ?dummy_symbol_mmwidget_ttip@@YAXXZ 00405460 f i arts_mmwidget:ttip.obj
 0001:00004460       ?dummy_symbol_mmcar_playercaraudio@@YAXXZ 00405460 f i arts_mmcar:playercaraudio.obj
 0001:00004460       ?dummy_symbol_mmwidget_mexbutton@@YAXXZ 00405460 f i arts_mmwidget:mexbutton.obj
 0001:00004460       ?EndGfx@agiSWRasterizer@@UAEXXZ 00405460 f i arts_agisw:swrsys.obj
 0001:00004460       ?dummy_symbol_mmwidget_comproster@@YAXXZ 00405460 f i arts_mmwidget:comproster.obj
 0001:00004460       ?dummy_symbol_mmui_driver@@YAXXZ 00405460 f i arts_mmui:driver.obj
 0001:00004460       ?dummy_symbol_stream_problems@@YAXXZ 00405460 f i arts_stream:problems.obj
 0001:00004460       ?dummy_symbol_data7_metaclass@@YAXXZ 00405460 f i arts_data7:metaclass.obj
 0001:00004460       ?dummy_symbol_agi_physlib@@YAXXZ 00405460 f i arts_agi:physlib.obj
 0001:00004460       ?dummy_symbol_mminput_effect@@YAXXZ 00405460 f i arts_mminput:effect.obj
 0001:00004460       ?dummy_symbol_mmdjpeg_jdpostct@@YAXXZ 00405460 f i arts_mmdjpeg:jdpostct.obj
 0001:00004460       ?dummy_symbol_mmcity_heap@@YAXXZ 00405460 f i arts_mmcity:heap.obj
 0001:00004460       ?dummy_symbol_eventq7_event@@YAXXZ 00405460 f i arts_eventq7:event.obj
 0001:00004460       ?dummy_symbol_mmwidget_textfield@@YAXXZ 00405460 f i arts_mmwidget:textfield.obj
 0001:00004460       ?dummy_symbol_data7_machname@@YAXXZ 00405460 f i arts_data7:machname.obj
 0001:00004460       ?dummy_symbol_mmaudio_soundobj@@YAXXZ 00405460 f i arts_mmaudio:soundobj.obj
 0001:00004460       ?RawDebug@Stream@@MAEXXZ   00405460 f i arts_stream:stream.obj
 0001:00004460       ?dummy_symbol_data7_pager@@YAXXZ 00405460 f i arts_data7:pager.obj
 0001:00004460       ?SetHightlight@UICompositeScroll@@QAEXXZ 00405460 f i arts_mmwidget:compscroll.obj
 0001:00004460       ?dummy_symbol_mmcar_impactaudio@@YAXXZ 00405460 f i arts_mmcar:impactaudio.obj
 0001:00004460       ?UpdateInput@BaseCamCS@@UAEXXZ 00405460 f i arts_mmcamcs:basecamcs.obj
 0001:00004460       ?Cull@asCullable@@UAEXXZ   00405460 f i arts_arts7:cullable.obj
 0001:00004460       ?dummy_symbol_mmwidget_dropdown@@YAXXZ 00405460 f i arts_mmwidget:dropdown.obj
 0001:00004460       ?PreSetup@NetArena@@UAEXXZ 00405460 f i arts_mmui:netarena.obj
 0001:00004460       ?dummy_symbol_mmai_addoncaraudio@@YAXXZ 00405460 f i arts_mmai:addoncaraudio.obj
 0001:00004460       ?dummy_symbol_mmwidget_compcr@@YAXXZ 00405460 f i arts_mmwidget:compcr.obj
 0001:00004460       ?dummy_symbol_mmdjpeg_jdmaster@@YAXXZ 00405460 f i arts_mmdjpeg:jdmaster.obj
 0001:00004460       ?dummy_symbol_vector7_vector4@@YAXXZ 00405460 f i arts_vector7:vector4.obj
 0001:00004460       ?DisableBlt@mmCompDRecord@@UAEXXZ 00405460 f i arts_mmwidget:compdrec.obj
 0001:000046c0       ?Get@Stream@@QAEHPAEH@Z    004056c0 f i midtown.obj
 0001:000046d0       ?GetBound@mmPhysEntity@@UAEPAVasBound@@XZ 004056d0 f i midtown.obj
 0001:000046d0       ??$MetaNew@VasCullable@@@@YAPAXH@Z 004056d0 f i arts_arts7:cullable.obj
 0001:000046d0       ?AttachEntity@mmInstance@@UAEPAVmmPhysEntity@@XZ 004056d0 f i arts_mmcity:inst.obj
 0001:000046d0       ?GetEntity@mmInstance@@UAEPAVmmPhysEntity@@XZ 004056d0 f i arts_mmcity:inst.obj
 0001:000046d0       ?GetICS@mmPhysEntity@@UAEPAVasInertialCS@@XZ 004056d0 f i midtown.obj
 0001:000046d0       __matherr                  004056d0 f i LIBCMT:matherr.obj
 0001:000046d0       ?CreateMtlDef@agiPipeline@@UAEPAVagiMtlDef@@XZ 004056d0 f i arts_agi:pipeline.obj
 0001:000046d0       ?CreateBitmap@agiPipeline@@UAEPAVagiBitmap@@XZ 004056d0 f i arts_agi:pipeline.obj
 0001:000046d0       ?InitBoat@mmAnimSpline@@QAEHXZ 004056d0 f i arts_mmanim:AnimSpline.obj
 0001:000046d0       ?IsTexture@agiRefreshable@@MAEHXZ 004056d0 f i arts_agi:refresh.obj
 0001:000046d0       ?Validate@agiSDLSWPipeline@@UAEHXZ 004056d0 f i arts_agisdl:sdlswpipe.obj
 0001:000046d0       ?Type@aiVehicleAmbient@@UAEHXZ 004056d0 f i arts_mmai:aiVehicleAmbient.obj
 0001:000046d0       ___scrt_exe_initialize_mta 004056d0 f i LIBCMT:utility_desktop.obj
 0001:000046d0       ?IsAnOptionMenu@UIMenu@@UAEHXZ 004056d0 f i arts_mmwidget:menu.obj
 0001:000046d0       ?GetWaypoints@mmMultiCR@@UAEPAVmmWaypoints@@XZ 004056d0 f i arts_mmgame:multicr.obj
 0001:000046d0       ?CreateLightModel@agiPipeline@@UAEPAVagiLightModel@@XZ 004056d0 f i arts_agi:pipeline.obj
 0001:000046d0       ___scrt_stub_for_initialize_mta 004056d0 f i LIBCMT:utility_desktop.obj
 0001:000046d0       ??$MetaNew@VBase@@@@YAPAXH@Z 004056d0 f i arts_data7:base.obj
 0001:000046d0       ??$MetaNew@VasCullManager@@@@YAPAXH@Z 004056d0 f i arts_arts7:cullmgr.obj
 0001:000046d0       ?Validate@agiPipeline@@UAEHXZ 004056d0 f i arts_agi:pipeline.obj
 0001:000046d0       ?ReturnDescription@uiWidget@@UAEPADXZ 004056d0 f i arts_mmwidget:widget.obj
 0001:000046d0       ?CreateLight@agiPipeline@@UAEPAVagiLight@@XZ 004056d0 f i arts_agi:pipeline.obj
 0001:000046d0       ?GetWaypoints@mmGameEdit@@UAEPAVmmWaypoints@@XZ 004056d0 f i arts_mmgame:gameedit.obj
 0001:000046d0       __get_startup_new_mode     004056d0 f i LIBCMT:new_mode.obj
 0001:000046d0       ?BeginGfx@agiSWRasterizer@@UAEHXZ 004056d0 f i arts_agisw:swrsys.obj
 0001:000046d0       ?Play@mmEffectFF@@UAEHXZ   004056d0 f i arts_mminput:effect.obj
 0001:000046d0       ?jpeg_mem_init@@YAJPAUjpeg_common_struct@@@Z 004056d0 f i arts_mmdjpeg:jmemnobs.obj
 0001:000046d0       ?GetNum3DHalBufs@AudManager@@QAEKXZ 004056d0 f i arts_mmaudio:manager.obj
 0001:000046d0       ?Stop@mmEffectFF@@UAEHXZ   004056d0 f i arts_mminput:effect.obj
 0001:000046d0       ?CreateTexLut@agiGLPipeline@@UAEPAVagiTexLut@@XZ 004056d0 f i arts_agigl:glpipe.obj
 0001:000046d0       __get_startup_thread_locale_mode 004056d0 f i LIBCMT:thread_locale.obj
 0001:000046d0       ___scrt_initialize_winrt   004056d0 f i LIBCMT:utility_desktop.obj
 0001:000046d0       ?GetImpactAudioPtr@aiVehicleSpline@@UAEPAVmmOpponentImpactAudio@@XZ 004056d0 f i arts_mmai:aiVehicleSpline.obj
 0001:000046d0       ?BeginGfx@agiSDLViewport@@UAEHXZ 004056d0 f i arts_agisdl:sdlswpipe.obj
 0001:000046d0       ?GetPagerHandle@Stream@@UAEIXZ 004056d0 f i arts_stream:stream.obj
 0001:000046d0       __get_startup_commit_mode  004056d0 f i LIBCMT:commit_mode.obj
 0001:000046d0       ?GetMapping@Stream@@UAEPAXXZ 004056d0 f i arts_stream:stream.obj
 0001:000046d0       ?PrintIs3D@agiPipeline@@UAEHXZ 004056d0 f i arts_agi:print.obj
 0001:000046d0       ?CreateMtlDef@agiSDLSWPipeline@@UAEPAVagiMtlDef@@XZ 004056d0 f i arts_agisdl:sdlswpipe.obj
 0001:000046d0       ??$MetaNew@VasPortalWeb@@@@YAPAXH@Z 004056d0 f i arts_mmcity:portal.obj
 0001:000046e0       ?GetCh@Stream@@QAEHXZ      004056e0 f i midtown.obj
 0001:00004910       ?Identity@Matrix34@@QAEXXZ 00405910 f i midtown.obj
 0001:00004940       ?Init@?$agiLib@VagiPhysParameters@@VagiPhysDef@@@@QAEXH@Z 00405940 f i midtown.obj
 0001:00005c70       ?Reset@Timer@@QAEXXZ       00406c70 f i midtown.obj
 0001:00005c80       ?Set@Vector3@@QAEXMMM@Z    00406c80 f i midtown.obj
 0001:00005cb0       ?Set@Vector4@@QAEXMMMM@Z   00406cb0 f i midtown.obj
 0001:00005ee0       ?Tell@Stream@@QAEHXZ       00406ee0 f i midtown.obj
 0001:00005ef0       ?Time@Timer@@QAEMXZ        00406ef0 f i midtown.obj
 0001:00005f30       ?Triangle@agiPolySet@@QAEXHHH@Z 00406f30 f i midtown.obj
 0001:00005f90       ?Update@PreGameUpdate@@UAEXXZ 00406f90 f i midtown.obj
 0001:000060a0       ?init@cmd_param@mem@@SAXHPBQBD@Z 004070a0 f   midtown.obj
 0001:00006370       ?lookup@cmd_param@mem@@CAPAV12@PBDI@Z 00407370 f   midtown.obj
 0001:000063d0       _SDL_main                  004073d0 f   midtown.obj
 0001:00006670       ___local_stdio_printf_options 00407670 f i midtown.obj
 0001:00006680       _snprintf                  00407680 f i midtown.obj
 0001:000066c0       _wWinMain@16               004076c0 f   midtown.obj
 0001:00006720       ?Update@mmScreenClearFlunky@@UAEXXZ 00407720 f   game.obj
 0001:00006750       ?Cull@mmScreenClearFlunky@@UAEXXZ 00407750 f   game.obj
 0001:00006890       ??0mmGameManager@@QAE@XZ   00407890 f   game.obj
 0001:00006cc0       ?randcall@@YAXXZ           00407cc0 f   game.obj
 0001:00006ce0       ??1mmGameManager@@UAE@XZ   00407ce0 f   game.obj
 0001:00006df0       ?StartReplay@mmGameManager@@QAEXXZ 00407df0 f   game.obj
 0001:00006e10       ?LoadReplay@mmGameManager@@QAEXPAD@Z 00407e10 f   game.obj
 0001:00006ee0       ?SaveReplay@mmGameManager@@QAEXPAD@Z 00407ee0 f   game.obj
 0001:00006f70       ?GetBrakes@mmGameManager@@QAEMXZ 00407f70 f   game.obj
 0001:00006fa0       ?GetSteering@mmGameManager@@QAEMXZ 00407fa0 f   game.obj
 0001:00006fd0       ?GetThrottle@mmGameManager@@QAEMXZ 00407fd0 f   game.obj
 0001:00007000       ?AddWidgets@mmGameManager@@UAEXPAVBank@@@Z 00408000 f   game.obj
 0001:00007010       ?DeclareFields@mmGameManager@@SAXXZ 00408010 f   game.obj
 0001:00007060       ?new_mmGameManager@@YAPAXH@Z 00408060 f   game.obj
 0001:00007130       ?delete_mmGameManager@@YAXPAXH@Z 00408130 f   game.obj
 0001:00007180       ?GetClass@mmGameManager@@UAEPAVMetaClass@@XZ 00408180 f   game.obj
 0001:00007220       ??0mmHUD@@QAE@XZ           00408220 f   game.obj
 0001:00007630       ?PostChatMessage@mmHUD@@QAEXPAD@Z 00408630 f   game.obj
 0001:00007690       ?ResChange@mmHUD@@UAEXHH@Z 00408690 f   game.obj
 0001:00007760       ??1mmHUD@@UAE@XZ           00408760 f   game.obj
 0001:000078f0       ?StartTimers@mmHUD@@QAEXXZ 004088f0 f   game.obj
 0001:00007910       ?StopTimers@mmHUD@@QAEXXZ  00408910 f   game.obj
 0001:00007930       ?ResetTimers@mmHUD@@QAEXXZ 00408930 f   game.obj
 0001:00007960       ?Init@mmHUD@@QAEXPADPAVmmPlayer@@@Z 00408960 f   game.obj
 0001:00007c40       ?Enable@mmHUD@@QAEXXZ      00408c40 f   game.obj
 0001:00007c80       ?Disable@mmHUD@@QAEXH@Z    00408c80 f   game.obj
 0001:00007cd0       ?ToggleExternalView@mmHUD@@QAEXXZ 00408cd0 f   game.obj
 0001:00007d20       ?ToggleDash@mmHUD@@QAEXXZ  00408d20 f   game.obj
 0001:00007d60       ?ActivateDash@mmHUD@@QAEXXZ 00408d60 f   game.obj
 0001:00007d90       ?DeactivateDash@mmHUD@@QAEXXZ 00408d90 f   game.obj
 0001:00007dc0       ?IsDashActive@mmHUD@@QAEHXZ 00408dc0 f   game.obj
 0001:00007dd0       ?Reset@mmHUD@@UAEXXZ       00408dd0 f   game.obj
 0001:00007e70       ?Update@mmHUD@@UAEXXZ      00408e70 f   game.obj
 0001:00008240       ?Cull@mmHUD@@UAEXXZ        00409240 f   game.obj
 0001:00008310       ?SetStandings@mmHUD@@QAEXHH@Z 00409310 f   game.obj
 0001:00008350       ?SetLapTime@mmHUD@@QAEXHMH@Z 00409350 f   game.obj
 0001:00008390       ?SetWPCleared@mmHUD@@QAEXHH@Z 00409390 f   game.obj
 0001:000083b0       ?SetMessage@mmHUD@@QAEXPAULocString@@MH@Z 004093b0 f   game.obj
 0001:000083f0       ?SetMessage2@mmHUD@@QAEXPAULocString@@@Z 004093f0 f   game.obj
 0001:00008420       ?SetScore@mmHUD@@QAEXPAD@Z 00409420 f   game.obj
 0001:00008440       ?AddPlayer@mmHUD@@QAEXPADKHH@Z 00409440 f   game.obj
 0001:00008470       ?SetScore@mmHUD@@QAEXKH@Z  00409470 f   game.obj
 0001:00008490       ?RemovePlayer@mmHUD@@QAEXK@Z 00409490 f   game.obj
 0001:000084b0       ?ActivateGold@mmHUD@@QAEXXZ 004094b0 f   game.obj
 0001:000084c0       ?DeactivateGold@mmHUD@@QAEXXZ 004094c0 f   game.obj
 0001:000084d0       ?GetTime@mmHUD@@QAEXPADM@Z 004094d0 f   game.obj
 0001:000084f0       ?PlayNetAlert@mmHUD@@QAEXXZ 004094f0 f   game.obj
 0001:00008510       ?GetPosHdg@mmHUD@@QAEXAAVVector4@@@Z 00409510 f   game.obj
 0001:000085a0       ?RecordPosition@mmHUD@@QAEXPAD@Z 004095a0 f   game.obj
 0001:00008620       ?AddWidgets@mmHUD@@UAEXPAVBank@@@Z 00409620 f   game.obj
 0001:00008690       ??0mmArrow@@QAE@XZ         00409690 f   game.obj
 0001:00008810       ??1mmArrow@@UAE@XZ         00409810 f   game.obj
 0001:00008880       ?Init@mmArrow@@QAEXPAVMatrix34@@@Z 00409880 f   game.obj
 0001:00008890       ?Reset@mmArrow@@UAEXXZ     00409890 f   game.obj
 0001:000088a0       ?SetInterest@mmArrow@@QAEXPAVVector3@@@Z 004098a0 f   game.obj
 0001:000088b0       ?ReColorArrow@mmArrow@@AAEXH@Z 004098b0 f   game.obj
 0001:00008920       ?Update@mmArrow@@UAEXXZ    00409920 f   game.obj
 0001:00008b20       ?DeclareFields@mmHUD@@SAXXZ 00409b20 f   game.obj
 0001:00008b70       ?new_mmHUD@@YAPAXH@Z       00409b70 f   game.obj
 0001:00008c40       ?delete_mmHUD@@YAXPAXH@Z   00409c40 f   game.obj
 0001:00008c90       ?GetClass@mmHUD@@UAEPAVMetaClass@@XZ 00409c90 f   game.obj
 0001:00008ca0       ??1mmExternalView@@UAE@XZ  00409ca0 f   game.obj
 0001:00008cf0       ??1mmCDPlayer@@UAE@XZ      00409cf0 f   game.obj
 0001:00008de0       ??0mmInterface@@QAE@XZ     00409de0 f   game.obj
 0001:00009db0       ?InitPlayerInfo@mmInterface@@QAEXXZ 0040adb0 f   game.obj
 0001:0000a120       ?MessageCallback@mmInterface@@QAEXPAX0@Z 0040b120 f   game.obj
 0001:0000a5f0       ?MessageCallback2@mmInterface@@QAEXPAX0@Z 0040b5f0 f   game.obj
 0001:0000a810       ?Reset@mmInterface@@UAEXXZ 0040b810 f   game.obj
 0001:0000a820       ?ShowMain@mmInterface@@QAEXH@Z 0040b820 f   game.obj
 0001:0000a940       ?ShowLockedVehicleMessage@mmInterface@@QAEXXZ 0040b940 f   game.obj
 0001:0000a960       ?BeDone@mmInterface@@QAEXXZ 0040b960 f   game.obj
 0001:0000aa50       ?Update@mmInterface@@UAEXXZ 0040ba50 f   game.obj
 0001:0000be80       ?IsModemDialin@@YA_NXZ     0040ce80 f   game.obj
 0001:0000bf00       ?ZoneWatcher@@YGKPAX@Z     0040cf00 f   game.obj
 0001:0000c0b0       ?NetJoinCB@mmInterface@@AAEXXZ 0040d0b0 f   game.obj
 0001:0000c110       ?NetNameCB@mmInterface@@AAEXXZ 0040d110 f   game.obj
 0001:0000c140       ?JoinGame@mmInterface@@AAEXXZ 0040d140 f   game.obj
 0001:0000c1c0       ?JoinLAN@mmInterface@@AAEXXZ 0040d1c0 f   game.obj
 0001:0000c220       ?JoinSerial@mmInterface@@AAEHXZ 0040d220 f   game.obj
 0001:0000c2b0       ?JoinModem@mmInterface@@AAEHXZ 0040d2b0 f   game.obj
 0001:0000c3a0       ?UpdateLobby@mmInterface@@QAEXXZ 0040d3a0 f   game.obj
 0001:0000c980       ?Switch@mmInterface@@QAEXHH@Z 0040d980 f   game.obj
 0001:0000cd20       ?LobbySwitch@mmInterface@@QAEXHH@Z 0040dd20 f   game.obj
 0001:0000ce50       ?RefreshCRPlayers@mmInterface@@AAEXXZ 0040de50 f   game.obj
 0001:0000cef0       ?FillCRRoster@mmInterface@@AAEXXZ 0040def0 f   game.obj
 0001:0000cff0       ?GetUnlockedCar@mmInterface@@AAEXXZ 0040dff0 f   game.obj
 0001:0000d040       ?RequestProverb@mmInterface@@AAEXXZ 0040e040 f   game.obj
 0001:0000d1a0       ?PlayerRemoveCB@mmInterface@@AAEXXZ 0040e1a0 f   game.obj
 0001:0000d1d0       ?PlayerRemove@mmInterface@@AAEXPAD@Z 0040e1d0 f   game.obj
 0001:0000d360       ?PlayerCreateCB@mmInterface@@AAEXXZ 0040e360 f   game.obj
 0001:0000d3b0       ?PlayerCreate@mmInterface@@AAEHPAD@Z 0040e3b0 f   game.obj
 0001:0000d540       ?PlayerLoadCB@mmInterface@@AAEXXZ 0040e540 f   game.obj
 0001:0000d570       ?PlayerGraphicsCB@mmInterface@@AAEXXZ 0040e570 f   game.obj
 0001:0000d5e0       ?PlayerLoad@mmInterface@@AAEXPAD@Z 0040e5e0 f   game.obj
 0001:0000d690       ?PlayerSetState@mmInterface@@AAEXXZ 0040e690 f   game.obj
 0001:0000d880       ?CitySetupCB@mmInterface@@AAEXXZ 0040e880 f   game.obj
 0001:0000d940       ?GetTimeString@mmInterface@@AAEXMPAD@Z 0040e940 f   game.obj
 0001:0000d9a0       ?GetScoreString@mmInterface@@AAEXHPAD@Z 0040e9a0 f   game.obj
 0001:0000d9e0       ?GetRaceString@mmInterface@@AAEXHPAD@Z 0040e9e0 f   game.obj
 0001:0000da40       ?GetRaceName@mmInterface@@AAEPADW4mmGameMode@@H@Z 0040ea40 f   game.obj
 0001:0000dba0       ?RaceFillRecords@mmInterface@@AAEXXZ 0040eba0 f   game.obj
 0001:0000e490       ?PlayerFillStats@mmInterface@@AAEXXZ 0040f490 f   game.obj
 0001:0000e9c0       ?PlayerResolveScore@mmInterface@@AAEXXZ 0040f9c0 f   game.obj
 0001:0000eb00       ?PlayerReadState@mmInterface@@AAEXXZ 0040fb00 f   game.obj
 0001:0000eb20       ?RefreshDriverList@mmInterface@@AAEXXZ 0040fb20 f   game.obj
 0001:0000ebd0       ?InitNetwork@mmInterface@@AAEXXZ 0040fbd0 f   game.obj
 0001:0000ecc0       ?InitProtocols@mmInterface@@AAEXXZ 0040fcc0 f   game.obj
 0001:0000ece0       ?ShowSessions@mmInterface@@AAEXXZ 0040fce0 f   game.obj
 0001:0000eee0       ?ClearSessions@mmInterface@@AAEXXZ 0040fee0 f   game.obj
 0001:0000ef00       ?RefreshSessions@mmInterface@@AAEXXZ 0040ff00 f   game.obj
 0001:0000ef40       ?JoinSession@mmInterface@@AAEHH@Z 0040ff40 f   game.obj
 0001:0000f140       ?JoinPasswordSession@mmInterface@@AAEHH@Z 00410140 f   game.obj
 0001:0000f2f0       ?MultiStartGame@mmInterface@@AAEXXZ 004102f0 f   game.obj
 0001:0000f380       ?SetProtocol@mmInterface@@AAEXXZ 00410380 f   game.obj
 0001:0000f430       ?SetProtocol2@mmInterface@@AAEHXZ 00410430 f   game.obj
 0001:0000f480       ?CreatePlayer@mmInterface@@AAEHH@Z 00410480 f   game.obj
 0001:0000f6a0       ?GetHostPlayerData@mmInterface@@AAEHAAUmmPlayerInfo@@@Z 004106a0 f   game.obj
 0001:0000f700       ?GetUniquePlayerName@mmInterface@@AAEXXZ 00410700 f   game.obj
 0001:0000f7f0       ?ChangePlayerData@mmInterface@@AAEXXZ 004107f0 f   game.obj
 0001:0000f8c0       ?RefreshPlayers@mmInterface@@AAEXXZ 004108c0 f   game.obj
 0001:0000fac0       ?GetSessionData@mmInterface@@AAEXUNETSESSION_DESC@@@Z 00410ac0 f   game.obj
 0001:0000fb80       ?CreateSession@mmInterface@@AAEHXZ 00410b80 f   game.obj
 0001:0000fd00       ?SetSessionData@mmInterface@@AAEXPAUNETSESSION_DESC@@@Z 00410d00 f   game.obj
 0001:0000fdc0       ?SetCRStateData@mmInterface@@AAEXXZ 00410dc0 f   game.obj
 0001:0000fe30       ?LobbyCreate@mmInterface@@AAEXXZ 00410e30 f   game.obj
 0001:00010190       ?SendChatMessage@mmInterface@@AAEXPAX@Z 00411190 f   game.obj
 0001:00010230       ?SendMsg@mmInterface@@AAEXH@Z 00411230 f   game.obj
 0001:00010270       ?SendReadyStatus@mmInterface@@AAEXXZ 00411270 f   game.obj
 0001:000102b0       ?SendReadyReq@mmInterface@@AAEXXZ 004112b0 f   game.obj
 0001:000102e0       ?SetupArchiveTest@mmInterface@@QAEXAAH@Z 004112e0 f   game.obj
 0001:00010560       ?DeclareFields@mmInterface@@SAXXZ 00411560 f   game.obj
 0001:000105b0       ?new_mmInterface@@YAPAXH@Z 004115b0 f   game.obj
 0001:00010680       ?delete_mmInterface@@YAXPAXH@Z 00411680 f   game.obj
 0001:000106d0       ?GetClass@mmInterface@@UAEPAVMetaClass@@XZ 004116d0 f   game.obj
 0001:00010700       ?InitOtherPlayers@mmGame@@UAEXXZ 00411700 f   game.obj
 0001:00010800       ?CollideAIOpponents@mmGame@@QAEXXZ 00411800 f   game.obj
 0001:00010900       ?InitGameStrings@mmGame@@UAEXXZ 00411900 f   game.obj
 0001:00010bf0       ?RespawnXYZ@mmGame@@IAEXAAVVector3@@AAM@Z 00411bf0 f   game.obj
 0001:00010cf0       ?Reset@mmGame@@UAEXXZ      00411cf0 f   game.obj
 0001:00010d50       ?Update@mmGame@@UAEXXZ     00411d50 f   game.obj
 0001:00010f40       ?DropThruCityHandler@mmGame@@UAEXXZ 00411f40 f   game.obj
 0001:00010f50       ?HitWaterHandler@mmGame@@UAEXXZ 00411f50 f   game.obj
 0001:00010f60       ?UpdateSteeringBrakes@mmGame@@QAEXXZ 00411f60 f   game.obj
 0001:00011040       ?SetIconsState@mmGame@@QAEXXZ 00412040 f   game.obj
 0001:00011060       ?PlayerSetState@mmGame@@QAEXXZ 00412060 f   game.obj
 0001:00011160       ?CalculateRaceScore@mmGame@@IAEHHH@Z 00412160 f   game.obj
 0001:000111d0       ?GetCDTrack@mmGame@@QAEHF@Z 004121d0 f   game.obj
 0001:000116a0       ?AddWidgets@mmGame@@UAEXPAVBank@@@Z 004126a0 f   game.obj
 0001:00011750       ?Update@foobar@@EAEXXZ     00412750 f   game.obj
 0001:00011780       ?UpdatePaused@foobar@@EAEXXZ 00412780 f   game.obj
 0001:00011790       ?DeclareFields@mmGame@@SAXXZ 00412790 f   game.obj
 0001:000117e0       ?delete_mmGame@@YAXPAXH@Z  004127e0 f   game.obj
 0001:00011830       ?GetClass@mmGame@@UAEPAVMetaClass@@XZ 00412830 f   game.obj
 0001:00011840       ??0mmGameEdit@@QAE@XZ      00412840 f   game.obj
 0001:00011910       ??1mmGameEdit@@UAE@XZ      00412910 f   game.obj
 0001:000119c0       ?Init@mmGameEdit@@QAEHXZ   004129c0 f   game.obj
 0001:00011a70       ?InitMyPlayer@mmGameEdit@@UAEXXZ 00412a70 f   game.obj
 0001:00011ae0       ?InitHUD@mmGameEdit@@UAEXXZ 00412ae0 f   game.obj
 0001:00011b20       ?InitGameObjects@mmGameEdit@@UAEXXZ 00412b20 f   game.obj
 0001:00011c10       ?RegisterMapObjects@mmGameEdit@@QAEXXZ 00412c10 f   game.obj
 0001:00011c60       ?UpdateDebugKeyInput@mmGameEdit@@UAEXH@Z 00412c60 f   game.obj
 0001:00011e50       ?Reset@mmGameEdit@@UAEXXZ  00412e50 f   game.obj
 0001:00011ee0       ?Update@mmGameEdit@@UAEXXZ 00412ee0 f   game.obj
 0001:00011f00       ?UpdateGame@mmGameEdit@@UAEXXZ 00412f00 f   game.obj
 0001:00011f40       ?AddWidgets@mmGameEdit@@UAEXPAVBank@@@Z 00412f40 f   game.obj
 0001:00012160       ?SetWPCallback@mmGameEdit@@QAEXXZ 00413160 f   game.obj
 0001:00012200       ?ChangeWPCallback@mmGameEdit@@QAEXXZ 00413200 f   game.obj
 0001:00012260       ?DeclareFields@mmGameEdit@@SAXXZ 00413260 f   game.obj
 0001:000122b0       ?new_mmGameEdit@@YAPAXH@Z  004132b0 f   game.obj
 0001:00012390       ?delete_mmGameEdit@@YAXPAXH@Z 00413390 f   game.obj
 0001:000123e0       ?GetClass@mmGameEdit@@UAEPAVMetaClass@@XZ 004133e0 f   game.obj
 0001:00012450       ??0mmSingleBlitz@@QAE@XZ   00413450 f   game.obj
 0001:000124f0       ??1mmSingleBlitz@@UAE@XZ   004134f0 f   game.obj
 0001:000125c0       ?Init@mmSingleBlitz@@QAEHXZ 004135c0 f   game.obj
 0001:00012740       ?InitMyPlayer@mmSingleBlitz@@UAEXXZ 00413740 f   game.obj
 0001:000127b0       ?InitHUD@mmSingleBlitz@@UAEXXZ 004137b0 f   game.obj
 0001:00012830       ?InitGameObjects@mmSingleBlitz@@UAEXXZ 00413830 f   game.obj
 0001:00012aa0       ?InitOtherPlayers@mmSingleBlitz@@UAEXXZ 00413aa0 f   game.obj
 0001:00012ab0       ?Reset@mmSingleBlitz@@UAEXXZ 00413ab0 f   game.obj
 0001:00012bc0       ?EnableRacers@mmSingleBlitz@@AAEXXZ 00413bc0 f   game.obj
 0001:00012c50       ?DisableRacers@mmSingleBlitz@@AAEXXZ 00413c50 f   game.obj
 0001:00012cc0       ?HitWaterHandler@mmSingleBlitz@@UAEXXZ 00413cc0 f   game.obj
 0001:00012d60       ?Update@mmSingleBlitz@@UAEXXZ 00413d60 f   game.obj
 0001:00012d80       ?UpdateGameInput@mmSingleBlitz@@UAEXH@Z 00413d80 f   game.obj
 0001:00012dc0       ?UpdateGame@mmSingleBlitz@@UAEXXZ 00413dc0 f   game.obj
 0001:00013620       ?RegisterFinish@mmSingleBlitz@@AAEHXZ 00414620 f   game.obj
 0001:00013950       ?FinishMessage@mmSingleBlitz@@AAEXH@Z 00414950 f   game.obj
 0001:00013980       ?ProgressCheck@mmSingleBlitz@@AAEHHH@Z 00414980 f   game.obj
 0001:00013a50       ?NextRace@mmSingleBlitz@@UAEXXZ 00414a50 f   game.obj
 0001:00013bc0       ?PlayTimerWarning@mmSingleBlitz@@QAEXM@Z 00414bc0 f   game.obj
 0001:00013ca0       ?DeclareFields@mmSingleBlitz@@SAXXZ 00414ca0 f   game.obj
 0001:00013cf0       ?new_mmSingleBlitz@@YAPAXH@Z 00414cf0 f   game.obj
 0001:00013dc0       ?delete_mmSingleBlitz@@YAXPAXH@Z 00414dc0 f   game.obj
 0001:00013e10       ?GetClass@mmSingleBlitz@@UAEPAVMetaClass@@XZ 00414e10 f   game.obj
 0001:00013e50       ??0mmPlayerRecord@@QAE@ABV0@@Z 00414e50 f   game.obj
 0001:00013f60       ?GetWaypoints@mmSingleBlitz@@UAEPAVmmWaypoints@@XZ 00414f60 f   game.obj
 0001:00013f70       ??1mmSingleCircuit@@UAE@XZ 00414f70 f   game.obj
 0001:00014030       ?InitMyPlayer@mmSingleCircuit@@UAEXXZ 00415030 f   game.obj
 0001:000140a0       ?InitHUD@mmSingleCircuit@@UAEXXZ 004150a0 f   game.obj
 0001:000140f0       ?InitGameObjects@mmSingleCircuit@@UAEXXZ 004150f0 f   game.obj
 0001:00014360       ?InitOtherPlayers@mmSingleCircuit@@UAEXXZ 00415360 f   game.obj
 0001:00014370       ?HitWaterHandler@mmSingleCircuit@@UAEXXZ 00415370 f   game.obj
 0001:00014420       ?EnableRacers@mmSingleCircuit@@AAEXXZ 00415420 f   game.obj
 0001:000144b0       ?DisableRacers@mmSingleCircuit@@AAEXXZ 004154b0 f   game.obj
 0001:00014520       ?Update@mmSingleCircuit@@UAEXXZ 00415520 f   game.obj
 0001:00014540       ?UpdateScore@mmSingleCircuit@@QAEXXZ 00415540 f   game.obj
 0001:000148d0       ?UpdateGame@mmSingleCircuit@@UAEXXZ 004158d0 f   game.obj
 0001:00015060       ?FinishMessage@mmSingleCircuit@@AAEXHH@Z 00416060 f   game.obj
 0001:000151f0       ?RegisterLap@mmSingleCircuit@@AAEHXZ 004161f0 f   game.obj
 0001:00015250       ?RegisterFinish@mmSingleCircuit@@AAEHXZ 00416250 f   game.obj
 0001:00015670       ?ProgressCheck@mmSingleCircuit@@AAEHHH@Z 00416670 f   game.obj
 0001:000156a0       ?NextRace@mmSingleCircuit@@UAEXXZ 004166a0 f   game.obj
 0001:00015820       ?AddWidgets@mmSingleCircuit@@UAEXPAVBank@@@Z 00416820 f   game.obj
 0001:000159c0       ?DeclareFields@mmSingleCircuit@@SAXXZ 004169c0 f   game.obj
 0001:00015a10       ?new_mmSingleCircuit@@YAPAXH@Z 00416a10 f   game.obj
 0001:00015ae0       ?delete_mmSingleCircuit@@YAXPAXH@Z 00416ae0 f   game.obj
 0001:00015b30       ?GetClass@mmSingleCircuit@@UAEPAVMetaClass@@XZ 00416b30 f   game.obj
 0001:00015ba0       ?GetWaypoints@mmSingleCircuit@@UAEPAVmmWaypoints@@XZ 00416ba0 f   game.obj
 0001:00015bb0       ??0mmGameSingle@@QAE@XZ    00416bb0 f   game.obj
 0001:00015c40       ??1mmGameSingle@@UAE@XZ    00416c40 f   game.obj
 0001:00015d00       ?InitMyPlayer@mmGameSingle@@UAEXXZ 00416d00 f   game.obj
 0001:00015d70       ?InitHUD@mmGameSingle@@UAEXXZ 00416d70 f   game.obj
 0001:00015dd0       ?InitGameObjects@mmGameSingle@@UAEXXZ 00416dd0 f   game.obj
 0001:000160d0       ?InitOtherPlayers@mmGameSingle@@UAEXXZ 004170d0 f   game.obj
 0001:00016130       ?EnableRacers@mmGameSingle@@AAEXXZ 00417130 f   game.obj
 0001:000161c0       ?DisableRacers@mmGameSingle@@AAEXXZ 004171c0 f   game.obj
 0001:00016230       ?HitWaterHandler@mmGameSingle@@UAEXXZ 00417230 f   game.obj
 0001:000162d0       ?Update@mmGameSingle@@UAEXXZ 004172d0 f   game.obj
 0001:000162f0       ?UpdateGameInput@mmGameSingle@@UAEXH@Z 004172f0 f   game.obj
 0001:00016330       ?UpdateGame@mmGameSingle@@UAEXXZ 00417330 f   game.obj
 0001:00016b80       ?UpdateScore@mmGameSingle@@QAEXXZ 00417b80 f   game.obj
 0001:00016f00       ?FinishMessage@mmGameSingle@@AAEXHH@Z 00417f00 f   game.obj
 0001:00017080       ?RegisterFinish@mmGameSingle@@AAEHXZ 00418080 f   game.obj
 0001:00017480       ?ProgressCheck@mmGameSingle@@AAEHHH@Z 00418480 f   game.obj
 0001:000174d0       ?NextRace@mmGameSingle@@UAEXXZ 004184d0 f   game.obj
 0001:00017670       ?AddWidgets@mmGameSingle@@UAEXPAVBank@@@Z 00418670 f   game.obj
 0001:00017820       ?DeclareFields@mmGameSingle@@SAXXZ 00418820 f   game.obj
 0001:00017870       ?new_mmGameSingle@@YAPAXH@Z 00418870 f   game.obj
 0001:00017940       ?delete_mmGameSingle@@YAXPAXH@Z 00418940 f   game.obj
 0001:00017990       ?GetClass@mmGameSingle@@UAEPAVMetaClass@@XZ 00418990 f   game.obj
 0001:00017a00       ?GetWaypoints@mmGameSingle@@UAEPAVmmWaypoints@@XZ 00418a00 f   game.obj
 0001:00017a10       ??0mmMultiBlitz@@QAE@XZ    00418a10 f   game.obj
 0001:00017a80       ??1mmMultiBlitz@@UAE@XZ    00418a80 f   game.obj
 0001:00017b40       ?Init@mmMultiBlitz@@QAEHXZ 00418b40 f   game.obj
 0001:00017c70       ?InitMyPlayer@mmMultiBlitz@@UAEXXZ 00418c70 f   game.obj
 0001:00017ce0       ?InitHUD@mmMultiBlitz@@UAEXXZ 00418ce0 f   game.obj
 0001:00017d60       ?InitGameObjects@mmMultiBlitz@@UAEXXZ 00418d60 f   game.obj
 0001:00017ff0       ?InitNetworkPlayers@mmMultiBlitz@@UAEXXZ 00418ff0 f   game.obj
 0001:00018350       ?Reset@mmMultiBlitz@@UAEXXZ 00419350 f   game.obj
 0001:000183f0       ?UpdateGameInput@mmMultiBlitz@@UAEXH@Z 004193f0 f   game.obj
 0001:00018430       ?UpdateGame@mmMultiBlitz@@UAEXXZ 00419430 f   game.obj
 0001:00018b50       ?SystemMessage@mmMultiBlitz@@UAEXPAUNETSYS_MSG@@@Z 00419b50 f   game.obj
 0001:00018ce0       ?GameMessage@mmMultiBlitz@@UAEXPAUNETGAME_MSG@@@Z 00419ce0 f   game.obj
 0001:00018f40       ?SendPlayerFinish@mmMultiBlitz@@AAEXXZ 00419f40 f   game.obj
 0001:00018f90       ?PlayTimerWarning@mmMultiBlitz@@QAEXM@Z 00419f90 f   game.obj
 0001:00019070       ?DeclareFields@mmMultiBlitz@@SAXXZ 0041a070 f   game.obj
 0001:000190c0       ?new_mmMultiBlitz@@YAPAXH@Z 0041a0c0 f   game.obj
 0001:000191a0       ?delete_mmMultiBlitz@@YAXPAXH@Z 0041a1a0 f   game.obj
 0001:000191f0       ?GetClass@mmMultiBlitz@@UAEPAVMetaClass@@XZ 0041a1f0 f   game.obj
 0001:00019260       ?GetWaypoints@mmMultiBlitz@@UAEPAVmmWaypoints@@XZ 0041a260 f   game.obj
 0001:00019270       ??0mmMultiCircuit@@QAE@XZ  0041a270 f   game.obj
 0001:000192e0       ??1mmMultiCircuit@@UAE@XZ  0041a2e0 f   game.obj
 0001:000193a0       ?Init@mmMultiCircuit@@QAEHXZ 0041a3a0 f   game.obj
 0001:000194c0       ?InitMyPlayer@mmMultiCircuit@@UAEXXZ 0041a4c0 f   game.obj
 0001:00019530       ?InitHUD@mmMultiCircuit@@UAEXXZ 0041a530 f   game.obj
 0001:00019580       ?InitGameObjects@mmMultiCircuit@@UAEXXZ 0041a580 f   game.obj
 0001:000197f0       ?InitNetworkPlayers@mmMultiCircuit@@UAEXXZ 0041a7f0 f   game.obj
 0001:00019b50       ?Reset@mmMultiCircuit@@UAEXXZ 0041ab50 f   game.obj
 0001:00019bf0       ?UpdateGameInput@mmMultiCircuit@@UAEXH@Z 0041abf0 f   game.obj
 0001:00019c30       ?UpdateGame@mmMultiCircuit@@UAEXXZ 0041ac30 f   game.obj
 0001:0001a1e0       ?SystemMessage@mmMultiCircuit@@UAEXPAUNETSYS_MSG@@@Z 0041b1e0 f   game.obj
 0001:0001a370       ?GameMessage@mmMultiCircuit@@UAEXPAUNETGAME_MSG@@@Z 0041b370 f   game.obj
 0001:0001a5d0       ?SendPlayerFinish@mmMultiCircuit@@AAEXXZ 0041b5d0 f   game.obj
 0001:0001a610       ?DeclareFields@mmMultiCircuit@@SAXXZ 0041b610 f   game.obj
 0001:0001a660       ?new_mmMultiCircuit@@YAPAXH@Z 0041b660 f   game.obj
 0001:0001a740       ?delete_mmMultiCircuit@@YAXPAXH@Z 0041b740 f   game.obj
 0001:0001a790       ?GetClass@mmMultiCircuit@@UAEPAVMetaClass@@XZ 0041b790 f   game.obj
 0001:0001a800       ?GetWaypoints@mmMultiCircuit@@UAEPAVmmWaypoints@@XZ 0041b800 f   game.obj
 0001:0001a810       ??0mmMultiCR@@QAE@XZ       0041b810 f   game.obj
 0001:0001a8d0       ??1mmMultiCR@@UAE@XZ       0041b8d0 f   game.obj
 0001:0001a9a0       ?Init@mmMultiCR@@QAEHXZ    0041b9a0 f   game.obj
 0001:0001ab00       ?InitMyPlayer@mmMultiCR@@UAEXXZ 0041bb00 f   game.obj
 0001:0001ac00       ?InitHUD@mmMultiCR@@UAEXXZ 0041bc00 f   game.obj
 0001:0001ad40       ?InitGameObjects@mmMultiCR@@UAEXXZ 0041bd40 f   game.obj
 0001:0001b1a0       ?InitNetworkPlayers@mmMultiCR@@UAEXXZ 0041c1a0 f   game.obj
 0001:0001b520       ?Reset@mmMultiCR@@UAEXXZ   0041c520 f   game.obj
 0001:0001b700       ?LoadSets@mmMultiCR@@QAEHPAD@Z 0041c700 f   game.obj
 0001:0001b7a0       ?LoadCSV@mmMultiCR@@QAEHPAD@Z 0041c7a0 f   game.obj
 0001:0001b8f0       ?ImpactCallback@mmMultiCR@@QAEXXZ 0041c8f0 f   game.obj
 0001:0001b9e0       ?FondleCarMass@mmMultiCR@@QAEXPAVmmCar@@M@Z 0041c9e0 f   game.obj
 0001:0001ba00       ?ChangePlayerData@mmMultiCR@@QAEXXZ 0041ca00 f   game.obj
 0001:0001ba50       ?GetRandomIndex@mmMultiCR@@AAEHXZ 0041ca50 f   game.obj
 0001:0001ba70       ?ResetPositions@mmMultiCR@@QAEXH@Z 0041ca70 f   game.obj
 0001:0001bb90       ?UpdateGameInput@mmMultiCR@@UAEXH@Z 0041cb90 f   game.obj
 0001:0001bbd0       ?HitWaterHandler@mmMultiCR@@UAEXXZ 0041cbd0 f   game.obj
 0001:0001bc80       ?DropThruCityHandler@mmMultiCR@@UAEXXZ 0041cc80 f   game.obj
 0001:0001bd30       ?FindGround@mmMultiCR@@AAEXVVector3@@AAV2@@Z 0041cd30 f   game.obj
 0001:0001bdf0       ?DropGold@mmMultiCR@@AAEXVVector3@@H@Z 0041cdf0 f   game.obj
 0001:0001bfe0       ?UpdateGold@mmMultiCR@@AAEXXZ 0041cfe0 f   game.obj
 0001:0001c210       ?UpdateHideout@mmMultiCR@@AAEXXZ 0041d210 f   game.obj
 0001:0001c360       ?UpdateBank@mmMultiCR@@AAEXXZ 0041d360 f   game.obj
 0001:0001c4b0       ?UpdateLimit@mmMultiCR@@AAEXXZ 0041d4b0 f   game.obj
 0001:0001c650       ?FillResults@mmMultiCR@@AAEXXZ 0041d650 f   game.obj
 0001:0001c850       ?SystemMessage@mmMultiCR@@UAEXPAUNETSYS_MSG@@@Z 0041d850 f   game.obj
 0001:0001caa0       ?GameMessage@mmMultiCR@@UAEXPAUNETGAME_MSG@@@Z 0041daa0 f   game.obj
 0001:0001d380       ?UpdateTimeWarning@mmMultiCR@@AAEXXZ 0041e380 f   game.obj
 0001:0001d4f0       ?DisplayTimeWarning@mmMultiCR@@AAEXH@Z 0041e4f0 f   game.obj
 0001:0001d580       ?SendGameState@mmMultiCR@@AAEXK@Z 0041e580 f   game.obj
 0001:0001d620       ?SendGoldDrop@mmMultiCR@@AAEXVVector3@@@Z 0041e620 f   game.obj
 0001:0001d670       ?SendGoldAck@mmMultiCR@@AAEXK@Z 0041e670 f   game.obj
 0001:0001d6b0       ?SendGoldDeliver@mmMultiCR@@AAEXXZ 0041e6b0 f   game.obj
 0001:0001d700       ?SendLimitReached@mmMultiCR@@AAEXH@Z 0041e700 f   game.obj
 0001:0001d740       ?SendTimeWarning@mmMultiCR@@AAEXH@Z 0041e740 f   game.obj
 0001:0001d780       ?UpdateHUD@mmMultiCR@@AAEXXZ 0041e780 f   game.obj
 0001:0001d8a0       ?Score@mmMultiCR@@AAEXH@Z  0041e8a0 f   game.obj
 0001:0001d8d0       ?DeclareFields@mmMultiCR@@SAXXZ 0041e8d0 f   game.obj
 0001:0001d920       ?new_mmMultiCR@@YAPAXH@Z   0041e920 f   game.obj
 0001:0001da00       ?delete_mmMultiCR@@YAXPAXH@Z 0041ea00 f   game.obj
 0001:0001da50       ?GetClass@mmMultiCR@@UAEPAVMetaClass@@XZ 0041ea50 f   game.obj
 0001:0001dac0       ??0mmMultiRace@@QAE@XZ     0041eac0 f   game.obj
 0001:0001db30       ??1mmMultiRace@@UAE@XZ     0041eb30 f   game.obj
 0001:0001dbf0       ?Init@mmMultiRace@@QAEHXZ  0041ebf0 f   game.obj
 0001:0001dd30       ?InitMyPlayer@mmMultiRace@@UAEXXZ 0041ed30 f   game.obj
 0001:0001dda0       ?InitHUD@mmMultiRace@@UAEXXZ 0041eda0 f   game.obj
 0001:0001de00       ?InitGameObjects@mmMultiRace@@UAEXXZ 0041ee00 f   game.obj
 0001:0001e0d0       ?InitNetworkPlayers@mmMultiRace@@UAEXXZ 0041f0d0 f   game.obj
 0001:0001e500       ?Reset@mmMultiRace@@UAEXXZ 0041f500 f   game.obj
 0001:0001e600       ?ChangePlayerData@mmMultiRace@@QAEXXZ 0041f600 f   game.obj
 0001:0001e650       ?UpdateGameInput@mmMultiRace@@UAEXH@Z 0041f650 f   game.obj
 0001:0001e690       ?UpdateGame@mmMultiRace@@UAEXXZ 0041f690 f   game.obj
 0001:0001ee90       ?SystemMessage@mmMultiRace@@UAEXPAUNETSYS_MSG@@@Z 0041fe90 f   game.obj
 0001:0001f060       ?GameMessage@mmMultiRace@@UAEXPAUNETGAME_MSG@@@Z 00420060 f   game.obj
 0001:0001f3c0       ?SendPlayerFinish@mmMultiRace@@AAEXXZ 004203c0 f   game.obj
 0001:0001f400       ?DeclareFields@mmMultiRace@@SAXXZ 00420400 f   game.obj
 0001:0001f450       ?new_mmMultiRace@@YAPAXH@Z 00420450 f   game.obj
 0001:0001f530       ?delete_mmMultiRace@@YAXPAXH@Z 00420530 f   game.obj
 0001:0001f580       ?GetClass@mmMultiRace@@UAEPAVMetaClass@@XZ 00420580 f   game.obj
 0001:0001f5f0       ?GetWaypoints@mmMultiRace@@UAEPAVmmWaypoints@@XZ 004205f0 f   game.obj
 0001:0001f600       ??0mmDashView@@QAE@XZ      00420600 f   game.obj
 0001:0001f7a0       ??1mmDashView@@UAE@XZ      004207a0 f   game.obj
 0001:0001f8b0       ?Reset@mmDashView@@UAEXXZ  004208b0 f   game.obj
 0001:0001f8c0       ?BeforeSave@mmDashView@@UAEXXZ 004208c0 f   game.obj
 0001:0001f960       ?AfterLoad@mmDashView@@UAEXXZ 00420960 f   game.obj
 0001:0001fa00       ?ActivateUntilTransitionIsOver@mmDashView@@QAEXXZ 00420a00 f   game.obj
 0001:0001fa20       ?Activate@mmDashView@@QAEXXZ 00420a20 f   game.obj
 0001:0001fa40       ?Deactivate@mmDashView@@QAEXXZ 00420a40 f   game.obj
 0001:0001fa60       ?Update@mmDashView@@UAEXXZ 00420a60 f   game.obj
 0001:0001fb90       ??0mmExternalView@@QAE@XZ  00420b90 f   game.obj
 0001:0001fc10       ?Init@mmExternalView@@QAEXPAVmmPlayer@@@Z 00420c10 f   game.obj
 0001:0001fc50       ?ResChange@mmExternalView@@UAEXHH@Z 00420c50 f   game.obj
 0001:0001fda0       ?Update@mmExternalView@@UAEXXZ 00420da0 f   game.obj
 0001:0001fdc0       ?Cull@mmExternalView@@UAEXXZ 00420dc0 f   game.obj
 0001:0001ff60       ?AddWidgets@mmExternalView@@UAEXPAVBank@@@Z 00420f60 f   game.obj
 0001:00020250       ?AddWidgets@mmDashView@@UAEXPAVBank@@@Z 00421250 f   game.obj
 0001:00020650       ?DeclareFields@mmDashView@@SAXXZ 00421650 f   game.obj
 0001:00020820       ?new_mmDashView@@YAPAXH@Z  00421820 f   game.obj
 0001:000208f0       ?delete_mmDashView@@YAXPAXH@Z 004218f0 f   game.obj
 0001:00020940       ?GetClass@mmDashView@@UAEPAVMetaClass@@XZ 00421940 f   game.obj
 0001:00020950       ??1RadialGauge@@UAE@XZ     00421950 f   game.obj
 0001:00020a30       ??0mmCDPlayer@@QAE@XZ      00421a30 f   game.obj
 0001:00020ac0       ?Init@mmCDPlayer@@QAEXPAVmmHUD@@@Z 00421ac0 f   game.obj
 0001:00020bd0       ?Reset@mmCDPlayer@@UAEXXZ  00421bd0 f   game.obj
 0001:00020be0       ?Update@mmCDPlayer@@UAEXXZ 00421be0 f   game.obj
 0001:00020c50       ?Cull@mmCDPlayer@@UAEXXZ   00421c50 f   game.obj
 0001:00020e40       ?PlayStop@mmCDPlayer@@QAEXXZ 00421e40 f   game.obj
 0001:00020e90       ?NextTrack@mmCDPlayer@@QAEXXZ 00421e90 f   game.obj
 0001:00020f00       ?AddWidgets@mmCDPlayer@@UAEXPAVBank@@@Z 00421f00 f   game.obj
 0001:00021190       ?PrevTrack@mmCDPlayer@@QAEXXZ 00422190 f   game.obj
 0001:00021200       ?Toggle@mmCDPlayer@@QAEXXZ 00422200 f   game.obj
 0001:00021280       ??0RadialGauge@@QAE@XZ     00422280 f   game.obj
 0001:000212f0       ?Init@RadialGauge@@QAEXPAD0PAM1M@Z 004222f0 f   game.obj
 0001:00021350       ?Update@RadialGauge@@UAEXXZ 00422350 f   game.obj
 0001:00021470       ??0mmLinearGauge@@QAE@XZ   00422470 f   game.obj
 0001:00021480       ??1mmLinearGauge@@QAE@XZ   00422480 f   game.obj
 0001:00021490       ?Init@mmLinearGauge@@QAEXPADPAM11HPAVmmExternalView@@@Z 00422490 f   game.obj
 0001:000215a0       ?Draw@mmLinearGauge@@QAEXXZ 004225a0 f   game.obj
 0001:00021630       ?ResChange@mmRadGauge@@QAEXXZ 00422630 f   game.obj
 0001:00021680       ?Init@mmGearIndicator@@QAEXPAVmmExternalView@@PAVmmPlayer@@@Z 00422680 f   game.obj
 0001:000217b0       ?Draw@mmGearIndicator@@QAEXXZ 004227b0 f   game.obj
 0001:00021830       ?Init@mmSpeedIndicator@@QAEXPAVmmExternalView@@PAVmmCarSim@@@Z 00422830 f   game.obj
 0001:000218c0       ?Draw@mmSpeedIndicator@@QAEXXZ 004228c0 f   game.obj
 0001:00021a10       ??0mmWPHUD@@QAE@XZ         00422a10 f   game.obj
 0001:00021b20       ??1mmWPHUD@@UAE@XZ         00422b20 f   game.obj
 0001:00021bd0       ?SetWPCleared@mmWPHUD@@QAEXXZ 00422bd0 f   game.obj
 0001:00021c20       ?SetStandings@mmWPHUD@@QAEXHH@Z 00422c20 f   game.obj
 0001:00021c60       ?Init@mmWPHUD@@QAEXHPAH0H@Z 00422c60 f   game.obj
 0001:00021f50       ?Reset@mmWPHUD@@UAEXXZ     00422f50 f   game.obj
 0001:00021fa0       ?Update@mmWPHUD@@UAEXXZ    00422fa0 f   game.obj
 0001:00021fe0       ??0mmCircuitHUD@@QAE@XZ    00422fe0 f   game.obj
 0001:000220f0       ??1mmCircuitHUD@@UAE@XZ    004230f0 f   game.obj
 0001:000221f0       ?Init@mmCircuitHUD@@QAEXXZ 004231f0 f   game.obj
 0001:000227a0       ?Update@mmCircuitHUD@@UAEXXZ 004237a0 f   game.obj
 0001:000227b0       ?SetStandings@mmCircuitHUD@@QAEXHH@Z 004237b0 f   game.obj
 0001:00022800       ?SetLapTime@mmCircuitHUD@@QAEXHMPADH@Z 00423800 f   game.obj
 0001:000228a0       ?SetWPCleared@mmCircuitHUD@@QAEXHH@Z 004238a0 f   game.obj
 0001:000228e0       ?Reset@mmCircuitHUD@@UAEXXZ 004238e0 f   game.obj
 0001:00022990       ??0mmCRHUD@@QAE@XZ         00423990 f   game.obj
 0001:00022b30       ??1mmCRHUD@@UAE@XZ         00423b30 f   game.obj
 0001:00022c60       ?Init@mmCRHUD@@QAEXPAVasLinearCS@@PADW4mmCRGameClass@@@Z 00423c60 f   game.obj
 0001:00023470       ?AddPlayer@mmCRHUD@@QAEXPADKHI@Z 00424470 f   game.obj
 0001:000235b0       ?UnPackColor@mmCRHUD@@QAEXIAAVVector4@@@Z 004245b0 f   game.obj
 0001:00023630       ?SetScore@mmCRHUD@@QAEXPAD@Z 00424630 f   game.obj
 0001:00023650       ?SetName@mmCRHUD@@QAEXPADH@Z 00424650 f   game.obj
 0001:000236d0       ?SetScore@mmCRHUD@@QAEXKH@Z 004246d0 f   game.obj
 0001:00023740       ?RemovePlayer@mmCRHUD@@QAEXK@Z 00424740 f   game.obj
 0001:000238b0       ?ActivateGold@mmCRHUD@@QAEXXZ 004248b0 f   game.obj
 0001:000238c0       ?DeactivateGold@mmCRHUD@@QAEXXZ 004248c0 f   game.obj
 0001:000238d0       ?ActivateRosterGold@mmCRHUD@@QAEXK@Z 004248d0 f   game.obj
 0001:00023920       ?DeactivateRosterGold@mmCRHUD@@QAEXXZ 00424920 f   game.obj
 0001:00023960       ?UpdateGold@mmCRHUD@@QAEXXZ 00424960 f   game.obj
 0001:00023980       ?Update@mmCRHUD@@UAEXXZ    00424980 f   game.obj
 0001:000239a0       ?Reset@mmCRHUD@@UAEXXZ     004249a0 f   game.obj
 0001:000239b0       ?SetBlueScore@mmCRHUD@@QAEXH@Z 004249b0 f   game.obj
 0001:000239f0       ?SetRedScore@mmCRHUD@@QAEXH@Z 004249f0 f   game.obj
 0001:00023ac0       ??0mmIcons@@QAE@XZ         00424ac0 f   game.obj
 0001:00023b40       ??1mmIcons@@UAE@XZ         00424b40 f   game.obj
 0001:00023ba0       ?Init@mmIcons@@QAEXPAVMatrix34@@MM@Z 00424ba0 f   game.obj
 0001:00023be0       ?RegisterOpponents@mmIcons@@QAEXPAUOppIconInfo@@HPAX@Z 00424be0 f   game.obj
 0001:00023c60       ?Update@mmIcons@@UAEXXZ    00424c60 f   game.obj
 0001:00023ca0       ?Cull@mmIcons@@UAEXXZ      00424ca0 f   game.obj
 0001:000242a0       ??0mmPopup@@QAE@PAVmmGame@@MMMM@Z 004252a0 f   game.obj
 0001:00024710       ?ProcessEscape@mmPopup@@QAEXH@Z 00425710 f   game.obj
 0001:00024850       ?ProcessChat@mmPopup@@QAEXXZ 00425850 f   game.obj
 0001:00024950       ?ProcessKeymap@mmPopup@@QAEXH@Z 00425950 f   game.obj
 0001:00024ad0       ?ShowResults@mmPopup@@QAEXXZ 00425ad0 f   game.obj
 0001:00024b60       ?ShowRoster@mmPopup@@QAEXXZ 00425b60 f   game.obj
 0001:00024c00       ?ForceRoster@mmPopup@@QAEXXZ 00425c00 f   game.obj
 0001:00024c80       ?Update@mmPopup@@UAEXXZ    00425c80 f   game.obj
 0001:00025250       ?Reset@mmPopup@@UAEXXZ     00426250 f   game.obj
 0001:00025270       ?GetComment@mmPopup@@QAEPADXZ 00426270 f   game.obj
 0001:00025280       ?SetComment@mmPopup@@QAEXPAD@Z 00426280 f   game.obj
 0001:000252a0       ?RecordPosition@mmPopup@@QAEXXZ 004262a0 f   game.obj
 0001:000252d0       ?Unlock@mmPopup@@QAEXXZ    004262d0 f   game.obj
 0001:000252e0       ?ChatCB@mmPopup@@QAEXXZ    004262e0 f   game.obj
 0001:00025370       ??0mmAmbientAudio@@QAE@PAVmmPlayer@@@Z 00426370 f   game.obj
 0001:00025410       ??1mmAmbientAudio@@QAE@XZ  00426410 f   game.obj
 0001:00025420       ?Update@mmAmbientAudio@@QAEXXZ 00426420 f   game.obj
 0001:00025530       ??0mmHudMap@@QAE@XZ        00426530 f   game.obj
 0001:00025620       ?Init@mmHudMap@@QAEXPAVasCamera@@PAVMatrix34@@PAVmmHUD@@PAVmmGame@@PAD@Z 00426620 f   game.obj
 0001:00025bc0       ?Reset@mmHudMap@@UAEXXZ    00426bc0 f   game.obj
 0001:00025c00       ?RegisterOpponents@mmHudMap@@QAEXPAUOppIconInfo@@H@Z 00426c00 f   game.obj
 0001:00025c20       ?RegisterCopsnRobbers@mmHudMap@@QAEXPAPAVVector3@@@Z 00426c20 f   game.obj
 0001:00025c50       ?RegisterMisc@mmHudMap@@QAEXPAPAVVector3@@H@Z 00426c50 f   game.obj
 0001:00025c80       ?Activate@mmHudMap@@QAEXXZ 00426c80 f   game.obj
 0001:00025cb0       ?Deactivate@mmHudMap@@QAEXXZ 00426cb0 f   game.obj
 0001:00025ce0       ?SetMode@mmHudMap@@QAEXH@Z 00426ce0 f   game.obj
 0001:00026000       ?Cycle@mmHudMap@@QAEXXZ    00427000 f   game.obj
 0001:00026030       ?ToggleFullScreen@mmHudMap@@QAEXXZ 00427030 f   game.obj
 0001:00026060       ?GetCurrentMap@mmHudMap@@AAEPAVagiBitmap@@XZ 00427060 f   game.obj
 0001:00026070       ?ToggleMapRes@mmHudMap@@QAEXXZ 00427070 f   game.obj
 0001:000260d0       ?Update@mmHudMap@@UAEXXZ   004270d0 f   game.obj
 0001:000262c0       ?DrawClipped@mmHudMap@@AAEXPAVagiBitmap@@UPoint@@MMMM@Z 004272c0 f   game.obj
 0001:00026460       ?DrawOrientedBitmap@mmHudMap@@AAEXPAVMatrix34@@PAVagiBitmap@@@Z 00427460 f   game.obj
 0001:00026640       ?ResChanged@mmHudMap@@QAEXXZ 00427640 f   game.obj
 0001:00026680       ?DrawCops@mmHudMap@@AAEXXZ 00427680 f   game.obj
 0001:000266f0       ?DrawWaypoints@mmHudMap@@AAEXXZ 004276f0 f   game.obj
 0001:00026830       ?DrawCopsnRobbers@mmHudMap@@AAEXXZ 00427830 f   game.obj
 0001:00026900       ?DrawMisc@mmHudMap@@QAEXXZ 00427900 f   game.obj
 0001:00026970       ?WorldToBitmap@mmHudMap@@AAE?AUPoint@@PAVVector3@@@Z 00427970 f   game.obj
 0001:00026a10       ?BitmapToScreen@mmHudMap@@AAEHPAUPoint@@U2@@Z 00427a10 f   game.obj
 0001:00026ab0       ?AddWidgets@mmHudMap@@UAEXPAVBank@@@Z 00427ab0 f   game.obj
 0001:00026c10       ?DeclareFields@mmHudMap@@SAXXZ 00427c10 f   game.obj
 0001:00026c60       ?new_mmHudMap@@YAPAXH@Z    00427c60 f   game.obj
 0001:00026d30       ?delete_mmHudMap@@YAXPAXH@Z 00427d30 f   game.obj
 0001:00026d80       ?GetClass@mmHudMap@@UAEPAVMetaClass@@XZ 00427d80 f   game.obj
 0001:00026da0       ??0mmPlayer@@QAE@XZ        00427da0 f   game.obj
 0001:00027120       ?ReInit@mmPlayer@@QAEXPAD@Z 00428120 f   game.obj
 0001:000272b0       ?Init@mmPlayer@@QAEXPAD0PAVmmGame@@@Z 004282b0 f   game.obj
 0001:00027720       ?SetPreRaceCam@mmPlayer@@QAEXXZ 00428720 f   game.obj
 0001:00027810       ?SetPostRaceCam@mmPlayer@@QAEXXZ 00428810 f   game.obj
 0001:00027930       ?IsPOV@mmPlayer@@QAEHXZ    00428930 f   game.obj
 0001:00027980       ?SetWideFOV@mmPlayer@@QAEXH@Z 00428980 f   game.obj
 0001:00027b10       ?ToggleWideFOV@mmPlayer@@QAEXXZ 00428b10 f   game.obj
 0001:00027b30       ?ToggleCam@mmPlayer@@QAEXXZ 00428b30 f   game.obj
 0001:00027c50       ?ToggleExternalView@mmPlayer@@QAEXXZ 00428c50 f   game.obj
 0001:00027e00       ?ToggleDash@mmPlayer@@QAEXXZ 00428e00 f   game.obj
 0001:00028030       ?UpdateHOG@mmPlayer@@QAEXXZ 00429030 f   game.obj
 0001:00028160       ?Reset@mmPlayer@@UAEXXZ    00429160 f   game.obj
 0001:00028310       ?SetSteering@mmPlayer@@QAEXM@Z 00429310 f   game.obj
 0001:000288e0       ?Update@mmPlayer@@UAEXXZ   004298e0 f   game.obj
 0001:00029140       ?SetCamInterest@mmPlayer@@QAEXPAVasInertialCS@@@Z 0042a140 f   game.obj
 0001:000291b0       ?IsMaxDamaged@mmPlayer@@QAEHXZ 0042a1b0 f   game.obj
 0001:000291e0       ?EnableRegen@mmPlayer@@QAEXH@Z 0042a1e0 f   game.obj
 0001:00029200       ?ResetDamage@mmPlayer@@QAEXXZ 0042a200 f   game.obj
 0001:00029210       ?AddWidgets@mmPlayer@@UAEXPAVBank@@@Z 0042a210 f   game.obj
 0001:000299c0       ?DeclareFields@mmPlayer@@SAXXZ 0042a9c0 f   game.obj
 0001:00029d10       ?new_mmPlayer@@YAPAXH@Z    0042ad10 f   game.obj
 0001:00029de0       ?delete_mmPlayer@@YAXPAXH@Z 0042ade0 f   game.obj
 0001:00029e30       ?GetClass@mmPlayer@@UAEPAVMetaClass@@XZ 0042ae30 f   game.obj
 0001:00029ea0       ??0mmWaypoints@@QAE@XZ     0042aea0 f   game.obj
 0001:0002a2b0       ?BlitzRemove@mmWaypoints@@QAEHH@Z 0042b2b0 f   game.obj
 0001:0002a330       ?Init@mmWaypoints@@QAEHPAVmmPlayer@@PADHHHH@Z 0042b330 f   game.obj
 0001:0002a460       ?GetStartAngle@mmWaypoints@@QAEMXZ 0042b460 f   game.obj
 0001:0002a480       ??1mmWaypoints@@UAE@XZ     0042b480 f   game.obj
 0001:0002a580       ?LoadCSV@mmWaypoints@@QAEHPADH@Z 0042b580 f   game.obj
 0001:0002b270       ?CalculateGatePoints@mmWaypoints@@QAEXVVector3@@MMPAVVector2@@1@Z 0042c270 f   game.obj
 0001:0002b2f0       ?Update@mmWaypoints@@UAEXXZ 0042c2f0 f   game.obj
 0001:0002b680       ?DeactivateFinish@mmWaypoints@@QAEXXZ 0042c680 f   game.obj
 0001:0002b6a0       ?Reset@mmWaypoints@@UAEXXZ 0042c6a0 f   game.obj
 0001:0002b790       ?GetStart@mmWaypoints@@QAEXAAVVector3@@@Z 0042c790 f   game.obj
 0001:0002b7d0       ?GetWaypoint@mmWaypoints@@QAEXHAAVVector3@@@Z 0042c7d0 f   game.obj
 0001:0002b820       ?GetHeading@mmWaypoints@@QAEMH@Z 0042c820 f   game.obj
 0001:0002b850       ?GenerateHitRooms@mmWaypoints@@QAEXXZ 0042c850 f   game.obj
 0001:0002b8b0       ?GetHitRoom@mmWaypoints@@QAEHH@Z 0042c8b0 f   game.obj
 0001:0002b8d0       ?SetArrow@mmWaypoints@@QAEXXZ 0042c8d0 f   game.obj
 0001:0002b8f0       ?UpdateWPHUD@mmWaypoints@@QAEXXZ 0042c8f0 f   game.obj
 0001:0002b960       ?ResetAllTags@mmWaypoints@@QAEXXZ 0042c960 f   game.obj
 0001:0002b9a0       ?GetClosestWaypoint@mmWaypoints@@QAEXXZ 0042c9a0 f   game.obj
 0001:0002ba80       ?CycleCurrentWaypoint@mmWaypoints@@QAEXH@Z 0042ca80 f   game.obj
 0001:0002baf0       ?GetNextWaypoint@mmWaypoints@@QAEXXZ 0042caf0 f   game.obj
 0001:0002bb00       ?GetLastWaypoint@mmWaypoints@@QAEXXZ 0042cb00 f   game.obj
 0001:0002bb10       ?SetCurrentGoals@mmWaypoints@@QAEXH@Z 0042cb10 f   game.obj
 0001:0002bb50       ?AIWPHit@mmWaypoints@@QAEHHHVMatrix34@@VVector3@@M@Z 0042cb50 f   game.obj
 0001:0002be10       ?AnyAIWPHit@mmWaypoints@@QAEHAAIHVMatrix34@@VVector3@@M@Z 0042ce10 f   game.obj
 0001:0002c170       ?WPHit@mmWaypoints@@QAEHHVVector3@@HH@Z 0042d170 f   game.obj
 0001:0002c3f0       ?AnyWPHits@mmWaypoints@@QAEHH@Z 0042d3f0 f   game.obj
 0001:0002c6a0       ?LineIntersect@mmWaypoints@@QAEHVVector2@@000M@Z 0042d6a0 f   game.obj
 0001:0002c8b0       ?ClearWaypoint@mmWaypoints@@QAEXH@Z 0042d8b0 f   game.obj
 0001:0002c970       ?DisplayHUDMessage@mmWaypoints@@QAEXHH@Z 0042d970 f   game.obj
 0001:0002cac0       ?LineEq@mmGate@@QAEMMM@Z   0042dac0 f   game.obj
 0001:0002cae0       ?CloseEnough@mmGate@@QAEHMM@Z 0042dae0 f   game.obj
 0001:0002cb50       ??0Vector2@@QAE@ABV0@@Z    0042db50 f   game.obj
 0001:0002cb70       ??0mmWaypointObject@@QAE@AAVVector4@@PADHMHM@Z 0042db70 f   game.obj
 0001:0002cd10       ?Reset@mmWaypointObject@@UAEXXZ 0042dd10 f   game.obj
 0001:0002cd20       ?Update@mmWaypointObject@@UAEXXZ 0042dd20 f   game.obj
 0001:0002cd30       ?Activate@mmWaypointObject@@QAEXXZ 0042dd30 f   game.obj
 0001:0002cd40       ?Deactivate@mmWaypointObject@@QAEXXZ 0042dd40 f   game.obj
 0001:0002cd50       ?SetHeading@mmWaypointObject@@QAEXM@Z 0042dd50 f   game.obj
 0001:0002cdc0       ?Move@mmWaypointObject@@QAEXXZ 0042ddc0 f   game.obj
 0001:0002ce80       ??0mmGameMulti@@QAE@XZ     0042de80 f   game.obj
 0001:0002cf90       ??1mmGameMulti@@UAE@XZ     0042df90 f   game.obj
 0001:0002d050       ?Init@mmGameMulti@@QAEHXZ  0042e050 f   game.obj
 0001:0002d180       ?HitWaterHandler@mmGameMulti@@UAEXXZ 0042e180 f   game.obj
 0001:0002d270       ?DropThruCityHandler@mmGameMulti@@UAEXXZ 0042e270 f   game.obj
 0001:0002d280       ?InitGameStrings@mmGameMulti@@UAEXXZ 0042e280 f   game.obj
 0001:0002d4a0       ?SystemMessageCB@mmGameMulti@@QAEXPAX0@Z 0042e4a0 f   game.obj
 0001:0002d6b0       ?GameMessageCB@mmGameMulti@@QAEXPAX0@Z 0042e6b0 f   game.obj
 0001:0002da30       ?BootStrapCars@mmGameMulti@@QAEXXZ 0042ea30 f   game.obj
 0001:0002dbd0       ?Reset@mmGameMulti@@UAEXXZ 0042ebd0 f   game.obj
 0001:0002dc50       ?ClearNetObjects@mmGameMulti@@QAEXXZ 0042ec50 f   game.obj
 0001:0002dc90       ?InitOtherPlayers@mmGameMulti@@UAEXXZ 0042ec90 f   game.obj
 0001:0002df10       ?InitRoster@mmGameMulti@@UAEXXZ 0042ef10 f   game.obj
 0001:0002dfa0       ?Update@mmGameMulti@@UAEXXZ 0042efa0 f   game.obj
 0001:0002dfc0       ?UpdateGame@mmGameMulti@@UAEXXZ 0042efc0 f   game.obj
 0001:0002e050       ?UpdateScore@mmGameMulti@@QAEXXZ 0042f050 f   game.obj
 0001:0002e480       ?RegisterMapNetObjects@mmGameMulti@@QAEXH@Z 0042f480 f   game.obj
 0001:0002e5a0       ?EnableRacers@mmGameMulti@@IAEXXZ 0042f5a0 f   game.obj
 0001:0002e620       ?DisableRacers@mmGameMulti@@IAEXXZ 0042f620 f   game.obj
 0001:0002e670       ?ParseChatMessage@mmGameMulti@@QAEHPADH@Z 0042f670 f   game.obj
 0001:0002e6e0       ?SendChatMessage@mmGameMulti@@UAEXPAD@Z 0042f6e0 f   game.obj
 0001:0002e7a0       ?SendToChatMessage@mmGameMulti@@QAEXPADK@Z 0042f7a0 f   game.obj
 0001:0002e860       ?FinishMessage@mmGameMulti@@QAEXH@Z 0042f860 f   game.obj
 0001:0002e920       ?BootPlayerCB@mmGameMulti@@QAEXPAX0@Z 0042f920 f   game.obj
 0001:0002e960       ?UpdateNetWorkAudio@mmGameMulti@@QAEXXZ 0042f960 f   game.obj
 0001:0002e9b0       ?SendMsg@mmGameMulti@@QAEXH@Z 0042f9b0 f   game.obj
 0001:0002e9e0       ?SendBootMsg@mmGameMulti@@QAEXK@Z 0042f9e0 f   game.obj
 0001:0002ea20       ?DeclareFields@mmGameMulti@@SAXXZ 0042fa20 f   game.obj
 0001:0002ea70       ?delete_mmGameMulti@@YAXPAXH@Z 0042fa70 f   game.obj
 0001:0002eac0       ?GetClass@mmGameMulti@@UAEPAVMetaClass@@XZ 0042fac0 f   game.obj
 0001:0002eb00       ??0mmNetObject@@QAE@XZ     0042fb00 f   game.obj
 0001:0002ebb0       ?Clear@mmNetObject@@QAEXXZ 0042fbb0 f   game.obj
 0001:0002ec00       ?Activate@mmNetObject@@QAEXXZ 0042fc00 f   game.obj
 0001:0002ec50       ?Deactivate@mmNetObject@@QAEXXZ 0042fc50 f   game.obj
 0001:0002ecb0       ?SetCar@mmNetObject@@QAEXPAVmmCar@@@Z 0042fcb0 f   game.obj
 0001:0002ecc0       ?SetActive@mmNetObject@@QAEXH@Z 0042fcc0 f   game.obj
 0001:0002ece0       ?SetLocalData@mmNetObject@@UAEXXZ 0042fce0 f   game.obj
 0001:0002ee30       ?PositionUpdate@mmNetObject@@QAEXPAUNETGAME_MSG@@@Z 0042fe30 f   game.obj
 0001:0002f1e0       ?Predict@mmNetObject@@QAEXXZ 004301e0 f   game.obj
 0001:0002f390       ?Update@mmNetObject@@UAEXXZ 00430390 f   game.obj
 0001:0002f430       ??0mmRainAudio@@QAE@XZ     00430430 f   game.obj
 0001:0002f630       ?SetInterior@mmRainAudio@@QAEXE@Z 00430630 f   game.obj
 0001:0002f6c0       ?ShelterOn@mmRainAudio@@QAEXXZ 004306c0 f   game.obj
 0001:0002f730       ?ShelterOff@mmRainAudio@@QAEXXZ 00430730 f   game.obj
 0001:0002f7a0       ?Update@mmRainAudio@@QAEXXZ 004307a0 f   game.obj
 0001:0002f920       ??0mmWaypointInstance@@QAE@HMM@Z 00430920 f   game.obj
 0001:0002f970       ?GetScale@mmWaypointInstance@@UAIMXZ 00430970 f   game.obj
 0001:0002f980       ?ComputeLod@mmWaypointInstance@@UAEHMM@Z 00430980 f   game.obj
 0001:0002f9a0       ?Draw@mmWaypointInstance@@UAIXH@Z 004309a0 f   game.obj
 0001:0002fd70       ?DeclareFields@mmWaypointInstance@@SAXXZ 00430d70 f   game.obj
 0001:0002fdc0       ?new_mmWaypointInstance@@YAPAXH@Z 00430dc0 f   game.obj
 0001:0002fea0       ?delete_mmWaypointInstance@@YAXPAXH@Z 00430ea0 f   game.obj
 0001:0002fef0       ?GetClass@mmWaypointInstance@@UAEPAVMetaClass@@XZ 00430ef0 f   game.obj
 0001:0002ff60       ??_FmmWaypointInstance@@QAEXXZ 00430f60 f   game.obj
 0001:0002ffc0       ??0aiMap@@QAE@XZ           00430fc0 f   game.obj
 0001:0002ffe0       ?Clean@aiMap@@QAEXXZ       00430fe0 f   game.obj
 0001:00030210       ?Init@aiMap@@QAEXPAD00PAVmmCar@@@Z 00431210 f   game.obj
 0001:00031760       ?SaveBinary@aiMap@@AAEXPAD@Z 00432760 f   game.obj
 0001:000318e0       ?ReadBinary@aiMap@@AAEXPAD@Z 004328e0 f   game.obj
 0001:00031ee0       ?Reset@aiMap@@UAEXXZ       00432ee0 f   game.obj
 0001:00032220       ?Update@aiMap@@UAEXXZ      00433220 f   game.obj
 0001:000325a0       ?Cull@aiMap@@UAEXXZ        004335a0 f   game.obj
 0001:00032bf0       ?DrawNextVisibleAmbient@aiMap@@QAEXXZ 00433bf0 f   game.obj
 0001:00032c10       ?AllwaysGreen@aiMap@@QAEXXZ 00433c10 f   game.obj
 0001:00032c50       ?AllwaysRed@aiMap@@QAEXXZ  00433c50 f   game.obj
 0001:00032c90       ?DrawAppRoads@aiMap@@QAEXXZ 00433c90 f   game.obj
 0001:00032cb0       ?MapComponent@aiMap@@QAEHAAVVector3@@PAF1F@Z 00433cb0 f   game.obj
 0001:00032e30       ?DetermineRoadPosInfo@aiMap@@QAEHAAVMatrix34@@PAVaiRailSet@@PAFPAM23H@Z 00433e30 f   game.obj
 0001:00032fd0       ?DeterminePerpMapComponent@aiMap@@QAEHAAVMatrix34@@PAVaiRailSet@@PAF2PAM32@Z 00433fd0 f   game.obj
 0001:00033230       ?DetermineOppMapComponent@aiMap@@QAEHAAVMatrix34@@PAVaiRailSet@@PAF2PAM323MFF@Z 00434230 f   game.obj
 0001:00034bd0       ?DetermineOppRoadPosInfo@aiMap@@QAEHAAVVector3@@0PAVaiRailSet@@PAFPAM3H@Z 00435bd0 f   game.obj
 0001:00034cb0       ?FindAmbAppRoad@aiMap@@QAEHH@Z 00435cb0 f   game.obj
 0001:00034d00       ?FindPedAppRoad@aiMap@@QAEHH@Z 00435d00 f   game.obj
 0001:00034d50       ?PredictIntersectionPath@aiMap@@QAEPAVaiPath@@HAAVMatrix34@@@Z 00435d50 f   game.obj
 0001:00034f30       ?PredictAmbIntersectionPath@aiMap@@QAEPAVaiPath@@HAAVMatrix34@@@Z 00435f30 f   game.obj
 0001:00035110       ?PredictAmbFreewayIntersectionPath@aiMap@@QAEPAVaiPath@@HAAVMatrix34@@@Z 00436110 f   game.obj
 0001:00035320       ?AddAIPath@aiMap@@AAEPAVaiPath@@AAVmmRoadSect@@HH@Z 00436320 f   game.obj
 0001:00035420       ?AddIntersection@aiMap@@QAEPAVaiIntersection@@PAVVector3@@@Z 00436420 f   game.obj
 0001:00035450       ?ScanIntersections@aiMap@@AAEPAVaiIntersection@@AAVVector3@@@Z 00436450 f   game.obj
 0001:000354d0       ?NewIntersection@aiMap@@AAEPAVaiIntersection@@AAVVector3@@@Z 004364d0 f   game.obj
 0001:000355b0       ?CreateAmbAppRoadMap@aiMap@@AAEXXZ 004365b0 f   game.obj
 0001:00035b30       ?CreatePedAppRoadMap@aiMap@@AAEXXZ 00436b30 f   game.obj
 0001:000360b0       ?AddIntToAppRoadMap@aiMap@@AAEXPAVCArrayList@@HMPAPAUasPortalCell@@H@Z 004370b0 f   game.obj
 0001:00036130       ?NumCars@aiMap@@AAEHHMM@Z  00437130 f   game.obj
 0001:00036160       ?FindRoad@aiMap@@AAEHPAVCArrayList@@H@Z 00437160 f   game.obj
 0001:000361a0       ?ChooseNextLeftStraightLink@aiMap@@QAEHPAVaiRailSet@@@Z 004371a0 f   game.obj
 0001:00036410       ?ChooseNextRightStraightLink@aiMap@@QAEHPAVaiRailSet@@@Z 00437410 f   game.obj
 0001:000366b0       ?ChooseNextStraightLink@aiMap@@QAEHPAVaiRailSet@@@Z 004376b0 f   game.obj
 0001:000369c0       ?ChooseNextFreewayLink@aiMap@@QAEHPAVaiRailSet@@@Z 004379c0 f   game.obj
 0001:00036ad0       ?ChooseNextRightStraightFreewayLink@aiMap@@QAEHPAVaiRailSet@@@Z 00437ad0 f   game.obj
 0001:00036c90       ?AdjustPedestrians@aiMap@@AAEXHH@Z 00437c90 f   game.obj
 0001:00037030       ?AddPedestrian@aiMap@@QAEXPAVaiPedestrian@@@Z 00438030 f   game.obj
 0001:00037060       ?RemovePedestrian@aiMap@@QAEXPAVaiPedestrian@@@Z 00438060 f   game.obj
 0001:000370d0       ?AdjustAmbients@aiMap@@AAEXHH@Z 004380d0 f   game.obj
 0001:00037590       ?AddAmbient@aiMap@@QAEXPAVaiVehicleSpline@@@Z 00438590 f   game.obj
 0001:000375d0       ?RemoveAmbient@aiMap@@QAEXPAVaiVehicleSpline@@@Z 004385d0 f   game.obj
 0001:00037640       ?GoodRoadForCopStartPos@aiMap@@QAEHH@Z 00438640 f   game.obj
 0001:00037690       ?DeclareFields@aiMap@@SAXXZ 00438690 f   game.obj
 0001:000376e0       ?new_aiMap@@YAPAXH@Z       004386e0 f   game.obj
 0001:000377b0       ?delete_aiMap@@YAXPAXH@Z   004387b0 f   game.obj
 0001:00037800       ?GetClass@aiMap@@UAEPAVMetaClass@@XZ 00438800 f   game.obj
 0001:00037810       ?Clamp@@YAMMMM@Z           00438810 f   game.obj
 0001:000378a0       ??0CArrayList@@QAE@XZ      004388a0 f   game.obj
 0001:000378b0       ??1mmRoadSide@@UAE@XZ      004388b0 f   game.obj
 0001:00037940       ??1mmRoadSect@@UAE@XZ      00438940 f   game.obj
 0001:00037a50       ??0aiPath@@QAE@H@Z         00438a50 f   game.obj
 0001:00037a80       ??1aiPath@@QAE@XZ          00438a80 f   game.obj
 0001:00037b10       ?Reset@aiPath@@QAEXXZ      00438b10 f   game.obj
 0001:00037b50       ?UpdateAmbients@aiPath@@QAEXXZ 00438b50 f   game.obj
 0001:00037c60       ?UpdatePedestrians@aiPath@@QAEXXZ 00438c60 f   game.obj
 0001:00037d00       ?ResetVehicleReactTicks@aiPath@@QAEXXZ 00438d00 f   game.obj
 0001:00037d30       ?AddPathVerts@aiPath@@QAEXAAVmmRoadSect@@HH@Z 00438d30 f   game.obj
 0001:00038660       ?AddPathVerts@aiPath@@QAEXPAVVector3@@H@Z 00439660 f   game.obj
 0001:00038cd0       ?CalcCenterVerts@aiPath@@QAEXAAVmmRoadSect@@H@Z 00439cd0 f   game.obj
 0001:00039010       ?SaveBinary@aiPath@@QAEXPAVStream@@@Z 0043a010 f   game.obj
 0001:00039280       ?ReadBinary@aiPath@@QAEXPAVStream@@@Z 0043a280 f   game.obj
 0001:00039780       ?Draw@aiPath@@QAEXXZ       0043a780 f   game.obj
 0001:00039940       ?DrawNormals@aiPath@@QAEXXZ 0043a940 f   game.obj
 0001:00039a30       ?DrawId@aiPath@@QAEXXZ     0043aa30 f   game.obj
 0001:00039aa0       ?AllwaysStop@aiPath@@QAEXH@Z 0043aaa0 f   game.obj
 0001:00039ac0       ?StopDestinationSources@aiPath@@QAEXH@Z 0043aac0 f   game.obj
 0001:00039b40       ?AllwaysGo@aiPath@@QAEXH@Z 0043ab40 f   game.obj
 0001:00039b60       ?CenterLength@aiPath@@QAEMHH@Z 0043ab60 f   game.obj
 0001:00039b80       ?SubSectionLength@aiPath@@QAEMHH@Z 0043ab80 f   game.obj
 0001:00039ba0       ?GetHeading@aiPath@@QAEMMH@Z 0043aba0 f   game.obj
 0001:00039c70       ?SubSectionDist@aiPath@@QAEMMH@Z 0043ac70 f   game.obj
 0001:00039d30       ?CenterIndex@aiPath@@QAEHM@Z 0043ad30 f   game.obj
 0001:00039dd0       ?Index@aiPath@@QAEHMH@Z    0043add0 f   game.obj
 0001:00039e80       ?Index@aiPath@@QAEHAAVVector3@@@Z 0043ae80 f   game.obj
 0001:00039f80       ?RoadDistance@aiPath@@QAEXAAVVector3@@PAFPAMF2@Z 0043af80 f   game.obj
 0001:0003a120       ?CenterDistance@aiPath@@QAEHAAVVector3@@PAFPAM2@Z 0043b120 f   game.obj
 0001:0003a440       ?AmbientCenterDistance@aiPath@@QAEXPAVaiVehicleSpline@@PAM111@Z 0043b440 f   game.obj
 0001:0003ab30       ?SubSectionPt@aiPath@@QAEXAAVVector3@@HHM@Z 0043bb30 f   game.obj
 0001:0003aba0       ?SubSectionDir@aiPath@@QAEXAAVVector3@@HHM@Z 0043bba0 f   game.obj
 0001:0003abf0       ?IntersectionEntryPt@aiPath@@QAEXAAVVector3@@HM@Z 0043bbf0 f   game.obj
 0001:0003acb0       ?IntersectionEntryVector@aiPath@@QAEXAAVVector3@@M@Z 0043bcb0 f   game.obj
 0001:0003ad30       ?IntersectionExitVector@aiPath@@QAEXAAVVector3@@M@Z 0043bd30 f   game.obj
 0001:0003ada0       ?NumVehiclesAfterDist@aiPath@@QAEHHM@Z 0043bda0 f   game.obj
 0001:0003adf0       ?PopVehicle@aiPath@@QAEXPAVaiVehicleSpline@@H@Z 0043bdf0 f   game.obj
 0001:0003aed0       ?PushVehicle@aiPath@@QAEXPAVaiVehicleSpline@@H@Z 0043bed0 f   game.obj
 0001:0003af40       ?AddVehicle@aiPath@@QAEXPAVaiVehicleSpline@@HM@Z 0043bf40 f   game.obj
 0001:0003b070       ?RemoveVehicle@aiPath@@QAEHPAVaiVehicleSpline@@H@Z 0043c070 f   game.obj
 0001:0003b180       ?RoadCapacity@aiPath@@QAEHPAVaiVehicleSpline@@H@Z 0043c180 f   game.obj
 0001:0003b240       ?AddPedestrian@aiPath@@QAEXPAVaiPedestrian@@@Z 0043c240 f   game.obj
 0001:0003b280       ?RemovePedestrian@aiPath@@QAEXPAVaiPedestrian@@@Z 0043c280 f   game.obj
 0001:0003b2f0       ??0aiAudioManager@@QAE@XZ  0043c2f0 f   game.obj
 0001:0003b4f0       ??1aiAudioManager@@UAE@XZ  0043c4f0 f   game.obj
 0001:0003b8f0       ?AddVehicle@aiAudioManager@@QAEFPAVaiVehicleAmbient@@@Z 0043c8f0 f   game.obj
 0001:0003b9a0       ?AddVehicle@aiAudioManager@@QAEFPAVaiVehicleOpponent@@@Z 0043c9a0 f   game.obj
 0001:0003ba50       ?AddVehicle@aiAudioManager@@QAEFPAVaiVehiclePolice@@@Z 0043ca50 f   game.obj
 0001:0003bb00       ?RemoveVehicle@aiAudioManager@@QAEXPAVaiVehicleAmbient@@F@Z 0043cb00 f   game.obj
 0001:0003bb70       ?RemoveVehicle@aiAudioManager@@QAEXPAVaiVehicleOpponent@@F@Z 0043cb70 f   game.obj
 0001:0003bbe0       ?RemoveVehicle@aiAudioManager@@QAEXPAVaiVehiclePolice@@F@Z 0043cbe0 f   game.obj
 0001:0003bc50       ?FindGreatestDistance@aiAudioManager@@QAEFPAVaiVehicleAmbient@@@Z 0043cc50 f   game.obj
 0001:0003be40       ?FindGreatestDistance@aiAudioManager@@QAEFPAVaiVehicleOpponent@@@Z 0043ce40 f   game.obj
 0001:0003c030       ?FindGreatestDistance@aiAudioManager@@QAEFPAVaiVehiclePolice@@@Z 0043d030 f   game.obj
 0001:0003c290       ?UnassignFurthestAmbient@aiAudioManager@@QAEFXZ 0043d290 f   game.obj
 0001:0003c350       ?UnassignFurthestOpponent@aiAudioManager@@QAEFXZ 0043d350 f   game.obj
 0001:0003c420       ?FindUnusedSlot@aiAudioManager@@QAEFXZ 0043d420 f   game.obj
 0001:0003c460       ?Update@aiAudioManager@@UAEXXZ 0043d460 f   game.obj
 0001:0003c7d0       ?EchoOn@aiAudioManager@@QAEXM@Z 0043d7d0 f   game.obj
 0001:0003cb20       ?EchoOff@aiAudioManager@@QAEXXZ 0043db20 f   game.obj
 0001:0003ccc0       ?AssignSounds@aiAudioManager@@QAEXPAVaiVehicleOpponent@@F@Z 0043dcc0 f   game.obj
 0001:0003d0b0       ?AssignAddOnSounds@aiAudioManager@@QAEXPAVaiVehicleOpponent@@F@Z 0043e0b0 f   game.obj
 0001:0003d1b0       ?AssignSounds@aiAudioManager@@QAEXPAVaiVehiclePolice@@F@Z 0043e1b0 f   game.obj
 0001:0003d790       ?AssignSounds@aiAudioManager@@QAEXPAVaiVehicleAmbient@@F@Z 0043e790 f   game.obj
 0001:0003d980       ?AllocateAmbients@aiAudioManager@@QAEXXZ 0043e980 f   game.obj
 0001:0003d9e0       ?AllocateOpponents@aiAudioManager@@QAEXXZ 0043e9e0 f   game.obj
 0001:0003da30       ?AllocatePolice@aiAudioManager@@QAEXXZ 0043ea30 f   game.obj
 0001:0003dd70       ?AllocateSkids@aiAudioManager@@QAEXXZ 0043ed70 f   game.obj
 0001:0003e010       ?AllocateCopVoice@aiAudioManager@@QAEXXZ 0043f010 f   game.obj
 0001:0003e0f0       ?LoadCopVoice@aiAudioManager@@QAEXXZ 0043f0f0 f   game.obj
 0001:0003e220       ?CatName@aiAudioManager@@AAEPADPADHH@Z 0043f220 f   game.obj
 0001:0003e420       ?AllocateImpacts@aiAudioManager@@QAEXXZ 0043f420 f   game.obj
 0001:0003e4d0       ?AllocateHorns@aiAudioManager@@QAEXXZ 0043f4d0 f   game.obj
 0001:0003e6b0       ?AllocateVoices@aiAudioManager@@QAEXXZ 0043f6b0 f   game.obj
 0001:0003e880       ?AllocateEngine@aiAudioManager@@QAEXFF@Z 0043f880 f   game.obj
 0001:0003ea90       ?AllocateAddOnEngine@aiAudioManager@@QAEFPAD@Z 0043fa90 f   game.obj
 0001:0003ec60       ?AllocateEngine@aiAudioManager@@QAEPAPAVAudSound@@PAD@Z 0043fc60 f   game.obj
 0001:0003edb0       ?AllocateReverseBeep@aiAudioManager@@QAEXXZ 0043fdb0 f   game.obj
 0001:0003ef00       ?QueueInCopVoice@aiAudioManager@@QAEFM@Z 0043ff00 f   game.obj
 0001:0003ef60       ?PlayCopVoice@aiAudioManager@@QAEFXZ 0043ff60 f   game.obj
 0001:0003efb0       ?GetClosestCop@aiAudioManager@@QAEFXZ 0043ffb0 f   game.obj
 0001:0003f090       ??0aiTrafficLightSet@@QAE@PAVaiIntersection@@@Z 00440090 f   game.obj
 0001:0003f280       ??1aiTrafficLightSet@@UAE@XZ 00440280 f   game.obj
 0001:0003f2e0       ?Reset@aiTrafficLightSet@@UAEXXZ 004402e0 f   game.obj
 0001:0003f380       ?Update@aiTrafficLightSet@@UAEXXZ 00440380 f   game.obj
 0001:0003f460       ?Init@aiTrafficLightInstance@@UAEHPADAAVVector3@@1H0@Z 00440460 f   game.obj
 0001:0003f660       ?Draw@aiTrafficLightInstance@@UAIXH@Z 00440660 f   game.obj
 0001:0003f820       ??0aiVehiclePolice@@QAE@XZ 00440820 f   game.obj
 0001:0003f880       ??1aiVehiclePolice@@QAE@XZ 00440880 f   game.obj
 0001:0003f9c0       ?Init@aiVehiclePolice@@QAEXHPAVaiRaceData@@@Z 004409c0 f   game.obj
 0001:0003fbd0       ?Reset@aiVehiclePolice@@UAEXXZ 00440bd0 f   game.obj
 0001:00040260       ?ResetPed@aiVehiclePolice@@QAEXXZ 00441260 f   game.obj
 0001:00040460       ?Update@aiVehiclePolice@@UAEXXZ 00441460 f   game.obj
 0001:00040a60       ?InPersuit@aiVehiclePolice@@QAEHXZ 00441a60 f   game.obj
 0001:00040a90       ?FindPerp@aiVehiclePolice@@AAEHHHPAVaiPath@@HH@Z 00441a90 f   game.obj
 0001:00040bd0       ?PerpEscapes@aiVehiclePolice@@QAEXE@Z 00441bd0 f   game.obj
 0001:00040c40       ?ConfigCar@aiVehiclePolice@@QAEXXZ 00441c40 f   game.obj
 0001:00040d40       ?DrawTargetPt@aiVehiclePolice@@QAEXXZ 00441d40 f   game.obj
 0001:00040eb0       ?DrawId@aiVehiclePolice@@UAEXXZ 00441eb0 f   game.obj
 0001:00040f00       ?UnAssignSounds@aiVehiclePolice@@QAEXXZ 00441f00 f   game.obj
 0001:00040f20       ?GetCarAudioPtr@aiVehiclePolice@@QAEPAVmmPoliceCarAudio@@XZ 00441f20 f   game.obj
 0001:00040f30       ?GetEngineSoundIndex@aiVehiclePolice@@QAEHXZ 00441f30 f   game.obj
 0001:00040f40       ?SetMainSirenLoop@aiVehiclePolice@@QAEXH@Z 00441f40 f   game.obj
 0001:00040f60       ?UpdateAudio@aiVehiclePolice@@QAEXXZ 00441f60 f   game.obj
 0001:00041020       ?GetDistanceToPlayer2@aiVehiclePolice@@QAEMXZ 00442020 f   game.obj
 0001:00041030       ?PlayVoice@aiVehiclePolice@@QAEXXZ 00442030 f   game.obj
 0001:00041040       ?SetAudioMinDistance@aiVehiclePolice@@QAEXM@Z 00442040 f   game.obj
 0001:00041060       ?SetAudioMaxDistance@aiVehiclePolice@@QAEXM@Z 00442060 f   game.obj
 0001:00041090       ?SetAudioCloserMinDistMult@aiVehiclePolice@@QAEXM@Z 00442090 f   game.obj
 0001:000410b0       ?AddToAiAudMgr@aiVehiclePolice@@AAEXXZ 004420b0 f   game.obj
 0001:00041120       ?AssignSounds@aiVehiclePolice@@QAEXPAVAudSound@@000PAVmmOpponentImpactAudio@@0@Z 00442120 f   game.obj
 0001:00041150       ?GetAudioPtr@aiVehiclePolice@@QAEPAVmmPoliceCarAudio@@XZ 00442150 f   game.obj
 0001:00041160       ?Dump@aiVehiclePolice@@QAEXXZ 00442160 f   game.obj
 0001:00041240       ?Type@aiVehiclePolice@@UAEHXZ 00442240 f   game.obj
 0001:00041250       ??0aiRaceData@@QAE@PAD0@Z  00442250 f   game.obj
 0001:00041730       ??1aiRaceData@@QAE@XZ      00442730 f   game.obj
 0001:00041820       ??1CArrayList@@QAE@XZ      00442820 f   game.obj
 0001:00041840       ?Append@CArrayList@@QAEXH@Z 00442840 f   game.obj
 0001:000418a0       ??0aiPedAudioManager@@QAE@XZ 004428a0 f   game.obj
 0001:00041ba0       ??1aiPedAudioManager@@UAE@XZ 00442ba0 f   game.obj
 0001:00041c50       ?Add@aiPedAudioManager@@QAEFPAVaiPedestrian@@@Z 00442c50 f   game.obj
 0001:00041d00       ?Remove@aiPedAudioManager@@QAEXPAVaiPedestrian@@F@Z 00442d00 f   game.obj
 0001:00041d70       ?FindGreatestDistance@aiPedAudioManager@@QAEFPAVaiPedestrian@@@Z 00442d70 f   game.obj
 0001:00041e00       ?FindUnusedSlot@aiPedAudioManager@@QAEFXZ 00442e00 f   game.obj
 0001:00041e40       ?Update@aiPedAudioManager@@UAEXXZ 00442e40 f   game.obj
 0001:00041ea0       ?AssignSounds@aiPedAudioManager@@QAEXF@Z 00442ea0 f   game.obj
 0001:00041ef0       ??0aiIntersection@@QAE@H@Z 00442ef0 f   game.obj
 0001:00041f10       ??1aiIntersection@@QAE@XZ  00442f10 f   game.obj
 0001:00041f80       ?Init@aiIntersection@@QAEXXZ 00442f80 f   game.obj
 0001:00042130       ?Reset@aiIntersection@@QAEXXZ 00443130 f   game.obj
 0001:00042140       ?AddSinkPath@aiIntersection@@QAEXPAVaiPath@@@Z 00443140 f   game.obj
 0001:000421b0       ?AddSourcePath@aiIntersection@@QAEXPAVaiPath@@@Z 004431b0 f   game.obj
 0001:00042220       ?SaveBinary@aiIntersection@@QAEXPAVStream@@@Z 00443220 f   game.obj
 0001:000422f0       ?ReadBinary@aiIntersection@@QAEXPAVStream@@@Z 004432f0 f   game.obj
 0001:00042490       ?DrawPaths@aiIntersection@@QAEXXZ 00443490 f   game.obj
 0001:000424c0       ?DrawId@aiIntersection@@QAEXXZ 004434c0 f   game.obj
 0001:00042500       ?CreateRoadMap@aiIntersection@@QAEXXZ 00443500 f   game.obj
 0001:00042830       ?Path@aiIntersection@@QAEPAVaiPath@@H@Z 00443830 f   game.obj
 0001:00042870       ??0aiPedestrian@@QAE@XZ    00443870 f   game.obj
 0001:00042950       ??1aiPedestrian@@QAE@XZ    00443950 f   game.obj
 0001:00042960       ?Init@aiPedestrian@@QAEXPADHH@Z 00443960 f   game.obj
 0001:00042ce0       ?Reset@aiPedestrian@@QAEXPAVaiPath@@@Z 00443ce0 f   game.obj
 0001:00043010       ?Update@aiPedestrian@@QAEXXZ 00444010 f   game.obj
 0001:00044400       ?Wander@aiPedestrian@@AAEXXZ 00445400 f   game.obj
 0001:00044860       ?Anticipate@aiPedestrian@@AAEXAAVmmIntersection@@H@Z 00445860 f   game.obj
 0001:00044a80       ?Avoid@aiPedestrian@@AAEXAAVmmIntersection@@PAM@Z 00445a80 f   game.obj
 0001:00044e80       ?TimeToCollision@aiPedestrian@@AAEMM@Z 00445e80 f   game.obj
 0001:00044ea0       ?DetectPlayerForwardCollision@aiPedestrian@@AAEHPAM0@Z 00445ea0 f   game.obj
 0001:00045080       ?DetectPlayerAnticipate@aiPedestrian@@AAEHPAM0@Z 00446080 f   game.obj
 0001:00045240       ?RoadDistance@aiPedestrian@@AAEMXZ 00446240 f   game.obj
 0001:00045940       ?SolveRoadSegment@aiPedestrian@@AAEXM@Z 00446940 f   game.obj
 0001:00045a80       ?PickNextRdSeg@aiPedestrian@@AAEPAVaiPath@@XZ 00446a80 f   game.obj
 0001:00045c70       ?DetectPlayerCollision@aiPedestrian@@AAEHPAM@Z 00446c70 f   game.obj
 0001:00045fd0       ?DetectBangerCollision@aiPedestrian@@AAEHPAPAVmmInstance@@PAMM@Z 00446fd0 f   game.obj
 0001:000465c0       ?DetectPedCollision@aiPedestrian@@AAEHMPAPAV1@PAM@Z 004475c0 f   game.obj
 0001:00046aa0       ?AvoidPlayer@aiPedestrian@@AAEXAAVVector3@@M@Z 00447aa0 f   game.obj
 0001:00046b30       ?AvoidBanger@aiPedestrian@@AAEXPAVmmInstance@@M@Z 00447b30 f   game.obj
 0001:00046c20       ?AvoidPedCollision@aiPedestrian@@AAEXPAV1@M@Z 00447c20 f   game.obj
 0001:00046d10       ?AvoidObstacle@aiPedestrian@@AAEXAAVVector3@@M@Z 00447d10 f   game.obj
 0001:00047030       ?SolveTargetPoint@aiPedestrian@@AAEXM@Z 00448030 f   game.obj
 0001:000470a0       ?CalcCurve@aiPedestrian@@AAEXHHM@Z 004480a0 f   game.obj
 0001:00047760       ?ComputeCurve@aiPedestrian@@AAEXAAVVector3@@000@Z 00448760 f   game.obj
 0001:00047810       ?SolvePosition@aiPedestrian@@AAEXAAVVector3@@M@Z 00448810 f   game.obj
 0001:00047860       ?PlayVoice@aiPedestrian@@QAEXF@Z 00448860 f   game.obj
 0001:00047930       ?CalculateAudioPanning@aiPedestrian@@QAEXXZ 00448930 f   game.obj
 0001:00047980       ?UpdateAudio@aiPedestrian@@QAEXXZ 00448980 f   game.obj
 0001:00047a50       ?SetVoiceSoundPtr@aiPedestrian@@QAEXPAVAudSound@@@Z 00448a50 f   game.obj
 0001:00047a60       ?UnAssignSounds@aiPedestrian@@QAEXXZ 00448a60 f   game.obj
 0001:00047aa0       ?Reset@aiPedestrian@@QAEXXZ 00448aa0 f   game.obj
 0001:00047ad0       ?Dump@aiPedestrian@@QAEXXZ 00448ad0 f   game.obj
 0001:00047ca0       ?DrawDebug@aiPedestrian@@QAEXXZ 00448ca0 f   game.obj
 0001:00047d70       ?GetRoamVoiceIndex@aiPedestrian@@AAEFXZ 00448d70 f   game.obj
 0001:00047f40       ?GetRaceVoiceIndex@aiPedestrian@@AAEFXZ 00448f40 f   game.obj
 0001:000480b0       ?ToMatrix@aiPedestrianInstance@@UAIAAVMatrix34@@AAV2@@Z 004490b0 f   game.obj
 0001:000480c0       ?FromMatrix@aiPedestrianInstance@@UAIXABVMatrix34@@@Z 004490c0 f   game.obj
 0001:000480d0       ?GetPos@aiPedestrianInstance@@UAIAAVVector3@@XZ 004490d0 f   game.obj
 0001:000480e0       ?ComputeLod@aiPedestrianInstance@@UAEHMM@Z 004490e0 f   game.obj
 0001:00048110       ?Draw@aiPedestrianInstance@@UAIXH@Z 00449110 f   game.obj
 0001:00048220       ?DrawShadow@aiPedestrianInstance@@UAIXXZ 00449220 f   game.obj
 0001:00048310       ??0aiVehicleOpponent@@QAE@XZ 00449310 f   game.obj
 0001:00048370       ??1aiVehicleOpponent@@QAE@XZ 00449370 f   game.obj
 0001:000484a0       ?Dump@aiVehicleOpponent@@QAEXXZ 004494a0 f   game.obj
 0001:00048540       ?UnAssignSounds@aiVehicleOpponent@@QAEXXZ 00449540 f   game.obj
 0001:00048560       ?GetEngineSoundIndex@aiVehicleOpponent@@QAEHXZ 00449560 f   game.obj
 0001:00048570       ?DrawId@aiVehicleOpponent@@UAEXXZ 00449570 f   game.obj
 0001:000485c0       ?UpdateAudio@aiVehicleOpponent@@QAEXXZ 004495c0 f   game.obj
 0001:00048660       ?GetDistanceToPlayer2@aiVehicleOpponent@@QAEMXZ 00449660 f   game.obj
 0001:00048670       ?SetAudioMinDistance@aiVehicleOpponent@@QAEXM@Z 00449670 f   game.obj
 0001:00048690       ?SetAudioMaxDistance@aiVehicleOpponent@@QAEXM@Z 00449690 f   game.obj
 0001:000486c0       ?SetAudioCloserMinDistMult@aiVehicleOpponent@@QAEXM@Z 004496c0 f   game.obj
 0001:000486e0       ?GetCarAudioPtr@aiVehicleOpponent@@QAEPAVmmOpponentCarAudio@@XZ 004496e0 f   game.obj
 0001:000486f0       ?AddToAiAudMgr@aiVehicleOpponent@@AAEXXZ 004496f0 f   game.obj
 0001:00048750       ?AddWidget@aiVehicleOpponent@@QAEXPAVBank@@@Z 00449750 f   game.obj
 0001:00048770       ?AssignSounds@aiVehicleOpponent@@QAEXPAVAudSound@@0PAVmmOpponentImpactAudio@@0@Z 00449770 f   game.obj
 0001:000487a0       ?DeclareFields@aiVehicleOpponent@@SAXXZ 004497a0 f   game.obj
 0001:000487f0       ?new_aiVehicleOpponent@@YAPAXH@Z 004497f0 f   game.obj
 0001:000488c0       ?delete_aiVehicleOpponent@@YAXPAXH@Z 004498c0 f   game.obj
 0001:00048930       ?GetClass@aiVehicleOpponent@@UAEPAVMetaClass@@XZ 00449930 f   game.obj
 0001:00048940       ?Type@aiVehicleOpponent@@UAEHXZ 00449940 f   game.obj
 0001:000489e0       ??0aiVehicleAmbient@@QAE@XZ 004499e0 f   game.obj
 0001:00048ac0       ??1aiVehicleAmbient@@QAE@XZ 00449ac0 f   game.obj
 0001:00048b90       ?Init@aiVehicleAmbient@@QAEXPADH@Z 00449b90 f   game.obj
 0001:00048f80       ?Reset@aiVehicleAmbient@@UAEXXZ 00449f80 f   game.obj
 0001:00049060       ?Update@aiVehicleAmbient@@UAEXXZ 0044a060 f   game.obj
 0001:00049210       ?Impact@aiVehicleAmbient@@UAEXH@Z 0044a210 f   game.obj
 0001:000492c0       ?UnAssignSounds@aiVehicleAmbient@@QAEXXZ 0044a2c0 f   game.obj
 0001:000493a0       ?CalculateDoppler@aiVehicleAmbient@@AAEMM@Z 0044a3a0 f   game.obj
 0001:000493d0       ?CalculateFerrariPitch@aiVehicleAmbient@@AAEMMH@Z 0044a3d0 f   game.obj
 0001:000495a0       ?UpdateAudio@aiVehicleAmbient@@QAEXXZ 0044a5a0 f   game.obj
 0001:000495d0       ?UpdateAudio@aiVehicleAmbient@@AAEXM@Z 0044a5d0 f   game.obj
 0001:00049960       ?CalculateDistToPlayer2@aiVehicleAmbient@@QAEXXZ 0044a960 f   game.obj
 0001:00049a70       ?CalculateAudioPanning@aiVehicleAmbient@@QAEXXZ 0044aa70 f   game.obj
 0001:00049b00       ?DrawId@aiVehicleAmbient@@UAEXXZ 0044ab00 f   game.obj
 0001:00049b10       ?DrawBBox@aiVehicleAmbient@@QAEXF@Z 0044ab10 f   game.obj
 0001:00049e70       ?PlayVoice@aiVehicleAmbient@@QAEXXZ 0044ae70 f   game.obj
 0001:0004a0c0       ?PlayHorn@aiVehicleAmbient@@QAEXXZ 0044b0c0 f   game.obj
 0001:0004a310       ?PlayHorn@aiVehicleAmbient@@UAEXMM@Z 0044b310 f   game.obj
 0001:0004a400       ?PlayTrippleHorn@aiVehicleAmbient@@QAEXM@Z 0044b400 f   game.obj
 0001:0004a4e0       ?UpdateHorn@aiVehicleAmbient@@QAEXXZ 0044b4e0 f   game.obj
 0001:0004a780       ?StopVoice@aiVehicleAmbient@@UAEXXZ 0044b780 f   game.obj
 0001:0004a7c0       ?UpdateAudImpactReaction@aiVehicleAmbient@@QAEXXZ 0044b7c0 f   game.obj
 0001:0004a800       ?ImpactAudioReaction@aiVehicleAmbient@@UAEXM@Z 0044b800 f   game.obj
 0001:0004a860       ?ImpactAudioReaction@aiVehicleAmbient@@AAEXXZ 0044b860 f   game.obj
 0001:0004a940       ?PlayDoubleHorn@aiVehicleAmbient@@QAEXM@Z 0044b940 f   game.obj
 0001:0004aa10       ?AddToAiAudMgr@aiVehicleAmbient@@AAEXXZ 0044ba10 f   game.obj
 0001:0004aaf0       ?SetAudioMaxDistance@aiVehicleAmbient@@SAXM@Z 0044baf0 f   game.obj
 0001:0004ab10       ?UpdateDSound3DAudio@aiVehicleAmbient@@AAEXXZ 0044bb10 f   game.obj
 0001:0004ad50       ?AssignSounds@aiVehicleAmbient@@QAEXPAVAudSound@@00PAVmmOpponentImpactAudio@@@Z 0044bd50 f   game.obj
 0001:0004aea0       ?GetSecsSinceImpactReaction@aiVehicleAmbient@@SAMXZ 0044bea0 f   game.obj
 0001:0004aeb0       ?Dump@aiVehicleAmbient@@QAEXXZ 0044beb0 f   game.obj
 0001:0004af10       ?GetImpactAudioPtr@aiVehicleAmbient@@UAEPAVmmOpponentImpactAudio@@XZ 0044bf10 f   game.obj
 0001:0004b000       ?AMBIENTCB@@YAXPAVaiVehicleActive@@PAVasBound@@PAVmmIntersection@@PAVVector3@@M@Z 0044c000 f   game.obj
 0001:0004b190       ?Draw@aiVehicleInstance@@UAIXH@Z 0044c190 f   game.obj
 0001:0004b9c0       ?DrawGlow@aiVehicleInstance@@UAIXXZ 0044c9c0 f   game.obj
 0001:0004ba10       ?DrawShadow@aiVehicleInstance@@UAIXXZ 0044ca10 f   game.obj
 0001:0004bab0       ?GetEntity@aiVehicleInstance@@UAEPAVmmPhysEntity@@XZ 0044cab0 f   game.obj
 0001:0004bae0       ?AttachEntity@aiVehicleInstance@@UAEPAVmmPhysEntity@@XZ 0044cae0 f   game.obj
 0001:0004bb40       ?GetVelocity@aiVehicleInstance@@UAE?AVVector3@@XZ 0044cb40 f   game.obj
 0001:0004bbf0       ?FromMatrix@aiVehicleInstance@@UAIXABVMatrix34@@@Z 0044cbf0 f   game.obj
 0001:0004bc00       ?ToMatrix@aiVehicleInstance@@UAIAAVMatrix34@@AAV2@@Z 0044cc00 f   game.obj
 0001:0004bc10       ?GetPos@aiVehicleInstance@@UAIAAVVector3@@XZ 0044cc10 f   game.obj
 0001:0004bc20       ??0aiVehicleActive@@QAE@XZ 0044cc20 f   game.obj
 0001:0004bd10       ?Init@aiVehicleActive@@QAEXPAD@Z 0044cd10 f   game.obj
 0001:0004bfc0       ??1aiVehicleActive@@UAE@XZ 0044cfc0 f   game.obj
 0001:0004c0b0       ?Update@aiVehicleActive@@UAEXXZ 0044d0b0 f   game.obj
 0001:0004c120       ?PostUpdate@aiVehicleActive@@UAEXXZ 0044d120 f   game.obj
 0001:0004c1a0       ?UpdateDamage@aiVehicleActive@@QAEXXZ 0044d1a0 f   game.obj
 0001:0004c200       ?Init@aiVehicleManager@@QAEXPAD@Z 0044d200 f   game.obj
 0001:0004c230       ?Reset@aiVehicleManager@@UAEXXZ 0044d230 f   game.obj
 0001:0004c270       ?Attach@aiVehicleManager@@QAEPAVaiVehicleActive@@PAVaiVehicleInstance@@@Z 0044d270 f   game.obj
 0001:0004c330       ?Detach@aiVehicleManager@@QAEXPAVaiVehicleActive@@@Z 0044d330 f   game.obj
 0001:0004c3c0       ?Update@aiVehicleManager@@UAEXXZ 0044d3c0 f   game.obj
 0001:0004c4b0       ?LoadEntry@aiVehicleData@@QAEHPAD@Z 0044d4b0 f   game.obj
 0001:0004c670       ?GetData@aiVehicleInstance@@QAEPAVaiVehicleData@@XZ 0044d670 f   game.obj
 0001:0004c690       ?AddVehicleDataEntry@aiVehicleManager@@QAEHPAD@Z 0044d690 f   game.obj
 0001:0004c9a0       ?Save@aiVehicleManager@@UAEXXZ 0044d9a0 f   game.obj
 0001:0004c9d0       ?AddWidgets@aiVehicleManager@@UAEXPAVBank@@@Z 0044d9d0 f   game.obj
 0001:0004c9e0       ?AddWidgets@aiVehicleData@@UAEXPAVBank@@@Z 0044d9e0 f   game.obj
 0001:0004cc60       ?DeclareFields@aiVehicleInstance@@SAXXZ 0044dc60 f   game.obj
 0001:0004ccb0       ?delete_aiVehicleInstance@@YAXPAXH@Z 0044dcb0 f   game.obj
 0001:0004cd00       ?GetClass@aiVehicleInstance@@UAEPAVMetaClass@@XZ 0044dd00 f   game.obj
 0001:0004cd10       ?DeclareFields@aiVehicleData@@SAXXZ 0044dd10 f   game.obj
 0001:0004cf20       ?new_aiVehicleData@@YAPAXH@Z 0044df20 f   game.obj
 0001:0004cff0       ?delete_aiVehicleData@@YAXPAXH@Z 0044dff0 f   game.obj
 0001:0004d040       ?GetClass@aiVehicleData@@UAEPAVMetaClass@@XZ 0044e040 f   game.obj
 0001:0004d110       ??0aiVehicleData@@QAE@XZ   0044e110 f   game.obj
 0001:0004d130       ?GetBound@aiVehicleActive@@UAEPAVasBound@@XZ 0044e130 f   game.obj
 0001:0004d140       ?GetICS@aiVehicleActive@@UAEPAVasInertialCS@@XZ 0044e140 f   game.obj
 0001:0004d150       ??0aiRailSet@@QAE@XZ       0044e150 f   game.obj
 0001:0004d250       ?CalcRailPosition@aiRailSet@@QAEXAAVVector3@@M@Z 0044e250 f   game.obj
 0001:0004dc60       ?CalcCopRailPosition@aiRailSet@@QAEHAAVVector3@@0MM@Z 0044ec60 f   game.obj
 0001:000500b0       ?CalcRailState@aiRailSet@@QAEHM@Z 004510b0 f   game.obj
 0001:000506c0       ?CalcRailLength@aiRailSet@@QAEMXZ 004516c0 f   game.obj
 0001:00050bb0       ?CalcTurnIntersection@aiRailSet@@QAEXAAVVector3@@HPAVaiPath@@1@Z 00451bb0 f   game.obj
 0001:00050fc0       ?DrawTurn@aiRailSet@@QAEXM@Z 00451fc0 f   game.obj
 0001:00051da0       ?CalcRailPosOrient@aiRailSet@@QAEXAAVVector3@@0M@Z 00452da0 f   game.obj
 0001:00052940       ?SolveTurnType@aiRailSet@@QAEHPAVaiPath@@0@Z 00453940 f   game.obj
 0001:00052b00       ?CalcXZPosition@aiRailSet@@QAEXAAVVector3@@0000M@Z 00453b00 f   game.obj
 0001:00052c10       ?CalcXZDirection@aiRailSet@@QAEXAAVVector3@@0000M@Z 00453c10 f   game.obj
 0001:00052d30       ?CalcXZPosOrient@aiRailSet@@QAEXAAVVector3@@00000M@Z 00453d30 f   game.obj
 0001:00052e70       ?ComputeXZCurve@aiRailSet@@QAEXAAVVector3@@000@Z 00453e70 f   game.obj
 0001:00052f20       ?ComputeXZCurve@aiRailSet@@QAEXAAVVector3@@000AAVVector4@@1@Z 00453f20 f   game.obj
 0001:00052fc0       ?SolveXZCurve@aiRailSet@@QAEXAAVVector3@@0M@Z 00453fc0 f   game.obj
 0001:00053050       ?Dump@aiRailSet@@QAEXXZ    00454050 f   game.obj
 0001:00053290       ??D@YA?AVVector3@@MABV0@@Z 00454290 f   game.obj
 0001:000532d0       ?LBoundary@aiPath@@QAEPAVVector3@@H@Z 004542d0 f   game.obj
 0001:00053320       ??0aiVehicleSpline@@QAE@XZ 00454320 f   game.obj
 0001:00053390       ??1aiVehicleSpline@@QAE@XZ 00454390 f   game.obj
 0001:00053400       ?Init@aiVehicleSpline@@QAEXPADH@Z 00454400 f   game.obj
 0001:000536f0       ?Reset@aiVehicleSpline@@UAEXXZ 004546f0 f   game.obj
 0001:00053730       ?Update@aiVehicleSpline@@UAEXXZ 00454730 f   game.obj
 0001:00053780       ?ResetReactTicks@aiVehicleSpline@@QAEXXZ 00454780 f   game.obj
 0001:000537e0       ?SolvePositionAndOrientation@aiVehicleSpline@@QAEXXZ 004547e0 f   game.obj
 0001:00053ef0       ?SolveYPositionAndOrientation@aiVehicleSpline@@QAEXXZ 00454ef0 f   game.obj
 0001:00054480       ?DetectPlayerZoneCollision@aiVehicleSpline@@QAEHXZ 00455480 f   game.obj
 0001:00054670       ?IsThePlayerInFrontOfMe@aiVehicleSpline@@QAEHXZ 00455670 f   game.obj
 0001:00054770       ?IsAmbientBlockingPlayer@aiVehicleSpline@@QAEHXZ 00455770 f   game.obj
 0001:00054860       ?TotLength@aiVehicleSpline@@QAEMXZ 00455860 f   game.obj
 0001:00054870       ?DistanceToVehicle@aiVehicleSpline@@QAEMPAV1@@Z 00455870 f   game.obj
 0001:00054b50       ?DistanceToIntersection@aiVehicleSpline@@QAEMXZ 00455b50 f   game.obj
 0001:00054bf0       ?Dump@aiVehicleSpline@@QAEXXZ 00455bf0 f   game.obj
 0001:00054d50       ?DrawId@aiVehicleSpline@@UAEXXZ 00455d50 f   game.obj
 0001:00054da0       ?DeclareFields@aiVehicleSpline@@SAXXZ 00455da0 f   game.obj
 0001:00054df0       ?new_aiVehicleSpline@@YAPAXH@Z 00455df0 f   game.obj
 0001:00054ec0       ?delete_aiVehicleSpline@@YAXPAXH@Z 00455ec0 f   game.obj
 0001:00054f30       ?GetClass@aiVehicleSpline@@UAEPAVMetaClass@@XZ 00455f30 f   game.obj
 0001:00054f40       ?Scale@Vector3@@QAEXABV1@M@Z 00455f40 f   game.obj
 0001:00054f70       ?Type@aiVehicleSpline@@UAEHXZ 00455f70 f   game.obj
 0001:00054fa0       ??0AddOnCarAudio@@QAE@PADF@Z 00455fa0 f   game.obj
 0001:000550d0       ??1AddOnCarAudio@@QAE@XZ   004560d0 f   game.obj
 0001:00055120       ?GetEngineSoundPtr@AddOnCarAudio@@QAEPAVAudSound@@F@Z 00456120 f   game.obj
 0001:00055140       ?EchoOn@AddOnCarAudio@@QAEXM@Z 00456140 f   game.obj
 0001:00055190       ?EchoOff@AddOnCarAudio@@QAEXXZ 00456190 f   game.obj
 0001:000551c0       ?Update@AddOnCarAudio@@QAEXXZ 004561c0 f   game.obj
 0001:000551f0       ??0aiGoalRandomDrive@@QAE@PAVaiRailSet@@PAVaiVehicleSpline@@@Z 004561f0 f   game.obj
 0001:000552b0       ?Init@aiGoalRandomDrive@@UAEXXZ 004562b0 f   game.obj
 0001:000552d0       ?Reset@aiGoalRandomDrive@@UAEXXZ 004562d0 f   game.obj
 0001:00055d20       ?Update@aiGoalRandomDrive@@UAEXXZ 00456d20 f   game.obj
 0001:00055e40       ?Context@aiGoalRandomDrive@@UAEHXZ 00456e40 f   game.obj
 0001:00055e60       ?Priority@aiGoalRandomDrive@@UAEHXZ 00456e60 f   game.obj
 0001:00055e70       ?SolveVelocity@aiGoalRandomDrive@@AAEXXZ 00456e70 f   game.obj
 0001:00056600       ?OkayToEnterIntersection@aiGoalRandomDrive@@AAEHXZ 00457600 f   game.obj
 0001:00056810       ?AnyVehiclesComingThisWay@aiGoalRandomDrive@@AAEHXZ 00457810 f   game.obj
 0001:00056a20       ?AvoidCollision@aiGoalRandomDrive@@AAEXPAVaiVehicleSpline@@M@Z 00457a20 f   game.obj
 0001:00056c50       ?SolveRailType@aiGoalRandomDrive@@AAEXXZ 00457c50 f   game.obj
 0001:00057a60       ?SolveLane@aiGoalRandomDrive@@AAEXXZ 00458a60 f   game.obj
 0001:00057b50       ?ChangeLanes@aiGoalRandomDrive@@AAEXXZ 00458b50 f   game.obj
 0001:00058040       ?Dump@aiGoalRandomDrive@@QAEXXZ 00459040 f   game.obj
 0001:00058070       ?Init@aiGoalStop@@UAEXXZ   00459070 f   game.obj
 0001:00058080       ??0aiGoalChase@@QAE@PAVaiVehiclePolice@@PAVaiRailSet@@PAPAVmmCar@@PAFPAVVector3@@3@Z 00459080 f   game.obj
 0001:00058130       ??1aiGoalChase@@QAE@XZ     00459130 f   game.obj
 0001:00058180       ?Init@aiGoalChase@@UAEXXZ  00459180 f   game.obj
 0001:00058290       ?Reset@aiGoalChase@@UAEXXZ 00459290 f   game.obj
 0001:00058440       ?Context@aiGoalChase@@UAEHXZ 00459440 f   game.obj
 0001:000587e0       ?Fov@aiGoalChase@@AAEHPAVmmCar@@@Z 004597e0 f   game.obj
 0001:00058970       ?HitMe@aiGoalChase@@AAEHPAVmmCar@@@Z 00459970 f   game.obj
 0001:00058990       ?IsPerpACop@aiGoalChase@@AAEHPAVmmCar@@@Z 00459990 f   game.obj
 0001:000589b0       ?OffRoad@aiGoalChase@@AAEHPAVmmCar@@@Z 004599b0 f   game.obj
 0001:00058a80       ?Update@aiGoalChase@@UAEXXZ 00459a80 f   game.obj
 0001:000596d0       ?PlanRoute@aiGoalChase@@AAEHXZ 0045a6d0 f   game.obj
 0001:00059770       ?LocatePerpFromRoad@aiGoalChase@@AAEHPAVaiPath@@PAPAV2@1@Z 0045a770 f   game.obj
 0001:00059e40       ?LocatePerpFromInt@aiGoalChase@@AAEHPAVaiIntersection@@PAPAVaiPath@@@Z 0045ae40 f   game.obj
 0001:0005a0a0       ?FindPerp@aiGoalChase@@AAEHHHPAVaiPath@@@Z 0045b0a0 f   game.obj
 0001:0005a1d0       ?DetectCopCollision@aiGoalChase@@AAEPAVaiVehiclePolice@@XZ 0045b1d0 f   game.obj
 0001:0005a310       ?AvoidCopCollision@aiGoalChase@@AAEXPAVaiVehiclePolice@@@Z 0045b310 f   game.obj
 0001:0005a5e0       ?CalcSpeed@aiGoalChase@@AAEXM@Z 0045b5e0 f   game.obj
 0001:0005ad60       ?CloseInRoad@aiGoalChase@@AAEXXZ 0045bd60 f   game.obj
 0001:0005b240       ?CloseInOpenArea@aiGoalChase@@AAEXXZ 0045c240 f   game.obj
 0001:0005b720       ?Barricade@aiGoalChase@@AAEXXZ 0045c720 f   game.obj
 0001:0005bbb0       ?Block@aiGoalChase@@AAEXXZ 0045cbb0 f   game.obj
 0001:0005bfc0       ?Push@aiGoalChase@@AAEXXZ  0045cfc0 f   game.obj
 0001:0005c1b0       ?DetectAmbientCollision@aiGoalChase@@AAEHPAH@Z 0045d1b0 f   game.obj
 0001:0005d0c0       ?AddToBlockedRange@aiGoalChase@@AAEXMMM@Z 0045e0c0 f   game.obj
 0001:0005d260       ?AvoidAmbientCollision@aiGoalChase@@AAEXH@Z 0045e260 f   game.obj
 0001:0005d4c0       ?ProcessCollision@aiGoalChase@@AAEXH@Z 0045e4c0 f   game.obj
 0001:0005d780       ?Init@aiVehicle@@QAEXH@Z   0045e780 f   game.obj
 0001:0005d790       ?Reset@aiVehicle@@UAEXXZ   0045e790 f   game.obj
 0001:0005d7a0       ?Update@aiVehicle@@UAEXXZ  0045e7a0 f   game.obj
 0001:0005d810       ??0aiGoalFollowWayPts@@QAE@XZ 0045e810 f   game.obj
 0001:0005d870       ??0aiGoalFollowWayPts@@QAE@PADPAVaiRailSet@@PAVaiVehicleOpponent@@PAF330M@Z 0045e870 f   game.obj
 0001:0005e280       ??1aiGoalFollowWayPts@@QAE@XZ 0045f280 f   game.obj
 0001:0005e330       ?Init@aiGoalFollowWayPts@@UAEXXZ 0045f330 f   game.obj
 0001:0005e720       ?Priority@aiGoalFollowWayPts@@UAEHXZ 0045f720 f   game.obj
 0001:0005e730       ?Reset@aiGoalFollowWayPts@@UAEXXZ 0045f730 f   game.obj
 0001:0005e820       ?DetectOpponentCollision@aiGoalFollowWayPts@@AAEPAVaiVehicleOpponent@@XZ 0045f820 f   game.obj
 0001:0005e9c0       ?AvoidOpponentCollision@aiGoalFollowWayPts@@AAEXPAVaiVehicleOpponent@@@Z 0045f9c0 f   game.obj
 0001:0005ee30       ?PlanRoute@aiGoalFollowWayPts@@AAEXXZ 0045fe30 f   game.obj
 0001:0005f060       ?LocateWayPtFromRoad@aiGoalFollowWayPts@@AAEHPAVaiPath@@PAPAV2@1@Z 00460060 f   game.obj
 0001:0005f6e0       ?LocateWayPtFromInt@aiGoalFollowWayPts@@AAEHPAVaiIntersection@@PAPAVaiPath@@@Z 004606e0 f   game.obj
 0001:0005f7c0       ?DetRdSegBetweenInts@aiGoalFollowWayPts@@AAEPAVaiPath@@PAVaiIntersection@@0@Z 004607c0 f   game.obj
 0001:0005f850       ?DetectCollision@aiGoalFollowWayPts@@AAEHPAH@Z 00460850 f   game.obj
 0001:00060480       ?AddToBlockedRange@aiGoalFollowWayPts@@AAEXMMM@Z 00461480 f   game.obj
 0001:00060620       ?AvoidCollision@aiGoalFollowWayPts@@AAEXH@Z 00461620 f   game.obj
 0001:00060af0       ?CalcSpeed@aiGoalFollowWayPts@@AAEXXZ 00461af0 f   game.obj
 0001:00061790       ?SolveTargetPoint@aiGoalFollowWayPts@@AAEXXZ 00462790 f   game.obj
 0001:000617e0       ?Dump@aiGoalFollowWayPts@@QAEXXZ 004627e0 f   game.obj
 0001:00061a60       ?AddWidgets@aiGoalFollowWayPts@@QAEXPAVBank@@@Z 00462a60 f   game.obj
 0001:00061ac0       ?DeclareFields@aiGoalFollowWayPts@@SAXXZ 00462ac0 f   game.obj
 0001:00061b10       ?new_aiGoalFollowWayPts@@YAPAXH@Z 00462b10 f   game.obj
 0001:00061be0       ?delete_aiGoalFollowWayPts@@YAXPAXH@Z 00462be0 f   game.obj
 0001:00061c50       ?GetClass@aiGoalFollowWayPts@@UAEPAVMetaClass@@XZ 00462c50 f   game.obj
 0001:00061c60       ??0aiGoalAvoidPlayer@@QAE@PAVaiRailSet@@PAVaiVehicleAmbient@@@Z 00462c60 f   game.obj
 0001:00061c90       ?Init@aiGoalAvoidPlayer@@UAEXXZ 00462c90 f   game.obj
 0001:00061ca0       ?Reset@aiGoalAvoidPlayer@@UAEXXZ 00462ca0 f   game.obj
 0001:00061e10       ?Update@aiGoalAvoidPlayer@@UAEXXZ 00462e10 f   game.obj
 0001:00061fe0       ?AvoidPlayer@aiGoalAvoidPlayer@@AAEXXZ 00462fe0 f   game.obj
 0001:00062250       ?Context@aiGoalAvoidPlayer@@UAEHXZ 00463250 f   game.obj
 0001:00062270       ?Priority@aiGoalAvoidPlayer@@UAEHXZ 00463270 f   game.obj
 0001:00062280       ?Dump@aiGoalAvoidPlayer@@QAEXXZ 00463280 f   game.obj
 0001:000622d0       ??0aiGoalRegainRail@@QAE@PAVaiRailSet@@PAVaiVehicleSpline@@@Z 004632d0 f   game.obj
 0001:00062300       ?Init@aiGoalRegainRail@@UAEXXZ 00463300 f   game.obj
 0001:00062320       ?Reset@aiGoalRegainRail@@UAEXXZ 00463320 f   game.obj
 0001:000629d0       ?Update@aiGoalRegainRail@@UAEXXZ 004639d0 f   game.obj
 0001:00062ae0       ?Context@aiGoalRegainRail@@UAEHXZ 00463ae0 f   game.obj
 0001:00062b00       ?Priority@aiGoalRegainRail@@UAEHXZ 00463b00 f   game.obj
 0001:00062b10       ?Dump@aiGoalRegainRail@@QAEXXZ 00463b10 f   game.obj
 0001:00062b90       ??0aiGoalCollision@@QAE@PAVaiRailSet@@PAVaiVehicleSpline@@@Z 00463b90 f   game.obj
 0001:00062bc0       ?Init@aiGoalCollision@@UAEXXZ 00463bc0 f   game.obj
 0001:00062bd0       ?Reset@aiGoalCollision@@UAEXXZ 00463bd0 f   game.obj
 0001:00062be0       ?Update@aiGoalCollision@@UAEXXZ 00463be0 f   game.obj
 0001:00062c60       ?Context@aiGoalCollision@@UAEHXZ 00463c60 f   game.obj
 0001:00062c80       ?Priority@aiGoalCollision@@UAEHXZ 00463c80 f   game.obj
 0001:00062c90       ??0aiStuck@@QAE@XZ         00463c90 f   game.obj
 0001:00062d00       ?StuckCB@@YAXPAVaiStuck@@@Z 00463d00 f   game.obj
 0001:00062d30       ?Init@aiStuck@@QAEXPAVmmCarSim@@@Z 00463d30 f   game.obj
 0001:00062d50       ?Reset@aiStuck@@UAEXXZ     00463d50 f   game.obj
 0001:00062d60       ?Pegged@aiStuck@@QAEHXZ    00463d60 f   game.obj
 0001:00062dd0       ?Update@aiStuck@@UAEXXZ    00463dd0 f   game.obj
 0001:00062ff0       ?AddWidgets@aiStuck@@UAEXPAVBank@@@Z 00463ff0 f   game.obj
 0001:00063150       ?IMPACTCB@@YAXPAVmmCarSim@@PAVasBound@@PAVmmIntersection@@PAVVector3@@M3@Z 00464150 f   game.obj
 0001:000631b0       ??0mmCarSim@@QAE@XZ        004641b0 f   game.obj
 0001:00063850       ?OnGround@mmCarSim@@QAEHXZ 00464850 f   game.obj
 0001:00063890       ??1mmCarSim@@UAE@XZ        00464890 f   game.obj
 0001:00063b90       ?AddPlayerSpecifics@mmCarSim@@QAEXXZ 00464b90 f   game.obj
 0001:00063c10       ?PlayHorn@mmCarSim@@QAEXXZ 00464c10 f   game.obj
 0001:00063c80       ?StopHorn@mmCarSim@@QAEXXZ 00464c80 f   game.obj
 0001:00063cf0       ?StartSiren@mmCarSim@@QAEXXZ 00464cf0 f   game.obj
 0001:00063d20       ?StopSiren@mmCarSim@@QAEXXZ 00464d20 f   game.obj
 0001:00063d50       ?Init@mmCarSim@@QAEXPADPAVmmCar@@H@Z 00464d50 f   game.obj
 0001:00064370       ?ReInit@mmCarSim@@QAEXPAD@Z 00465370 f   game.obj
 0001:00064870       ?ReconfigureDrivetrain@mmCarSim@@QAEXXZ 00465870 f   game.obj
 0001:00064890       ?ConfigureDrivetrain@mmCarSim@@QAEXXZ 00465890 f   game.obj
 0001:00064b10       ?UnconfigureDrivetrain@mmCarSim@@QAEXXZ 00465b10 f   game.obj
 0001:00064d10       ?AfterLoad@mmCarSim@@UAEXXZ 00465d10 f   game.obj
 0001:00064dd0       ?BeforeSave@mmCarSim@@UAEXXZ 00465dd0 f   game.obj
 0001:00064e50       ?UpdateICSParams@mmCarSim@@QAEXXZ 00465e50 f   game.obj
 0001:00064e80       ?Reset@mmCarSim@@UAEXXZ    00465e80 f   game.obj
 0001:00065030       ?Update@mmCarSim@@UAEXXZ   00466030 f   game.obj
 0001:00065850       ?Explode@mmCarSim@@QAEXXZ  00466850 f   game.obj
 0001:00065930       ?UpdateExhaust@mmCarSim@@QAEXXZ 00466930 f   game.obj
 0001:00065a40       ?UpdateDamage@mmCarSim@@QAEXXZ 00466a40 f   game.obj
 0001:00065cf0       ?UpdateFF@mmCarSim@@QAEXXZ 00466cf0 f   game.obj
 0001:00065fb0       ?RemoveNetVehicleAudio@mmCarSim@@QAEXXZ 00466fb0 f   game.obj
 0001:00065fc0       ?AddWidgets@mmCarSim@@UAEXPAVBank@@@Z 00466fc0 f   game.obj
 0001:00066d30       ?InitPtx@mmCarSim@@QAEXXZ  00467d30 f   game.obj
 0001:00067220       ?PlayImpactAudio@mmCarSim@@QAEXFPAVmmIntersection@@PAVVector3@@@Z 00468220 f   game.obj
 0001:00067340       ?DeclareFields@mmCarSim@@SAXXZ 00468340 f   game.obj
 0001:00067800       ?new_mmCarSim@@YAPAXH@Z    00468800 f   game.obj
 0001:000678d0       ?delete_mmCarSim@@YAXPAXH@Z 004688d0 f   game.obj
 0001:00067920       ?GetClass@mmCarSim@@UAEPAVMetaClass@@XZ 00468920 f   game.obj
 0001:00067990       ??0mmTransmission@@QAE@XZ  00468990 f   game.obj
 0001:00067a60       ?Init@mmTransmission@@QAEXPAVmmCarSim@@@Z 00468a60 f   game.obj
 0001:00067aa0       ?Reset@mmTransmission@@UAEXXZ 00468aa0 f   game.obj
 0001:00067ad0       ?Upshift@mmTransmission@@QAEHXZ 00468ad0 f   game.obj
 0001:00067b00       ?Downshift@mmTransmission@@QAEHXZ 00468b00 f   game.obj
 0001:00067b20       ?Update@mmTransmission@@UAEXXZ 00468b20 f   game.obj
 0001:00067c20       ?CopyTrans@mmTransmission@@QAEXXZ 00468c20 f   game.obj
 0001:00067c50       ?Automatic@mmTransmission@@QAEXH@Z 00468c50 f   game.obj
 0001:00067c70       ?SetReverse@mmTransmission@@QAEXXZ 00468c70 f   game.obj
 0001:00067c80       ?SetDrive@mmTransmission@@QAEXXZ 00468c80 f   game.obj
 0001:00067ca0       ?GetCurrentGear@mmTransmission@@QAEHXZ 00468ca0 f   game.obj
 0001:00067cb0       ?SetCurrentGear@mmTransmission@@QAEHH@Z 00468cb0 f   game.obj
 0001:00067cf0       ?AddWidgets@mmTransmission@@UAEXPAVBank@@@Z 00468cf0 f   game.obj
 0001:00067f90       ?DeclareFields@mmTransmission@@SAXXZ 00468f90 f   game.obj
 0001:000680c0       ?new_mmTransmission@@YAPAXH@Z 004690c0 f   game.obj
 0001:00068190       ?delete_mmTransmission@@YAXPAXH@Z 00469190 f   game.obj
 0001:000681e0       ?GetClass@mmTransmission@@UAEPAVMetaClass@@XZ 004691e0 f   game.obj
 0001:000681f0       ?ArrayOf@@YAPAUMetaType@@PAU1@H@Z 004691f0 f   game.obj
 0001:00068280       ?SetClearSurfaceAudioInfos@@YAXXZ 00469280 f   game.obj
 0001:000684e0       ?SetRainSurfaceAudioInfos@@YAXXZ 004694e0 f   game.obj
 0001:00068740       ?SetSnowSurfaceAudioInfos@@YAXXZ 00469740 f   game.obj
 0001:000689c0       ?FromMatrix@mmCarModel@@UAIXABVMatrix34@@@Z 004699c0 f   game.obj
 0001:000689e0       ?ToMatrix@mmCarModel@@UAIAAVMatrix34@@AAV2@@Z 004699e0 f   game.obj
 0001:000689f0       ?GetPos@mmCarModel@@UAIAAVVector3@@XZ 004699f0 f   game.obj
 0001:00068a00       ?Impact@mmCarModel@@QAEXPAVVector3@@@Z 00469a00 f   game.obj
 0001:00068b40       ?EjectWheels@mmCarModel@@QAEXH@Z 00469b40 f   game.obj
 0001:00068c90       ?EjectPart@mmCarModel@@QAEXPAVmmWheel@@FFH@Z 00469c90 f   game.obj
 0001:00068f30       ?Draw@mmCarModel@@UAIXH@Z  00469f30 f   game.obj
 0001:00069de0       ?DrawGlow@mmCarModel@@UAIXXZ 0046ade0 f   game.obj
 0001:00069e70       ?DrawShadow@mmCarModel@@UAIXXZ 0046ae70 f   game.obj
 0001:00069ec0       ?InitDamage@mmCarModel@@QAEXXZ 0046aec0 f   game.obj
 0001:00069f20       ?ClearDamage@mmCarModel@@QAEXH@Z 0046af20 f   game.obj
 0001:0006a010       ?ApplyDamage@mmCarModel@@QAEXAAVVector3@@M@Z 0046b010 f   game.obj
 0001:0006a040       ?Init@mmCarModel@@QAEXPADPAVmmCar@@H@Z 0046b040 f   game.obj
 0001:0006a300       ?DashActivated@mmCarModel@@QAEXXZ 0046b300 f   game.obj
 0001:0006a310       ?DashDeactivated@mmCarModel@@QAEXXZ 0046b310 f   game.obj
 0001:0006a320       ?Activate@mmCarModel@@QAEXXZ 0046b320 f   game.obj
 0001:0006a330       ?Deactivate@mmCarModel@@QAEXXZ 0046b330 f   game.obj
 0001:0006a350       ?AddWidgets@mmCarModel@@UAEXPAVBank@@@Z 0046b350 f   game.obj
 0001:0006a370       ?DeclareFields@mmCarModel@@SAXXZ 0046b370 f   game.obj
 0001:0006a3c0       ?new_mmCarModel@@YAPAXH@Z  0046b3c0 f   game.obj
 0001:0006a4a0       ?delete_mmCarModel@@YAXPAXH@Z 0046b4a0 f   game.obj
 0001:0006a4f0       ?GetClass@mmCarModel@@UAEPAVMetaClass@@XZ 0046b4f0 f   game.obj
 0001:0006a500       ?GetEntity@mmCarModel@@UAEPAVmmPhysEntity@@XZ 0046b500 f   game.obj
 0001:0006a510       ?AttachEntity@mmCarModel@@UAEPAVmmPhysEntity@@XZ 0046b510 f   game.obj
 0001:0006a520       ?GetVelocity@mmCarModel@@UAE?AVVector3@@XZ 0046b520 f   game.obj
 0001:0006a550       ?Reset@mmCarModel@@UAEXXZ  0046b550 f   game.obj
 0001:0006a560       ?Init@mmCar@@QAEXPADHH@Z   0046b560 f   game.obj
 0001:0006a990       ?Impact@mmCar@@QAEXPAVmmIntersection@@PAVVector3@@MH1@Z 0046b990 f   game.obj
 0001:0006adb0       ?VehNameRemap@mmCar@@QAEPADPADH@Z 0046bdb0 f   game.obj
 0001:0006b050       ?AddWidgets@mmCar@@UAEXPAVBank@@@Z 0046c050 f   game.obj
 0001:0006b0b0       ?DeclareFields@mmCar@@SAXXZ 0046c0b0 f   game.obj
 0001:0006b100       ?new_mmCar@@YAPAXH@Z       0046c100 f   game.obj
 0001:0006b1e0       ?delete_mmCar@@YAXPAXH@Z   0046c1e0 f   game.obj
 0001:0006b230       ?GetClass@mmCar@@UAEPAVMetaClass@@XZ 0046c230 f   game.obj
 0001:0006b240       ??0mmWheelCheap@@QAE@XZ    0046c240 f   game.obj
 0001:0006b310       ?Update@mmWheelCheap@@UAEXXZ 0046c310 f   game.obj
 0001:0006ba70       ?Reset@mmWheelCheap@@UAEXXZ 0046ca70 f   game.obj
 0001:0006bac0       ??0NetAudioManager@@QAE@XZ 0046cac0 f   game.obj
 0001:0006bc10       ??1NetAudioManager@@UAE@XZ 0046cc10 f   game.obj
 0001:0006bf40       ?AddVehicle@NetAudioManager@@QAEFPAVmmNetworkCarAudio@@@Z 0046cf40 f   game.obj
 0001:0006bfd0       ?RemoveVehicle@NetAudioManager@@QAEXPAVmmNetworkCarAudio@@F@Z 0046cfd0 f   game.obj
 0001:0006c030       ?FindGreatestDistance@NetAudioManager@@QAEFPAVmmNetworkCarAudio@@@Z 0046d030 f   game.obj
 0001:0006c0d0       ?FindUnusedSlot@NetAudioManager@@QAEFXZ 0046d0d0 f   game.obj
 0001:0006c110       ?Update@NetAudioManager@@UAEXXZ 0046d110 f   game.obj
 0001:0006c2d0       ?EchoOn@NetAudioManager@@QAEXM@Z 0046d2d0 f   game.obj
 0001:0006c640       ?EchoOff@NetAudioManager@@QAEXXZ 0046d640 f   game.obj
 0001:0006c7d0       ?AssignSounds@NetAudioManager@@QAEXPAVmmNetworkCarAudio@@F@Z 0046d7d0 f   game.obj
 0001:0006d110       ?AssignAddOnSounds@NetAudioManager@@AAEXPAVmmNetworkCarAudio@@F@Z 0046e110 f   game.obj
 0001:0006d330       ?GetAvailableDistance@NetAudioManager@@QAEMXZ 0046e330 f   game.obj
 0001:0006d370       ?AllocateEngine@NetAudioManager@@QAEXF@Z 0046e370 f   game.obj
 0001:0006d4f0       ?AllocateAddOnEngine@NetAudioManager@@QAEFPAD@Z 0046e4f0 f   game.obj
 0001:0006d6c0       ?AllocateEngine@NetAudioManager@@QAEPAPAVAudSound@@PAD@Z 0046e6c0 f   game.obj
 0001:0006d7f0       ?AllocateReverseBeep@NetAudioManager@@QAEXXZ 0046e7f0 f   game.obj
 0001:0006d940       ?AllocateHorn@NetAudioManager@@QAEXF@Z 0046e940 f   game.obj
 0001:0006db30       ?AllocateSkids@NetAudioManager@@QAEXXZ 0046eb30 f   game.obj
 0001:0006ddb0       ?AllocateImpacts@NetAudioManager@@QAEXXZ 0046edb0 f   game.obj
 0001:0006de40       ?AllocatePoliceSiren@NetAudioManager@@QAEXXZ 0046ee40 f   game.obj
 0001:0006dfe0       ?SetSoundPtr@EngineAudioOpponent@@QAEXPAVAudSound@@@Z 0046efe0 f   game.obj
 0001:0006e020       ??0mmSkid@@QAE@XZ          0046f020 f   game.obj
 0001:0006e040       ?Init@mmSkid@@QAEXPAD@Z    0046f040 f   game.obj
 0001:0006e060       ?AddSkid@mmSkid@@QAEXAAVMatrix34@@PAVVector3@@PAVagiPhysParameters@@M@Z 0046f060 f   game.obj
 0001:0006e220       ?ToMatrix@mmSkid@@UAIAAVMatrix34@@AAV2@@Z 0046f220 f   game.obj
 0001:0006e230       ?GetPos@mmSkid@@UAIAAVVector3@@XZ 0046f230 f   game.obj
 0001:0006e240       ?Draw@mmSkid@@UAIXH@Z      0046f240 f   game.obj
 0001:0006e2d0       ??0mmSkidManager@@QAE@XZ   0046f2d0 f   game.obj
 0001:0006e300       ??1mmSkidManager@@UAE@XZ   0046f300 f   game.obj
 0001:0006e360       ?Init@mmSkidManager@@QAEXPADHPAVmmWheel@@@Z 0046f360 f   game.obj
 0001:0006e420       ?ReInit@mmSkidManager@@QAEXPAVmmWheel@@@Z 0046f420 f   game.obj
 0001:0006e450       ?Reset@mmSkidManager@@UAEXXZ 0046f450 f   game.obj
 0001:0006e4a0       ?LayTrack@mmSkidManager@@QAEXXZ 0046f4a0 f   game.obj
 0001:0006e830       ?DeclareFields@mmSkid@@SAXXZ 0046f830 f   game.obj
 0001:0006e880       ?new_mmSkid@@YAPAXH@Z      0046f880 f   game.obj
 0001:0006e960       ?delete_mmSkid@@YAXPAXH@Z  0046f960 f   game.obj
 0001:0006e9b0       ?GetClass@mmSkid@@UAEPAVMetaClass@@XZ 0046f9b0 f   game.obj
 0001:0006e9c0       ?DeclareFields@mmSkidManager@@SAXXZ 0046f9c0 f   game.obj
 0001:0006ea10       ?new_mmSkidManager@@YAPAXH@Z 0046fa10 f   game.obj
 0001:0006ead0       ?delete_mmSkidManager@@YAXPAXH@Z 0046fad0 f   game.obj
 0001:0006eb20       ?GetClass@mmSkidManager@@UAEPAVMetaClass@@XZ 0046fb20 f   game.obj
 0001:0006ebf0       ??0mmShard@@QAE@XZ         0046fbf0 f   game.obj
 0001:0006ec30       ?Init@mmShard@@QAEXPADH@Z  0046fc30 f   game.obj
 0001:0006ec60       ?AddShard@mmShard@@QAEXVVector3@@00M@Z 0046fc60 f   game.obj
 0001:0006ecc0       ?Update@mmShard@@QAEXXZ    0046fcc0 f   game.obj
 0001:0006edb0       ?Init@mmShardManager@@QAEXPADHPAVmmCarSim@@@Z 0046fdb0 f   game.obj
 0001:0006eea0       ?EmitShards@mmShardManager@@QAEXVVector3@@MM@Z 0046fea0 f   game.obj
 0001:0006ef10       ?EmitAllShards@mmShardManager@@QAEXVVector3@@M@Z 0046ff10 f   game.obj
 0001:0006ef60       ?EmitShard@mmShardManager@@QAEXVVector3@@M@Z 0046ff60 f   game.obj
 0001:0006f110       ?Update@mmShardManager@@UAEXXZ 00470110 f   game.obj
 0001:0006f140       ?AddWidgets@mmShardManager@@UAEXPAVBank@@@Z 00470140 f   game.obj
 0001:0006f2b0       ?DeclareFields@mmShard@@SAXXZ 004702b0 f   game.obj
 0001:0006f300       ?new_mmShard@@YAPAXH@Z     00470300 f   game.obj
 0001:0006f3e0       ?delete_mmShard@@YAXPAXH@Z 004703e0 f   game.obj
 0001:0006f430       ?GetClass@mmShard@@UAEPAVMetaClass@@XZ 00470430 f   game.obj
 0001:0006f440       ?DeclareFields@mmShardManager@@SAXXZ 00470440 f   game.obj
 0001:0006f4f0       ?new_mmShardManager@@YAPAXH@Z 004704f0 f   game.obj
 0001:0006f5c0       ?delete_mmShardManager@@YAXPAXH@Z 004705c0 f   game.obj
 0001:0006f610       ?GetClass@mmShardManager@@UAEPAVMetaClass@@XZ 00470610 f   game.obj
 0001:0006f680       ??0mmTrailer@@QAE@XZ       00470680 f   game.obj
 0001:0006f8d0       ?Init@mmTrailer@@QAEXPADPAVmmCarSim@@VVector3@@@Z 004708d0 f   game.obj
 0001:0006fb20       ?FromMatrix@mmTrailerInstance@@UAIXABVMatrix34@@@Z 00470b20 f   game.obj
 0001:0006fb40       ?ToMatrix@mmTrailerInstance@@UAIAAVMatrix34@@AAV2@@Z 00470b40 f   game.obj
 0001:0006fb60       ?GetPos@mmTrailerInstance@@UAIAAVVector3@@XZ 00470b60 f   game.obj
 0001:0006fb70       ?GetEntity@mmTrailerInstance@@UAEPAVmmPhysEntity@@XZ 00470b70 f   game.obj
 0001:0006fb80       ?AttachEntity@mmTrailerInstance@@UAEPAVmmPhysEntity@@XZ 00470b80 f   game.obj
 0001:0006fb90       ?GetVelocity@mmTrailerInstance@@UAE?AVVector3@@XZ 00470b90 f   game.obj
 0001:0006fbc0       ?Init@mmTrailerInstance@@QAEXPADPAVVector3@@@Z 00470bc0 f   game.obj
 0001:0006fd60       ?Draw@mmTrailerInstance@@UAIXH@Z 00470d60 f   game.obj
 0001:0006ff70       ?DrawShadow@mmTrailerInstance@@UAIXXZ 00470f70 f   game.obj
 0001:0006ff90       ?AfterLoad@mmTrailer@@UAEXXZ 00470f90 f   game.obj
 0001:00070000       ?Activate@mmTrailer@@QAEXXZ 00471000 f   game.obj
 0001:00070010       ?Deactivate@mmTrailer@@QAEXXZ 00471010 f   game.obj
 0001:00070020       ?BeforeSave@mmTrailer@@UAEXXZ 00471020 f   game.obj
 0001:00070050       ?RestoreImpactParams@mmTrailer@@QAEXXZ 00471050 f   game.obj
 0001:00070080       ?SetHackedImpactParams@mmTrailer@@QAEXXZ 00471080 f   game.obj
 0001:000700a0       ?Reset@mmTrailer@@UAEXXZ   004710a0 f   game.obj
 0001:00070180       ?Update@mmTrailer@@UAEXXZ  00471180 f   game.obj
 0001:00070250       ?PostUpdate@mmTrailer@@UAEXXZ 00471250 f   game.obj
 0001:00070260       ?AddWidgets@mmTrailer@@UAEXPAVBank@@@Z 00471260 f   game.obj
 0001:00070350       ?DeclareFields@mmTrailer@@SAXXZ 00471350 f   game.obj
 0001:00070430       ?new_mmTrailer@@YAPAXH@Z   00471430 f   game.obj
 0001:00070500       ?delete_mmTrailer@@YAXPAXH@Z 00471500 f   game.obj
 0001:00070550       ?GetClass@mmTrailer@@UAEPAVMetaClass@@XZ 00471550 f   game.obj
 0001:000705e0       ??1mmTrailer@@UAE@XZ       004715e0 f   game.obj
 0001:00070710       ?GetICS@mmTrailer@@UAEPAVasInertialCS@@XZ 00471710 f   game.obj
 0001:00070720       ?GetBound@mmTrailer@@UAEPAVasBound@@XZ 00471720 f   game.obj
 0001:00070780       ??0mmOpponentImpactAudio@@QAE@XZ 00471780 f   game.obj
 0001:00070940       ??1mmOpponentImpactAudio@@QAE@XZ 00471940 f   game.obj
 0001:00070970       ?Play@mmOpponentImpactAudio@@QAEXMFMM@Z 00471970 f   game.obj
 0001:00070ae0       ?Update@mmOpponentImpactAudio@@QAEXXZ 00471ae0 f   game.obj
 0001:00070b40       ?Enable3DMode@mmOpponentImpactAudio@@QAEXPAVVector3@@@Z 00471b40 f   game.obj
 0001:00070b90       ?SetSecondsElapsed@mmOpponentImpactAudio@@SAXM@Z 00471b90 f   game.obj
 0001:00070ba0       ?GetSecondsElapsed@mmOpponentImpactAudio@@SAMXZ 00471ba0 f   game.obj
 0001:00070bb0       ?Disable3DMode@mmOpponentImpactAudio@@QAEXXZ 00471bb0 f   game.obj
 0001:00070bd0       ??0mmPoliceCarAudio@@QAE@PAVmmCarSim@@M@Z 00471bd0 f   game.obj
 0001:00070cb0       ?ExplosionIsPlaying@mmPoliceCarAudio@@QAEHXZ 00471cb0 f   game.obj
 0001:00070cd0       ?StartSiren@mmPoliceCarAudio@@QAEXXZ 00471cd0 f   game.obj
 0001:00070d80       ?StopSiren@mmPoliceCarAudio@@QAEXXZ 00471d80 f   game.obj
 0001:00070de0       ?PlayExplosion@mmPoliceCarAudio@@QAEXXZ 00471de0 f   game.obj
 0001:00070e90       ?DamageSiren@mmPoliceCarAudio@@QAEXXZ 00471e90 f   game.obj
 0001:00070ff0       ?Update@mmPoliceCarAudio@@QAEXHMM@Z 00471ff0 f   game.obj
 0001:00071110       ?FluctuateSlowSiren@mmPoliceCarAudio@@AAEXXZ 00472110 f   game.obj
 0001:000713a0       ?FluctuateFastSiren@mmPoliceCarAudio@@AAEXXZ 004723a0 f   game.obj
 0001:000717c0       ?UpdateDoppler@mmPoliceCarAudio@@QAEXXZ 004727c0 f   game.obj
 0001:000717d0       ?UpdateDoppler@mmPoliceCarAudio@@QAEXM@Z 004727d0 f   game.obj
 0001:000719c0       ?PlayVoice@mmPoliceCarAudio@@QAEXXZ 004729c0 f   game.obj
 0001:00071a60       ?AssignSounds@mmPoliceCarAudio@@QAEXPAVAudSound@@000PAVmmOpponentImpactAudio@@0@Z 00472a60 f   game.obj
 0001:00071b30       ?UnAssignSounds@mmPoliceCarAudio@@QAEXXZ 00472b30 f   game.obj
 0001:00071c10       ??0mmOpponentCarAudio@@QAE@PAVmmCarSim@@@Z 00472c10 f   game.obj
 0001:00071c80       ??1mmOpponentCarAudio@@UAE@XZ 00472c80 f   game.obj
 0001:00071cf0       ?Init@mmOpponentCarAudio@@QAEXPAVmmCarSim@@@Z 00472cf0 f   game.obj
 0001:00071e40       ?Update@mmOpponentCarAudio@@QAEXHMM@Z 00472e40 f   game.obj
 0001:00071ee0       ?CalculateDistToPlayer2@mmOpponentCarAudio@@QAEXXZ 00472ee0 f   game.obj
 0001:00071fc0       ?CalculatePan@mmOpponentCarAudio@@QAEXXZ 00472fc0 f   game.obj
 0001:00072010       ?CalculateDoppler@mmOpponentCarAudio@@QAEXM@Z 00473010 f   game.obj
 0001:00072040       ?UpdateDoppler@mmOpponentCarAudio@@QAEXXZ 00473040 f   game.obj
 0001:00072050       ?UpdateDoppler@mmOpponentCarAudio@@QAEXM@Z 00473050 f   game.obj
 0001:00072160       ?Reset@mmOpponentCarAudio@@UAEXXZ 00473160 f   game.obj
 0001:00072180       ?LoadSucessful@mmOpponentCarAudio@@QAEXPAVmmCarSim@@@Z 00473180 f   game.obj
 0001:000721b0       ?AssignSounds@mmOpponentCarAudio@@QAEXPAVAudSound@@0PAVmmOpponentImpactAudio@@0@Z 004731b0 f   game.obj
 0001:00072280       ?UnAssignSounds@mmOpponentCarAudio@@QAEXXZ 00473280 f   game.obj
 0001:00072320       ?SetMinAmpSpeed@mmOpponentCarAudio@@QAEXM@Z 00473320 f   game.obj
 0001:00072340       ?DeclareFields@mmOpponentCarAudio@@SAXXZ 00473340 f   game.obj
 0001:000723c0       ?new_mmOpponentCarAudio@@YAPAXH@Z 004733c0 f   game.obj
 0001:000724b0       ?delete_mmOpponentCarAudio@@YAXPAXH@Z 004734b0 f   game.obj
 0001:00072500       ?GetClass@mmOpponentCarAudio@@UAEPAVMetaClass@@XZ 00473500 f   game.obj
 0001:00072590       ??0mmOpponentCarAudio@@QAE@XZ 00473590 f   game.obj
 0001:000725e0       ??0mmStuck@@QAE@XZ         004735e0 f   game.obj
 0001:00072650       ?StuckCB@@YAXPAVmmStuck@@@Z 00473650 f   game.obj
 0001:00072680       ?Init@mmStuck@@QAEXPAVmmCarSim@@@Z 00473680 f   game.obj
 0001:000726a0       ?Impact@mmStuck@@QAEXXZ    004736a0 f   game.obj
 0001:000726b0       ?Reset@mmStuck@@UAEXXZ     004736b0 f   game.obj
 0001:000726c0       ?Pegged@mmStuck@@QAEHXZ    004736c0 f   game.obj
 0001:00072710       ?Update@mmStuck@@UAEXXZ    00473710 f   game.obj
 0001:00072930       ?AddWidgets@mmStuck@@UAEXPAVBank@@@Z 00473930 f   game.obj
 0001:00072a90       ??0mmEngine@@QAE@XZ        00473a90 f   game.obj
 0001:00072af0       ?Init@mmEngine@@QAEXPAVmmCarSim@@@Z 00473af0 f   game.obj
 0001:00072b20       ?AfterLoad@mmEngine@@UAEXXZ 00473b20 f   game.obj
 0001:00072b30       ?ComputeConstants@mmEngine@@QAEXXZ 00473b30 f   game.obj
 0001:00072bb0       ?CalcTorqueAtFullThrottle@mmEngine@@QAEMXZ 00473bb0 f   game.obj
 0001:00072c40       ?CalcTorqueAtZeroThrottle@mmEngine@@QAEMXZ 00473c40 f   game.obj
 0001:00072c80       ?CalcTorque@mmEngine@@QAEMM@Z 00473c80 f   game.obj
 0001:00072cb0       ?Reset@mmEngine@@UAEXXZ    00473cb0 f   game.obj
 0001:00072ce0       ?Update@mmEngine@@UAEXXZ   00473ce0 f   game.obj
 0001:00072ec0       ?AddWidgets@mmEngine@@UAEXPAVBank@@@Z 00473ec0 f   game.obj
 0001:00073010       ?DeclareFields@mmEngine@@SAXXZ 00474010 f   game.obj
 0001:000730b0       ?new_mmEngine@@YAPAXH@Z    004740b0 f   game.obj
 0001:00073180       ?delete_mmEngine@@YAXPAXH@Z 00474180 f   game.obj
 0001:000731d0       ?GetClass@mmEngine@@UAEPAVMetaClass@@XZ 004741d0 f   game.obj
 0001:00073240       ??0mmShock@@QAE@XZ         00474240 f   game.obj
 0001:00073260       ?Update@mmShock@@UAEXXZ    00474260 f   game.obj
 0001:00073270       ?AddWidgets@mmShock@@UAEXPAVBank@@@Z 00474270 f   game.obj
 0001:00073290       ?DeclareFields@mmShock@@SAXXZ 00474290 f   game.obj
 0001:000732e0       ?new_mmShock@@YAPAXH@Z     004742e0 f   game.obj
 0001:000733b0       ?delete_mmShock@@YAXPAXH@Z 004743b0 f   game.obj
 0001:00073400       ?GetClass@mmShock@@UAEPAVMetaClass@@XZ 00474400 f   game.obj
 0001:00073470       ?DeclareFields@mmAxle@@SAXXZ 00474470 f   game.obj
 0001:000734c0       ?new_mmAxle@@YAPAXH@Z      004744c0 f   game.obj
 0001:00073590       ?delete_mmAxle@@YAXPAXH@Z  00474590 f   game.obj
 0001:000735e0       ??0mmWheel@@QAE@XZ         004745e0 f   game.obj
 0001:000737a0       ?ComputeConstants@mmWheel@@QAEXXZ 004747a0 f   game.obj
 0001:00073860       ?AfterLoad@mmWheel@@UAEXXZ 00474860 f   game.obj
 0001:00073870       ?Init@mmWheel@@QAEXPAD0VVector3@@PAVasInertialCS@@HPAVmmBoundTemplate@@H@Z 00474870 f   game.obj
 0001:000739f0       ?ComputeDwtdw@mmWheel@@QAEMMPAM00@Z 004749f0 f   game.obj
 0001:00074220       ?Update@mmWheel@@UAEXXZ    00475220 f   game.obj
 0001:00075100       ?Reset@mmWheel@@UAEXXZ     00476100 f   game.obj
 0001:00075170       ?SetInputs@mmWheel@@QAEXMM@Z 00476170 f   game.obj
 0001:00075190       ?SetFricMultiplier@mmWheel@@QAEXM@Z 00476190 f   game.obj
 0001:000751b0       ?SetSteerMultiplier@mmWheel@@QAEXM@Z 004761b0 f   game.obj
 0001:000751c0       ?CopyVars@mmWheel@@QAEXPAV1@@Z 004761c0 f   game.obj
 0001:00075280       ?GetSurfaceSound@mmWheel@@QAEHXZ 00476280 f   game.obj
 0001:000752a0       ?AddWidgets@mmWheel@@UAEXPAVBank@@@Z 004762a0 f   game.obj
 0001:000756d0       ?DeclareFields@mmWheel@@SAXXZ 004766d0 f   game.obj
 0001:00075870       ?new_mmWheel@@YAPAXH@Z     00476870 f   game.obj
 0001:00075940       ?delete_mmWheel@@YAXPAXH@Z 00476940 f   game.obj
 0001:00075990       ?GetClass@mmWheel@@UAEPAVMetaClass@@XZ 00476990 f   game.obj
 0001:00075a00       ??0mmDrivetrain@@QAE@XZ    00476a00 f   game.obj
 0001:00075a30       ?Init@mmDrivetrain@@QAEXPAVmmCarSim@@@Z 00476a30 f   game.obj
 0001:00075a60       ?Attach@mmDrivetrain@@QAEXXZ 00476a60 f   game.obj
 0001:00075a80       ?Detach@mmDrivetrain@@QAEXXZ 00476a80 f   game.obj
 0001:00075a90       ?AddWheel@mmDrivetrain@@QAEHPAVmmWheel@@@Z 00476a90 f   game.obj
 0001:00075ad0       ?Update@mmDrivetrain@@UAEXXZ 00476ad0 f   game.obj
 0001:00075f80       ?AddWidgets@mmDrivetrain@@UAEXPAVBank@@@Z 00476f80 f   game.obj
 0001:00076000       ?DeclareFields@mmDrivetrain@@SAXXZ 00477000 f   game.obj
 0001:00076070       ?new_mmDrivetrain@@YAPAXH@Z 00477070 f   game.obj
 0001:00076130       ?delete_mmDrivetrain@@YAXPAXH@Z 00477130 f   game.obj
 0001:00076180       ?GetClass@mmDrivetrain@@UAEPAVMetaClass@@XZ 00477180 f   game.obj
 0001:000761f0       ??0VehGyro@@QAE@XZ         004771f0 f   game.obj
 0001:00076220       ?Update@VehGyro@@UAEXXZ    00477220 f   game.obj
 0001:000763d0       ?AddWidgets@VehGyro@@UAEXPAVBank@@@Z 004773d0 f   game.obj
 0001:00076480       ?DeclareFields@VehGyro@@SAXXZ 00477480 f   game.obj
 0001:00076500       ?new_VehGyro@@YAPAXH@Z     00477500 f   game.obj
 0001:000765c0       ?delete_VehGyro@@YAXPAXH@Z 004775c0 f   game.obj
 0001:00076610       ?GetClass@VehGyro@@UAEPAVMetaClass@@XZ 00477610 f   game.obj
 0001:00076680       ??0mmForce@@QAE@XZ         00477680 f   game.obj
 0001:000766a0       ?Update@mmForce@@UAEXXZ    004776a0 f   game.obj
 0001:000768b0       ?AddWidgets@mmForce@@UAEXPAVBank@@@Z 004778b0 f   game.obj
 0001:000768c0       ?DeclareFields@mmForce@@SAXXZ 004778c0 f   game.obj
 0001:00076910       ?new_mmForce@@YAPAXH@Z     00477910 f   game.obj
 0001:000769d0       ?delete_mmForce@@YAXPAXH@Z 004779d0 f   game.obj
 0001:00076a20       ?GetClass@mmForce@@UAEPAVMetaClass@@XZ 00477a20 f   game.obj
 0001:00076a90       ??0mmSplash@@QAE@XZ        00477a90 f   game.obj
 0001:00076af0       ?SplashCB@@YAXPAVmmSplash@@@Z 00477af0 f   game.obj
 0001:00076b00       ?Reset@mmSplash@@UAEXXZ    00477b00 f   game.obj
 0001:00076b10       ?Init@mmSplash@@QAEXPAVasInertialCS@@VVector3@@1@Z 00477b10 f   game.obj
 0001:00076c60       ?Activate@mmSplash@@QAEXM@Z 00477c60 f   game.obj
 0001:00076c80       ?Update@mmSplash@@UAEXXZ   00477c80 f   game.obj
 0001:00076ec0       ?AddWidgets@mmSplash@@UAEXPAVBank@@@Z 00477ec0 f   game.obj
 0001:00076f70       ??0mmCarRoadFF@@QAE@XZ     00477f70 f   game.obj
 0001:00076fb0       ??1mmCarRoadFF@@UAE@XZ     00477fb0 f   game.obj
 0001:00077010       ?AssignProperties@mmCarRoadFF@@QAEXMH@Z 00478010 f   game.obj
 0001:000770b0       ?SetFGVals@mmCarRoadFF@@QAEXMMM@Z 004780b0 f   game.obj
 0001:000771a0       ?Start@mmCarRoadFF@@QAEXXZ 004781a0 f   game.obj
 0001:000771c0       ?Stop@mmCarRoadFF@@QAEXXZ  004781c0 f   game.obj
 0001:000771d0       ?Reset@mmCarRoadFF@@UAEXXZ 004781d0 f   game.obj
 0001:00077200       ?IsPlaying@mmCarRoadFF@@QAEHXZ 00478200 f   game.obj
 0001:00077210       ?Update@mmCarRoadFF@@UAEXXZ 00478210 f   game.obj
 0001:00077260       ?UpdateVals@mmCarRoadFF@@QAEXXZ 00478260 f   game.obj
 0001:000772b0       ?AddWidgets@mmCarRoadFF@@UAEXPAVBank@@@Z 004782b0 f   game.obj
 0001:000773c0       ?DeclareFields@mmCarRoadFF@@SAXXZ 004783c0 f   game.obj
 0001:00077410       ?new_mmCarRoadFF@@YAPAXH@Z 00478410 f   game.obj
 0001:000774e0       ?delete_mmCarRoadFF@@YAXPAXH@Z 004784e0 f   game.obj
 0001:00077530       ?GetClass@mmCarRoadFF@@UAEPAVMetaClass@@XZ 00478530 f   game.obj
 0001:000775a0       ??0mmPlayerCarAudio@@QAE@PAVmmCarSim@@@Z 004785a0 f   game.obj
 0001:00077640       ?Init@mmPlayerCarAudio@@QAEXPAVmmCarSim@@@Z 00478640 f   game.obj
 0001:000779d0       ??1mmPlayerCarAudio@@UAE@XZ 004789d0 f   game.obj
 0001:00077ac0       ?EchoOn@mmPlayerCarAudio@@QAEXM@Z 00478ac0 f   game.obj
 0001:00077be0       ?EchoOff@mmPlayerCarAudio@@QAEXXZ 00478be0 f   game.obj
 0001:00077c90       ?Update@mmPlayerCarAudio@@QAEXHMMF@Z 00478c90 f   game.obj
 0001:00077ea0       ?StartSiren@mmPlayerCarAudio@@QAEXXZ 00478ea0 f   game.obj
 0001:00077f30       ?StopSiren@mmPlayerCarAudio@@QAEXXZ 00478f30 f   game.obj
 0001:00077f70       ?FluctuateSlowSiren@mmPlayerCarAudio@@QAEXXZ 00478f70 f   game.obj
 0001:00078170       ?FluctuateFastSiren@mmPlayerCarAudio@@QAEXXZ 00479170 f   game.obj
 0001:00078490       ?Reset@mmPlayerCarAudio@@UAEXXZ 00479490 f   game.obj
 0001:000784d0       ?PlayHorn@mmPlayerCarAudio@@QAEXXZ 004794d0 f   game.obj
 0001:00078510       ?LoadSucessful@mmPlayerCarAudio@@QAEXXZ 00479510 f   game.obj
 0001:00078970       ?DeclareFields@mmPlayerCarAudio@@SAXXZ 00479970 f   game.obj
 0001:00078a20       ?new_mmPlayerCarAudio@@YAPAXH@Z 00479a20 f   game.obj
 0001:00078b00       ?delete_mmPlayerCarAudio@@YAXPAXH@Z 00479b00 f   game.obj
 0001:00078b50       ?GetClass@mmPlayerCarAudio@@UAEPAVMetaClass@@XZ 00479b50 f   game.obj
 0001:00078bc0       ??0mmPlayerCarAudio@@QAE@XZ 00479bc0 f   game.obj
 0001:00078c10       ??0mmNetworkCarAudio@@QAE@PAVmmCarSim@@@Z 00479c10 f   game.obj
 0001:00078c70       ?Init@mmNetworkCarAudio@@QAEXPAVmmCarSim@@G@Z 00479c70 f   game.obj
 0001:00078e00       ??1mmNetworkCarAudio@@UAE@XZ 00479e00 f   game.obj
 0001:00078e70       ?Update@mmNetworkCarAudio@@UAEXXZ 00479e70 f   game.obj
 0001:00078eb0       ?UpdateAudio@mmNetworkCarAudio@@QAEXXZ 00479eb0 f   game.obj
 0001:00078fe0       ?FluctuateSlowSiren@mmNetworkCarAudio@@QAEXXZ 00479fe0 f   game.obj
 0001:00079230       ?FluctuateFastSiren@mmNetworkCarAudio@@QAEXXZ 0047a230 f   game.obj
 0001:000795e0       ?DeactivateAudio@mmNetworkCarAudio@@QAEXXZ 0047a5e0 f   game.obj
 0001:00079690       ?CalculateDistToPlayer2@mmNetworkCarAudio@@QAEXXZ 0047a690 f   game.obj
 0001:00079750       ?CalculateDoppler@mmNetworkCarAudio@@QAEXXZ 0047a750 f   game.obj
 0001:00079770       ?UpdateDoppler@mmNetworkCarAudio@@QAEXXZ 0047a770 f   game.obj
 0001:00079a20       ?StopSiren@mmNetworkCarAudio@@QAEXXZ 0047aa20 f   game.obj
 0001:00079a60       ?StartSiren@mmNetworkCarAudio@@QAEXXZ 0047aa60 f   game.obj
 0001:00079ab0       ?Reset@mmNetworkCarAudio@@UAEXXZ 0047aab0 f   game.obj
 0001:00079ad0       ?RemoveFromManager@mmNetworkCarAudio@@QAEXXZ 0047aad0 f   game.obj
 0001:00079af0       ?LoadSucessful@mmNetworkCarAudio@@QAEXPAVmmCarSim@@@Z 0047aaf0 f   game.obj
 0001:00079b70       ?DeclareFields@mmNetworkCarAudio@@SAXXZ 0047ab70 f   game.obj
 0001:00079c00       ?new_mmNetworkCarAudio@@YAPAXH@Z 0047ac00 f   game.obj
 0001:00079cf0       ?delete_mmNetworkCarAudio@@YAXPAXH@Z 0047acf0 f   game.obj
 0001:00079d40       ?GetClass@mmNetworkCarAudio@@UAEPAVMetaClass@@XZ 0047ad40 f   game.obj
 0001:00079df0       ??0mmNetworkCarAudio@@QAE@XZ 0047adf0 f   game.obj
 0001:00079e40       ??0mmImpactAudio@@QAE@PAVmmCarSim@@PAVVector3@@@Z 0047ae40 f   game.obj
 0001:0007a470       ??1mmImpactAudio@@QAE@XZ   0047b470 f   game.obj
 0001:0007a550       ?Play@mmImpactAudio@@QAEXMFMM@Z 0047b550 f   game.obj
 0001:0007a5e0       ?PlayWall@mmImpactAudio@@QAEXMMM@Z 0047b5e0 f   game.obj
 0001:0007a6e0       ?GetBangerPtrs@mmImpactAudio@@QAEXFPAPAVAudSound@@0@Z 0047b6e0 f   game.obj
 0001:0007a960       ?PlayBanger@mmImpactAudio@@QAEXMF@Z 0047b960 f   game.obj
 0001:0007aaa0       ?SetWallSoftVolumeRange@mmImpactAudio@@QAEXMM@Z 0047baa0 f   game.obj
 0001:0007aac0       ?SetWallSoftVolumeMultiplier@mmImpactAudio@@QAEXM@Z 0047bac0 f   game.obj
 0001:0007aae0       ?SetWallMedVolumeRange@mmImpactAudio@@QAEXMM@Z 0047bae0 f   game.obj
 0001:0007ab00       ?SetWallMedVolumeMultiplier@mmImpactAudio@@QAEXM@Z 0047bb00 f   game.obj
 0001:0007ab20       ?SetWallHugeVolumeRange@mmImpactAudio@@QAEXMM@Z 0047bb20 f   game.obj
 0001:0007ab40       ?SetWallHugeVolumeMultiplier@mmImpactAudio@@QAEXM@Z 0047bb40 f   game.obj
 0001:0007ab60       ?SetBangerVolumeRange@mmImpactAudio@@QAEXMMMF@Z 0047bb60 f   game.obj
 0001:0007abf0       ?Update@mmImpactAudio@@QAEXXZ 0047bbf0 f   game.obj
 0001:0007ac00       ??0NetAddOnCarAudio@@QAE@PADF@Z 0047bc00 f   game.obj
 0001:0007ad20       ??1NetAddOnCarAudio@@QAE@XZ 0047bd20 f   game.obj
 0001:0007ad70       ?AssignSounds@NetAddOnCarAudio@@QAEHPAVmmNetworkCarAudio@@F@Z 0047bd70 f   game.obj
 0001:0007ae00       ?EchoOn@NetAddOnCarAudio@@QAEXM@Z 0047be00 f   game.obj
 0001:0007ae60       ?EchoOff@NetAddOnCarAudio@@QAEXXZ 0047be60 f   game.obj
 0001:0007ae90       ?Update@NetAddOnCarAudio@@QAEXXZ 0047be90 f   game.obj
 0001:0007aec0       ??0EngineAudioOpponent@@QAE@XZ 0047bec0 f   game.obj
 0001:0007af20       ??1EngineAudioOpponent@@UAE@XZ 0047bf20 f   game.obj
 0001:0007af50       ?Init@EngineAudioOpponent@@QAEXXZ 0047bf50 f   game.obj
 0001:0007afc0       ?UpdateRPM@EngineAudioOpponent@@QAEXM@Z 0047bfc0 f   game.obj
 0001:0007b090       ?ClearName@EngineAudioOpponent@@QAEXXZ 0047c090 f   game.obj
 0001:0007b0b0       ?Enable3DMode@EngineAudioOpponent@@QAEXPAVVector3@@@Z 0047c0b0 f   game.obj
 0001:0007b0d0       ?Disable3DMode@EngineAudioOpponent@@QAEXXZ 0047c0d0 f   game.obj
 0001:0007b0e0       ?DeclareFields@EngineAudioOpponent@@SAXXZ 0047c0e0 f   game.obj
 0001:0007b1d0       ?new_EngineAudioOpponent@@YAPAXH@Z 0047c1d0 f   game.obj
 0001:0007b2a0       ?delete_EngineAudioOpponent@@YAXPAXH@Z 0047c2a0 f   game.obj
 0001:0007b2f0       ?GetClass@EngineAudioOpponent@@UAEPAVMetaClass@@XZ 0047c2f0 f   game.obj
 0001:0007b360       ??0mmOpponentSurfaceAudio@@QAE@XZ 0047c360 f   game.obj
 0001:0007b390       ?SetWheelPointers@mmOpponentSurfaceAudio@@QAEXPAVmmWheel@@000@Z 0047c390 f   game.obj
 0001:0007b3b0       ?Update@mmOpponentSurfaceAudio@@QAEXM@Z 0047c3b0 f   game.obj
 0001:0007b3f0       ?UpdateSkid@mmOpponentSurfaceAudio@@QAEXM@Z 0047c3f0 f   game.obj
 0001:0007b670       ?UpdateSkidSnow@mmOpponentSurfaceAudio@@QAEXM@Z 0047c670 f   game.obj
 0001:0007b8d0       ?Enable3DMode@mmOpponentSurfaceAudio@@QAEXPAVVector3@@@Z 0047c8d0 f   game.obj
 0001:0007b8f0       ?Disable3DMode@mmOpponentSurfaceAudio@@QAEXXZ 0047c8f0 f   game.obj
 0001:0007b900       ??0EngineAudio@@QAE@XZ     0047c900 f   game.obj
 0001:0007b980       ?Init@EngineAudio@@QAEXPAVVector3@@@Z 0047c980 f   game.obj
 0001:0007bbd0       ?Init@EngineAudio@@QAEXPAD0@Z 0047cbd0 f   game.obj
 0001:0007bd70       ??1EngineAudio@@UAE@XZ     0047cd70 f   game.obj
 0001:0007be20       ?EchoOn@EngineAudio@@QAEXM@Z 0047ce20 f   game.obj
 0001:0007be70       ?EchoOff@EngineAudio@@QAEXXZ 0047ce70 f   game.obj
 0001:0007bea0       ?EnableClutch@EngineAudio@@QAEXPADM@Z 0047cea0 f   game.obj
 0001:0007bf60       ?UpdateRPM@EngineAudio@@UAEXM@Z 0047cf60 f   game.obj
 0001:0007c1c0       ?ResetVolume@EngineAudio@@QAEXXZ 0047d1c0 f   game.obj
 0001:0007c1e0       ?DeclareFields@EngineAudio@@SAXXZ 0047d1e0 f   game.obj
 0001:0007c370       ?new_EngineAudio@@YAPAXH@Z 0047d370 f   game.obj
 0001:0007c440       ?delete_EngineAudio@@YAXPAXH@Z 0047d440 f   game.obj
 0001:0007c490       ?GetClass@EngineAudio@@UAEPAVMetaClass@@XZ 0047d490 f   game.obj
 0001:0007c500       ??0mmSurfaceAudio@@QAE@PAVmmCarSim@@PAVVector3@@@Z 0047d500 f   game.obj
 0001:0007c900       ??1mmSurfaceAudio@@QAE@XZ  0047d900 f   game.obj
 0001:0007c970       ?EnableTireWobble@mmSurfaceAudio@@QAEXXZ 0047d970 f   game.obj
 0001:0007ca20       ?EchoOn@mmSurfaceAudio@@QAEXPAVmmCarSim@@M@Z 0047da20 f   game.obj
 0001:0007cb30       ?EchoOff@mmSurfaceAudio@@QAEXPAVmmCarSim@@@Z 0047db30 f   game.obj
 0001:0007cbe0       ?EnableSuspension@mmSurfaceAudio@@QAEHPAVmmCarSim@@@Z 0047dbe0 f   game.obj
 0001:0007cc90       ?EnableSurface@mmSurfaceAudio@@QAEHPAVmmCarSim@@@Z 0047dc90 f   game.obj
 0001:0007ce20       ?SetWheelPointers@mmSurfaceAudio@@QAEXPAVmmWheel@@000@Z 0047de20 f   game.obj
 0001:0007ce50       ?Update@mmSurfaceAudio@@QAEXM@Z 0047de50 f   game.obj
 0001:0007cee0       ?UpdateTireWobble@mmSurfaceAudio@@QAEXXZ 0047dee0 f   game.obj
 0001:0007d030       ?UpdateSurface@mmSurfaceAudio@@QAEXM@Z 0047e030 f   game.obj
 0001:0007d2b0       ?UpdateSurfaceSnow@mmSurfaceAudio@@QAEXM@Z 0047e2b0 f   game.obj
 0001:0007d490       ?PlayCobble@mmSurfaceAudio@@AAEXM@Z 0047e490 f   game.obj
 0001:0007d5c0       ?UpdateSkidClear@mmSurfaceAudio@@QAEXM@Z 0047e5c0 f   game.obj
 0001:0007d980       ?UpdateSkidRain@mmSurfaceAudio@@QAEXM@Z 0047e980 f   game.obj
 0001:0007dd50       ?UpdateSkidSnow@mmSurfaceAudio@@QAEXM@Z 0047ed50 f   game.obj
 0001:0007e080       ?UpdateSuspension@mmSurfaceAudio@@QAEXXZ 0047f080 f   game.obj
 0001:0007e190       ?SetWobblePitch@mmSurfaceAudio@@QAEXMM@Z 0047f190 f   game.obj
 0001:0007e1b0       ?SetWobbleVol@mmSurfaceAudio@@QAEXMM@Z 0047f1b0 f   game.obj
 0001:0007e210       ??0asNetwork@@QAE@XZ       0047f210 f   game.obj
 0001:0007e280       ??1asNetwork@@QAE@XZ       0047f280 f   game.obj
 0001:0007e290       ?WaitForLobbyConnection@asNetwork@@QAEXH@Z 0047f290 f   game.obj
 0001:0007e2f0       ?GetNetworkCaps@asNetwork@@QAEHXZ 0047f2f0 f   game.obj
 0001:0007e380       ?GetProtocols@asNetwork@@QAEXXZ 0047f380 f   game.obj
 0001:0007e3b0       ?SetProtocol@asNetwork@@QAEHHPAUNETCOMMPACK@@@Z 0047f3b0 f   game.obj
 0001:0007e710       ?SetProtocol@asNetwork@@QAEHH@Z 0047f710 f   game.obj
 0001:0007e770       ?CreatePlayer@asNetwork@@QAEHPADPAXH@Z 0047f770 f   game.obj
 0001:0007e830       ?GetPlayers@asNetwork@@QAEHPAU_GUID@@@Z 0047f830 f   game.obj
 0001:0007e860       ?GetEnumPlayer@asNetwork@@QAEPADH@Z 0047f860 f   game.obj
 0001:0007e890       ?GetPlayerID@asNetwork@@QAEKH@Z 0047f890 f   game.obj
 0001:0007e8d0       ?GetNumPlayers@asNetwork@@QAEHXZ 0047f8d0 f   game.obj
 0001:0007e990       ?GetPlayerName@asNetwork@@QAEPADK@Z 0047f990 f   game.obj
 0001:0007ea50       ?GetPlayerName@asNetwork@@QAEHKPAD@Z 0047fa50 f   game.obj
 0001:0007eb30       ?SetPlayerData@asNetwork@@QAEXKPAXH@Z 0047fb30 f   game.obj
 0001:0007ebd0       ?GetEnumPlayerData@asNetwork@@QAEHHPAXH@Z 0047fbd0 f   game.obj
 0001:0007ec90       ?GetPlayerData@asNetwork@@QAEHKPAXH@Z 0047fc90 f   game.obj
 0001:0007ed40       ?CreateSession@asNetwork@@QAEHPAD0HPAUNETSESSION_DESC@@@Z 0047fd40 f   game.obj
 0001:0007ee30       ?JoinSession@asNetwork@@QAEHPADPAU_GUID@@0@Z 0047fe30 f   game.obj
 0001:0007f060       ?CloseSession@asNetwork@@QAEXXZ 00480060 f   game.obj
 0001:0007f0a0       ?GetEnumSession@asNetwork@@QAEPADH@Z 004800a0 f   game.obj
 0001:0007f0d0       ?GetNumSessions@asNetwork@@QAEHXZ 004800d0 f   game.obj
 0001:0007f0e0       ?SealSession@asNetwork@@QAEXXZ 004800e0 f   game.obj
 0001:0007f200       ?UnSealSession@asNetwork@@QAEXXZ 00480200 f   game.obj
 0001:0007f320       ?GetSessionData@asNetwork@@QAEXPAUNETSESSION_DESC@@@Z 00480320 f   game.obj
 0001:0007f3e0       ?GetSessionsSynch@asNetwork@@QAEHH@Z 004803e0 f   game.obj
 0001:0007f490       ?GetSessionsAsynch@asNetwork@@QAEXXZ 00480490 f   game.obj
 0001:0007f4f0       ?StopSessionsAsynch@asNetwork@@QAEXXZ 004804f0 f   game.obj
 0001:0007f570       ?PollLobby@asNetwork@@QAEHXZ 00480570 f   game.obj
 0001:0007f610       ?Update@asNetwork@@QAEHXZ  00480610 f   game.obj
 0001:0007f710       ?HandleAppMessage@asNetwork@@QAEXPAX@Z 00480710 f   game.obj
 0001:0007f730       ?HandleSysMessage@asNetwork@@QAEXPAUDPMSG_GENERIC@@@Z 00480730 f   game.obj
 0001:0007f980       ?Send@asNetwork@@QAEXKPAXKH@Z 00480980 f   game.obj
 0001:0007fa50       ?GetGameVersion@asNetwork@@QAEHH@Z 00480a50 f   game.obj
 0001:0007fa80       ?GetEnumSessionLock@asNetwork@@QAEHH@Z 00480a80 f   game.obj
 0001:0007fab0       ?SetEnumSessionLock@asNetwork@@QAEXHH@Z 00480ab0 f   game.obj
 0001:0007fad0       ?EnumSessionCallback@@YGHPBUDPSESSIONDESC2@@PAKKPAX@Z 00480ad0 f   game.obj
 0001:0007fb90       ?EnumConnectionsCallback@@YGHPBU_GUID@@PAXKPBUDPNAME@@K1@Z 00480b90 f   game.obj
 0001:0007fc00       ?EnumPlayersCallback@@YGHKKPBUDPNAME@@KPAX@Z 00480c00 f   game.obj
 0001:0007fc60       ?JoinSession@asNetwork@@QAEHHPAD@Z 00480c60 f   game.obj
 0001:0007fce0       ?GetNumModems@asNetwork@@QAEHXZ 00480ce0 f   game.obj
 0001:0007fcf0       ?QueryModems@asNetwork@@QAEHXZ 00480cf0 f   game.obj
 0001:0007fe20       ?EnumModemAddress@@YGHABU_GUID@@KPBXPAX@Z 00480e20 f   game.obj
 0001:0007fe90       ??0asNetObject@@QAE@XZ     00480e90 f   game.obj
 0001:0007feb0       ?PositionUpdate@asNetObject@@UAEXPAVMatrix34@@VVector3@@MMM@Z 00480eb0 f   game.obj
 0001:0007fed0       ?Update@asNetObject@@UAEXXZ 00480ed0 f   game.obj
 0001:0007ff10       ??0mmLoader@@QAE@XZ        00480f10 f   game.obj
 0001:00080060       ??1mmLoader@@UAE@XZ        00481060 f   game.obj
 0001:00080100       ?SetIntroText@mmLoader@@QAEXPAULocString@@@Z 00481100 f   game.obj
 0001:00080130       ?BeginTask@mmLoader@@QAEXPAULocString@@M@Z 00481130 f   game.obj
 0001:000801b0       ?EndTask@mmLoader@@QAEXM@Z 004811b0 f   game.obj
 0001:00080250       ?Reset@mmLoader@@QAEXXZ    00481250 f   game.obj
 0001:00080270       ?Cull@mmLoader@@UAEXXZ     00481270 f   game.obj
 0001:00080350       ??0mmCullCity@@QAE@XZ      00481350 f   game.obj
 0001:00080530       ??1mmCullCity@@UAE@XZ      00481530 f   game.obj
 0001:000806d0       ?GetHitId@mmCullCity@@QAEFAAVVector3@@@Z 004816d0 f   game.obj
 0001:00080700       ?Draw@mmUpperInstance@@EAIXH@Z 00481700 f   game.obj
 0001:00080760       ??0mmRunwayLight@@QAE@PADAAVVector3@@1@Z 00481760 f   game.obj
 0001:00080920       ?GetPos@mmRunwayLight@@UAIAAVVector3@@XZ 00481920 f   game.obj
 0001:00080930       ?ToMatrix@mmRunwayLight@@UAIAAVMatrix34@@AAV2@@Z 00481930 f   game.obj
 0001:00080960       ?Draw@mmRunwayLight@@UAIXH@Z 00481960 f   game.obj
 0001:00080a60       ?GetScale@mmRunwayLight@@UAIMXZ 00481a60 f   game.obj
 0001:00080a70       ?AddInstance@mmCullCity@@AAEXHPAD0HPAVVector3@@11M@Z 00481a70 f   game.obj
 0001:00080df0       ?ReparentObject@mmCullCity@@QAEXPAVmmInstance@@@Z 00481df0 f   game.obj
 0001:00080e80       ?ShowRenderStats@@YAXXZ    00481e80 f   game.obj
 0001:00081020       ?Reset@mmCullCity@@UAEXXZ  00482020 f   game.obj
 0001:000810f0       ?InitObjectDetail@mmCullCity@@QAEXXZ 004820f0 f   game.obj
 0001:00081120       ?LoadBangers@mmCullCity@@QAEXPAD@Z 00482120 f   game.obj
 0001:00081240       ?LoadFacades@mmCullCity@@QAEXPAD@Z 00482240 f   game.obj
 0001:00081350       ?InitSnowTextures@mmCullCity@@AAEXXZ 00482350 f   game.obj
 0001:00081540       ?UpdateSnowTextures@mmCullCity@@AAEXXZ 00482540 f   game.obj
 0001:000817e0       ?IsPolyWater@mmCullCity@@QAEHPAVmmPolygon@@@Z 004827e0 f   game.obj
 0001:00081820       ?Update@mmCullCity@@UAEXXZ 00482820 f   game.obj
 0001:00081a60       ?ToggleSky@mmCullCity@@QAEXXZ 00482a60 f   game.obj
 0001:00081a70       ?GetRoomFlags@mmCullCity@@QAEFF@Z 00482a70 f   game.obj
 0001:00081ab0       ?RelightEverything@mmCullCity@@QAEXXZ 00482ab0 f   game.obj
 0001:00081b10       ?fix_clip@@YAXXZ           00482b10 f   game.obj
 0001:00081b80       ?InitTimeOfDayAndWeather@mmCullCity@@AAEXXZ 00482b80 f   game.obj
 0001:00082220       ?fix_sun@@YAXXZ            00483220 f   game.obj
 0001:00082290       ?fix_fill1@@YAXXZ          00483290 f   game.obj
 0001:00082300       ?fix_fill2@@YAXXZ          00483300 f   game.obj
 0001:00082370       ?parseFloat@@YAXAAM@Z      00483370 f   game.obj
 0001:000823a0       ?parseVector3@@YAXAAVVector3@@@Z 004833a0 f   game.obj
 0001:000823d0       ?parseRGB@@YAXAAI@Z        004833d0 f   game.obj
 0001:00082440       ?parseARGB@@YAXAAI@Z       00483440 f   game.obj
 0001:000824b0       ?fix_fog@@YAXXZ            004834b0 f   game.obj
 0001:000824e0       ?fix_shadow@@YAXXZ         004834e0 f   game.obj
 0001:00082510       ?AddWidgets@mmCullCity@@UAEXPAVBank@@@Z 00483510 f   game.obj
 0001:00083920       ?DeclareFields@mmCullCity@@SAXXZ 00484920 f   game.obj
 0001:00083970       ?new_mmCullCity@@YAPAXH@Z  00484970 f   game.obj
 0001:00083a40       ?delete_mmCullCity@@YAXPAXH@Z 00484a40 f   game.obj
 0001:00083a90       ?GetClass@mmCullCity@@UAEPAVMetaClass@@XZ 00484a90 f   game.obj
 0001:00083b90       ?GetStartCell@asRenderWeb@@UAEPAUasPortalCell@@AAVVector3@@PAU2@PAPAVmmPolygon@@@Z 00484b90 f   game.obj
 0001:00083db0       ?Update@asRenderWeb@@UAEXXZ 00484db0 f   game.obj
 0001:00083e40       ?UpdateMirror@asRenderWeb@@QAEXXZ 00484e40 f   game.obj
 0001:00083f50       ?SetMirrorPos@asRenderWeb@@QAEXMMMMM@Z 00484f50 f   game.obj
 0001:00084020       ?DrawMirrorBorder@@YAXXZ   00485020 f   game.obj
 0001:000840d0       ?Cull@asRenderWeb@@UAEXXZ  004850d0 f   game.obj
 0001:00084670       ?DeclareFields@asRenderWeb@@SAXXZ 00485670 f   game.obj
 0001:000846c0       ?new_asRenderWeb@@YAPAXH@Z 004856c0 f   game.obj
 0001:000847a0       ?delete_asRenderWeb@@YAXPAXH@Z 004857a0 f   game.obj
 0001:000847f0       ?InitPositions@@YAXXZ      004857f0 f   game.obj
 0001:00084830       ?LoadPositions@@YAXPAD@Z   00485830 f   game.obj
 0001:000849f0       ?GetPositionCount@@YAHXZ   004859f0 f   game.obj
 0001:00084a00       ?GetPositionVector4@@YAAAVVector4@@H@Z 00485a00 f   game.obj
 0001:00084a30       ?DumpPositions@@YAXPAD@Z   00485a30 f   game.obj
 0001:00084af0       ?RecallPosition@@YAHHPAVMatrix34@@PAHPAD@Z 00485af0 f   game.obj
 0001:00084b80       ?RegisterPosition@@YAHAAVVector4@@HHHHPAD@Z 00485b80 f   game.obj
 0001:00084ce0       ??1position_t@@QAE@XZ      00485ce0 f   game.obj
 0001:00084cf0       ??0mmPositions@@QAE@XZ     00485cf0 f   game.obj
 0001:00084d00       ?Init@mmPositions@@QAEXH@Z 00485d00 f   game.obj
 0001:00084d30       ?Load@mmPositions@@QAEHPAD@Z 00485d30 f   game.obj
 0001:00084f00       ?Recall@mmPositions@@QAEHHPAVMatrix34@@PAHPAD@Z 00485f00 f   game.obj
 0001:00084f90       ?Register@mmPositions@@QAEHAAVVector4@@HHHHPAD@Z 00485f90 f   game.obj
 0001:00085090       ?Draw@mmInstChain@@QAEXFFIHM@Z 00486090 f   game.obj
 0001:00085620       ?formatf@@YAPADPBDZZ       00486620 f   game.obj
 0001:00085640       ?GetMeshSetSet@mmInstance@@SAHPADH0PAVVector3@@@Z 00486640 f   game.obj
 0001:00085ab0       ?GetPolyInfo@@YAHPAVagiMeshSet@@@Z 00486ab0 f   game.obj
 0001:00085af0       ?ResetAll@mmInstance@@SAXXZ 00486af0 f   game.obj
 0001:00085c00       ??0mmYInstance@@QAE@XZ     00486c00 f   game.obj
 0001:00085c30       ?FromMatrix@mmYInstance@@UAIXABVMatrix34@@@Z 00486c30 f   game.obj
 0001:00085c80       ?ToMatrix@mmYInstance@@UAIAAVMatrix34@@AAV2@@Z 00486c80 f   game.obj
 0001:00085cd0       ?GetPos@mmYInstance@@UAIAAVVector3@@XZ 00486cd0 f   game.obj
 0001:00085ce0       ?SizeOf@mmYInstance@@UAEIXZ 00486ce0 f   game.obj
 0001:00085cf0       ?AddWidgets@mmYInstance@@UAEXPAVBank@@@Z 00486cf0 f   game.obj
 0001:00085d40       ?Init@mmMatrixInstance@@QAEHPADAAVVector3@@11H0@Z 00486d40 f   game.obj
 0001:00085e70       ??0mmStaticInstance@@QAE@XZ 00486e70 f   game.obj
 0001:00085e90       ?MatrixFromPoints@@YAXAAVMatrix34@@AAVVector3@@1M@Z 00486e90 f   game.obj
 0001:00085fb0       ??0mmFacadeInstance@@QAE@XZ 00486fb0 f   game.obj
 0001:00085fd0       ?DoubleArea@mmFacadeQuad@@SAMPAVagiMeshSet@@@Z 00486fd0 f   game.obj
 0001:00086030       ?Valid@mmFacadeQuad@@SAHPAVagiMeshSet@@@Z 00487030 f   game.obj
 0001:00086060       ??0mmFacadeQuad@@QAE@PAVagiMeshSet@@MM@Z 00487060 f   game.obj
 0001:00086380       ?DrawLit@mmFacadeQuad@@QAEXP6AXPAEPAI1PAVagiMeshSet@@@Z2@Z 00487380 f   game.obj
 0001:000864d0       ?InitFacade@mmFacadeInstance@@QAEHPADAAVVector3@@1MHABV2@@Z 004874d0 f   game.obj
 0001:00086800       ?GetScale@mmFacadeInstance@@UAIMXZ 00487800 f   game.obj
 0001:00086810       ?SizeOf@mmFacadeInstance@@UAEIXZ 00487810 f   game.obj
 0001:00086820       ?Draw@mmFacadeInstance@@UAIXH@Z 00487820 f   game.obj
 0001:00086a20       ?SizeOf@mmStaticInstance@@UAEIXZ 00487a20 f   game.obj
 0001:00086a30       ?Draw@mmStaticInstance@@UAIXH@Z 00487a30 f   game.obj
 0001:00086a90       ?SizeOf@mmShearInstance@@UAEIXZ 00487a90 f   game.obj
 0001:00086aa0       ?Init@mmShearInstance@@QAEHPADAAVVector3@@1MH0@Z 00487aa0 f   game.obj
 0001:00086c60       ?Draw@mmShearInstance@@UAIXH@Z 00487c60 f   game.obj
 0001:00086c80       ?GetScale@mmShearInstance@@UAIMXZ 00487c80 f   game.obj
 0001:00086c90       ?SizeOf@mmBuildingInstance@@UAEIXZ 00487c90 f   game.obj
 0001:00086ca0       ?Init@mmBuildingInstance@@QAEHPADAAVVector3@@11@Z 00487ca0 f   game.obj
 0001:00086de0       ?GetScale@mmBuildingInstance@@UAIMXZ 00487de0 f   game.obj
 0001:00086df0       ?DrawDropShadow@mmInstance@@QAEXHHABVMatrix34@@@Z 00487df0 f   game.obj
 0001:000870a0       ?AddWidgets@mmStaticInstance@@UAEXPAVBank@@@Z 004880a0 f   game.obj
 0001:00087150       ?DeclareFields@mmInstance@@SAXXZ 00488150 f   game.obj
 0001:000871a0       ?delete_mmInstance@@YAXPAXH@Z 004881a0 f   game.obj
 0001:000871f0       ?GetClass@mmInstance@@UAEPAVMetaClass@@XZ 004881f0 f   game.obj
 0001:00087200       ?DeclareFields@mmYInstance@@SAXXZ 00488200 f   game.obj
 0001:00087250       ?delete_mmYInstance@@YAXPAXH@Z 00488250 f   game.obj
 0001:000872a0       ?GetClass@mmYInstance@@UAEPAVMetaClass@@XZ 004882a0 f   game.obj
 0001:000872b0       ?DeclareFields@mmMatrixInstance@@SAXXZ 004882b0 f   game.obj
 0001:00087300       ?new_mmMatrixInstance@@YAPAXH@Z 00488300 f   game.obj
 0001:000873e0       ?delete_mmMatrixInstance@@YAXPAXH@Z 004883e0 f   game.obj
 0001:00087430       ?GetClass@mmMatrixInstance@@UAEPAVMetaClass@@XZ 00488430 f   game.obj
 0001:00087440       ?DeclareFields@mmShearInstance@@SAXXZ 00488440 f   game.obj
 0001:00087490       ?new_mmShearInstance@@YAPAXH@Z 00488490 f   game.obj
 0001:00087570       ?delete_mmShearInstance@@YAXPAXH@Z 00488570 f   game.obj
 0001:000875c0       ?GetClass@mmShearInstance@@UAEPAVMetaClass@@XZ 004885c0 f   game.obj
 0001:000875d0       ?DeclareFields@mmBuildingInstance@@SAXXZ 004885d0 f   game.obj
 0001:00087620       ?new_mmBuildingInstance@@YAPAXH@Z 00488620 f   game.obj
 0001:00087700       ?delete_mmBuildingInstance@@YAXPAXH@Z 00488700 f   game.obj
 0001:00087750       ?GetClass@mmBuildingInstance@@UAEPAVMetaClass@@XZ 00488750 f   game.obj
 0001:00087760       ?DeclareFields@mmStaticInstance@@SAXXZ 00488760 f   game.obj
 0001:000877b0       ?new_mmStaticInstance@@YAPAXH@Z 004887b0 f   game.obj
 0001:00087890       ?delete_mmStaticInstance@@YAXPAXH@Z 00488890 f   game.obj
 0001:000878e0       ?GetClass@mmStaticInstance@@UAEPAVMetaClass@@XZ 004888e0 f   game.obj
 0001:000878f0       ?DeclareFields@mmFacadeInstance@@SAXXZ 004888f0 f   game.obj
 0001:00087940       ?new_mmFacadeInstance@@YAPAXH@Z 00488940 f   game.obj
 0001:00087a20       ?delete_mmFacadeInstance@@YAXPAXH@Z 00488a20 f   game.obj
 0001:00087a70       ?GetClass@mmFacadeInstance@@UAEPAVMetaClass@@XZ 00488a70 f   game.obj
 0001:00087b00       ??0mmShearInstance@@QAE@XZ 00488b00 f   game.obj
 0001:00087b80       ??0mmBuildingInstance@@QAE@XZ 00488b80 f   game.obj
 0001:00087c60       ??0mmSky@@QAE@XZ           00488c60 f   game.obj
 0001:00087ca0       ??1mmSky@@QAE@XZ           00488ca0 f   game.obj
 0001:00087ce0       ?Init@mmSky@@QAEXPAD@Z     00488ce0 f   game.obj
 0001:00087d10       ?SetTexture@mmSky@@QAEXPAVagiTexDef@@@Z 00488d10 f   game.obj
 0001:00087d30       ?Draw@mmSky@@QAEXAAVMatrix34@@@Z 00488d30 f   game.obj
 0001:00087e70       ?AddCell@asPortalWeb@@QAEPAUasPortalCell@@PADPAVasPortalRenderable@@I@Z 00488e70 f   game.obj
 0001:00087ec0       ?AddEdge@asPortalWeb@@QAEPAUasPortalEdge@@PADPAUasPortalCell@@1H@Z 00488ec0 f   game.obj
 0001:00087f80       ?BuildVisibilityList@asPortalWeb@@QAEHAAVMatrix34@@PAPAUasPortalCell@@HM@Z 00488f80 f   game.obj
 0001:000881e0       ?BuildVisibilityList@asPortalWeb@@QAEHAAVVector3@@PAPAUasPortalCell@@HM@Z 004891e0 f   game.obj
 0001:000882f0       ?BuildGroups@asPortalWeb@@QAEXXZ 004892f0 f   game.obj
 0001:000888e0       ?DeclareFields@asPortalWeb@@SAXXZ 004898e0 f   game.obj
 0001:00088930       ?delete_asPortalWeb@@YAXPAXH@Z 00489930 f   game.obj
 0001:00088980       ??0asPortalEdge@@QAE@PAUasPortalCell@@0H@Z 00489980 f   game.obj
 0001:000889d0       ??0mmPed@@QAE@XZ           004899d0 f   game.obj
 0001:000889f0       ?Init@mmPed@@QAEXPADAAVVector3@@@Z 004899f0 f   game.obj
 0001:00088a80       ?Update@mmPed@@QAEXXZ      00489a80 f   game.obj
 0001:00088aa0       ?Draw@mmPed@@UAIXH@Z       00489aa0 f   game.obj
 0001:00088af0       ?ToMatrix@mmPed@@UAIAAVMatrix34@@AAV2@@Z 00489af0 f   game.obj
 0001:00088b40       ??0mmPedManager@@QAE@XZ    00489b40 f   game.obj
 0001:00088b60       ?Update@mmPedManager@@UAEXXZ 00489b60 f   game.obj
 0001:00088b90       ?DeclareFields@mmPed@@SAXXZ 00489b90 f   game.obj
 0001:00088be0       ?new_mmPed@@YAPAXH@Z       00489be0 f   game.obj
 0001:00088cc0       ?delete_mmPed@@YAXPAXH@Z   00489cc0 f   game.obj
 0001:00088d10       ?GetClass@mmPed@@UAEPAVMetaClass@@XZ 00489d10 f   game.obj
 0001:00088d20       ?DeclareFields@mmPedManager@@SAXXZ 00489d20 f   game.obj
 0001:00088d70       ?new_mmPedManager@@YAPAXH@Z 00489d70 f   game.obj
 0001:00088e30       ?delete_mmPedManager@@YAXPAXH@Z 00489e30 f   game.obj
 0001:00088e80       ?GetClass@mmPedManager@@UAEPAVMetaClass@@XZ 00489e80 f   game.obj
 0001:00088f50       ?LookupSequence@mmAnimation@@QAEHPAD@Z 00489f50 f   game.obj
 0001:00088fb0       ?Load@mmAnimation@@QAEXPADPAVStream@@@Z 00489fb0 f   game.obj
 0001:00089800       ?GetAnimation@@YAPAVmmAnimation@@PAD@Z 0048a800 f   game.obj
 0001:00089930       ?Update@mmAnimInstState@@QAEXXZ 0048a930 f   game.obj
 0001:00089a00       ??0mmCellRenderer@@QAE@XZ  0048aa00 f   game.obj
 0001:00089a30       ?Init@mmCellRenderer@@QAEXPADHHHHPAH@Z 0048aa30 f   game.obj
 0001:00089fe0       ?Cull@mmCellRenderer@@UAEXH@Z 0048afe0 f   game.obj
 0001:0008a760       ??0GraphicsOptions@@QAE@H@Z 0048b760 f   game.obj
 0001:0008ae40       ?SetTexQualString@@YAXXZ   0048be40 f   game.obj
 0001:0008b0e0       ??1GraphicsOptions@@UAE@XZ 0048c0e0 f   game.obj
 0001:0008b140       ?SetResolution@GraphicsOptions@@QAEXXZ 0048c140 f   game.obj
 0001:0008b160       ?SetLightQuality@GraphicsOptions@@QAEXXZ 0048c160 f   game.obj
 0001:0008b180       ?SetRenderer@GraphicsOptions@@QAEXXZ 0048c180 f   game.obj
 0001:0008b390       ?PreSetup@GraphicsOptions@@UAEXXZ 0048c390 f   game.obj
 0001:0008b3b0       ?ResetDefaultAction@GraphicsOptions@@UAEXXZ 0048c3b0 f   game.obj
 0001:0008b400       ?CancelAction@GraphicsOptions@@UAEXXZ 0048c400 f   game.obj
 0001:0008b430       ?DoneAction@GraphicsOptions@@UAEXXZ 0048c430 f   game.obj
 0001:0008b4c0       ?IsAnOptionMenu@OptionsBase@@UAEHXZ 0048c4c0 f   game.obj
 0001:0008b4d0       ?Init@string@@QAEXH@Z      0048c4d0 f   game.obj
 0001:0008b510       ??0VehicleSelectBase@@QAE@H@Z 0048c510 f   game.obj
 0001:0008b670       ?IncColor@VehicleSelectBase@@QAEXXZ 0048c670 f   game.obj
 0001:0008b730       ?DecColor@VehicleSelectBase@@QAEXXZ 0048c730 f   game.obj
 0001:0008b7f0       ?ColorCB@VehicleSelectBase@@QAEXXZ 0048c7f0 f   game.obj
 0001:0008b810       ?InitCarSelection@VehicleSelectBase@@QAEXHMMMM@Z 0048c810 f   game.obj
 0001:0008c550       ??1VehicleSelectBase@@UAE@XZ 0048d550 f   game.obj
 0001:0008c5f0       ?PreSetup@VehicleSelectBase@@UAEXXZ 0048d5f0 f   game.obj
 0001:0008c6e0       ?PostSetup@VehicleSelectBase@@UAEXXZ 0048d6e0 f   game.obj
 0001:0008c710       ?AllSetCar@VehicleSelectBase@@QAEXPADH@Z 0048d710 f   game.obj
 0001:0008c760       ?TDPickCB@VehicleSelectBase@@QAEXXZ 0048d760 f   game.obj
 0001:0008c770       ?Update@VehicleSelectBase@@UAEXXZ 0048d770 f   game.obj
 0001:0008c810       ?GetCarTitle@VehicleSelectBase@@QAEPADHPADFPAVstring@@@Z 0048d810 f   game.obj
 0001:0008c940       ?CurrentVehicleIsLocked@VehicleSelectBase@@QAEHXZ 0048d940 f   game.obj
 0001:0008c960       ?SetLastUnlockedVehicle@VehicleSelectBase@@QAEXXZ 0048d960 f   game.obj
 0001:0008c9c0       ?CarMod@VehicleSelectBase@@QAEXAAH@Z 0048d9c0 f   game.obj
 0001:0008c9f0       ?SetPick@VehicleSelectBase@@QAEXHF@Z 0048d9f0 f   game.obj
 0001:0008ccd0       ?LoadStats@VehicleSelectBase@@QAEHPAD@Z 0048dcd0 f   game.obj
 0001:0008cd70       ?AssignVehicleStats@VehicleSelectBase@@QAEXHMMMM@Z 0048dd70 f   game.obj
 0001:0008cf50       ?FillStats@VehicleSelectBase@@QAEXXZ 0048df50 f   game.obj
 0001:0008cfa0       ?SetLockedLabel@VehicleSelectBase@@QAEXXZ 0048dfa0 f   game.obj
 0001:0008d1a0       ?DecCar@VehicleSelectBase@@QAEXXZ 0048e1a0 f   game.obj
 0001:0008d1b0       ?IncCar@VehicleSelectBase@@QAEXXZ 0048e1b0 f   game.obj
 0001:0008d1c0       ?SetShowcaseFlag@VehicleSelectBase@@QAEXXZ 0048e1c0 f   game.obj
 0001:0008d1d0       ?SetColor@Card2D@@QAEXVVector4@@@Z 0048e1d0 f   game.obj
 0001:0008d230       ?IsValid@mmVehInfo@@QAEHXZ 0048e230 f   game.obj
 0001:0008d240       ??0AudioOptions@@QAE@H@Z   0048e240 f   game.obj
 0001:0008dac0       ??1AudioOptions@@UAE@XZ    0048eac0 f   game.obj
 0001:0008db50       ?PreSetup@AudioOptions@@UAEXXZ 0048eb50 f   game.obj
 0001:0008db60       ?SetWaveVolume@AudioOptions@@QAEXXZ 0048eb60 f   game.obj
 0001:0008db80       ?SetCDVolume@AudioOptions@@QAEXXZ 0048eb80 f   game.obj
 0001:0008dba0       ?SetBalance@AudioOptions@@QAEXXZ 0048eba0 f   game.obj
 0001:0008dbd0       ?SetQuality@AudioOptions@@QAEXXZ 0048ebd0 f   game.obj
 0001:0008dca0       ?SetStereoFX@AudioOptions@@QAEXXZ 0048eca0 f   game.obj
 0001:0008dd20       ?StoreCurrentSetup@AudioOptions@@UAEXXZ 0048ed20 f   game.obj
 0001:0008dd30       ?ResetDefaultAction@AudioOptions@@UAEXXZ 0048ed30 f   game.obj
 0001:0008ddb0       ?CancelAction@AudioOptions@@UAEXXZ 0048edb0 f   game.obj
 0001:0008de30       ?DoneAction@AudioOptions@@UAEXXZ 0048ee30 f   game.obj
 0001:0008de40       ?SetAudioState@AudioOptions@@QAEXXZ 0048ee40 f   game.obj
 0001:0008e050       ?SetCDMusic@AudioOptions@@QAEXXZ 0048f050 f   game.obj
 0001:0008e080       ?SetSoundFX@AudioOptions@@QAEXXZ 0048f080 f   game.obj
 0001:0008e0b0       ?SetCommentary@AudioOptions@@QAEXXZ 0048f0b0 f   game.obj
 0001:0008e0e0       ?FindDevice@AudioOptions@@QAEHPAD@Z 0048f0e0 f   game.obj
 0001:0008e170       ?GetCurrentDeviceName@AudioOptions@@QAEPADXZ 0048f170 f   game.obj
 0001:0008e190       ?ResetStereo@AudioOptions@@QAEXXZ 0048f190 f   game.obj
 0001:0008e1c0       ?ResetSoundFX@AudioOptions@@QAEXXZ 0048f1c0 f   game.obj
 0001:0008e1f0       ?ResetCDMusic@AudioOptions@@QAEXXZ 0048f1f0 f   game.obj
 0001:0008e220       ?ResetSoundQuality@AudioOptions@@QAEXXZ 0048f220 f   game.obj
 0001:0008e280       ?ResetCommentary@AudioOptions@@QAEXXZ 0048f280 f   game.obj
 0001:0008e2b0       ?SetDevice@AudioOptions@@QAEXH@Z 0048f2b0 f   game.obj
 0001:0008e390       ??0Dialog_City@@QAE@HMMMMPAD@Z 0048f390 f   game.obj
 0001:0008e610       ??1Dialog_City@@UAE@XZ     0048f610 f   game.obj
 0001:0008e670       ?PreSetup@Dialog_City@@UAEXXZ 0048f670 f   game.obj
 0001:0008e680       ?DoneCB@Dialog_City@@QAEXXZ 0048f680 f   game.obj
 0001:0008e710       ??0Dialog_Password@@QAE@HMMMMPAD@Z 0048f710 f   game.obj
 0001:0008e880       ?PreSetup@Dialog_Password@@UAEXXZ 0048f880 f   game.obj
 0001:0008e890       ?PasswordCallback@Dialog_Password@@QAEXXZ 0048f890 f   game.obj
 0001:0008e8d0       ??0Dialog_RaceEnvironment@@QAE@HMMMMPAD@Z 0048f8d0 f   game.obj
 0001:0008eee0       ?PreSetup@Dialog_RaceEnvironment@@UAEXXZ 0048fee0 f   game.obj
 0001:0008ef30       ?ControlPedSlider@Dialog_RaceEnvironment@@QAEXXZ 0048ff30 f   game.obj
 0001:0008ef50       ?SetMultiRaceOptions@Dialog_RaceEnvironment@@QAEXH@Z 0048ff50 f   game.obj
 0001:0008ef90       ?DoneCallback@Dialog_RaceEnvironment@@QAEXXZ 0048ff90 f   game.obj
 0001:0008f010       ??0Dialog_HallOfFame@@QAE@HMMMMPAD@Z 00490010 f   game.obj
 0001:0008f410       ?PreSetup@Dialog_HallOfFame@@UAEXXZ 00490410 f   game.obj
 0001:0008f420       ?AddRaceRecord@Dialog_HallOfFame@@QAEXHPAD00H00@Z 00490420 f   game.obj
 0001:0008f560       ?ResetRaceRecord@Dialog_HallOfFame@@QAEXXZ 00490560 f   game.obj
 0001:0008f5f0       ?SetSortState@Dialog_HallOfFame@@QAEXXZ 004905f0 f   game.obj
 0001:0008f670       ?InitRaceRecord@Dialog_HallOfFame@@QAEXXZ 00490670 f   game.obj
 0001:0008f830       ??0Dialog_DriverRec@@QAE@HMMMMPAD@Z 00490830 f   game.obj
 0001:0008fb90       ?PreSetup@Dialog_DriverRec@@UAEXXZ 00490b90 f   game.obj
 0001:0008fba0       ?InitDriverRecord@Dialog_DriverRec@@QAEXH@Z 00490ba0 f   game.obj
 0001:0008fc70       ?AddDriverRecord@Dialog_DriverRec@@QAEHHPADHM0H@Z 00490c70 f   game.obj
 0001:0008fdb0       ?ResetDriverRecord@Dialog_DriverRec@@QAEXXZ 00490db0 f   game.obj
 0001:0008fe40       ?SetRecordPosition@Dialog_DriverRec@@QAEXH@Z 00490e40 f   game.obj
 0001:0008fe60       ?SetSortState@Dialog_DriverRec@@QAEXXZ 00490e60 f   game.obj
 0001:0008fef0       ??0Dialog_Message@@QAE@HMMMMPAD@Z 00490ef0 f   game.obj
 0001:00090000       ?Init@Dialog_Message@@QAEXHPAD0@Z 00491000 f   game.obj
 0001:000900a0       ??0Dialog_NewPlayer@@QAE@HMMMMPAD@Z 004910a0 f   game.obj
 0001:000903c0       ?EnterNewPlayer@Dialog_NewPlayer@@QAEXXZ 004913c0 f   game.obj
 0001:000903d0       ?PreSetup@Dialog_NewPlayer@@UAEXXZ 004913d0 f   game.obj
 0001:00090430       ??0Dialog_Serial@@QAE@HMMMMPAD@Z 00491430 f   game.obj
 0001:00090c90       ??1Dialog_Serial@@UAE@XZ   00491c90 f   game.obj
 0001:00090cf0       ?PreSetup@Dialog_Serial@@UAEXXZ 00491cf0 f   game.obj
 0001:00090d00       ?BuildComs@Dialog_Serial@@QAEXXZ 00491d00 f   game.obj
 0001:00090dc0       ?GetCommPack@Dialog_Serial@@QAEPAUNETCOMMPACK@@XZ 00491dc0 f   game.obj
 0001:00090e00       ??0Dialog_ControlAssign@@QAE@HMMMMPAD@Z 00491e00 f   game.obj
 0001:00090f30       ??0Dialog_TCPIP@@QAE@HMMMMPAD@Z 00491f30 f   game.obj
 0001:000910a0       ?PreSetup@Dialog_TCPIP@@UAEXXZ 004920a0 f   game.obj
 0001:000910b0       ?IPAddressCallback@Dialog_TCPIP@@QAEXXZ 004920b0 f   game.obj
 0001:000910f0       ??0CRSettings@@QAE@H@Z     004920f0 f   game.obj
 0001:00091a30       ??1CRSettings@@UAE@XZ      00492a30 f   game.obj
 0001:00091ab0       ?SetTeam@CRSettings@@QAEXXZ 00492ab0 f   game.obj
 0001:00091ad0       ?SetTeamWidget@CRSettings@@QAEXXZ 00492ad0 f   game.obj
 0001:00091ae0       ?SetHost@CRSettings@@QAEXH@Z 00492ae0 f   game.obj
 0001:00091be0       ?InitPlayerRecord@CRSettings@@QAEXXZ 00492be0 f   game.obj
 0001:00091cb0       ?AddPlayerRecord@CRSettings@@QAEHPADHH0@Z 00492cb0 f   game.obj
 0001:00091df0       ?SetPlayerScore@CRSettings@@QAEXHH@Z 00492df0 f   game.obj
 0001:00091e30       ?ResetPlayerRecord@CRSettings@@QAEXXZ 00492e30 f   game.obj
 0001:00091ec0       ?SetLimitControl@CRSettings@@QAEXXZ 00492ec0 f   game.obj
 0001:00092020       ?EncodeCRData@CRSettings@@QAEHXZ 00493020 f   game.obj
 0001:00092070       ?DecodeCRData@CRSettings@@QAEXH@Z 00493070 f   game.obj
 0001:000920e0       ?GetLimit@CRSettings@@QAEXAAH0@Z 004930e0 f   game.obj
 0001:00092130       ?SetLimit@CRSettings@@QAEXAAH0@Z 00493130 f   game.obj
 0001:000921b0       ?GetLimitVal@CRSettings@@QAEHAAH@Z 004931b0 f   game.obj
 0001:00092200       ?GetGoldMassVal@CRSettings@@QAEHXZ 00493200 f   game.obj
 0001:00092210       ?SetGameClassCallback@CRSettings@@QAEXXZ 00493210 f   game.obj
 0001:00092230       ?SetTeamWidgets@CRSettings@@QAEXXZ 00493230 f   game.obj
 0001:000922e0       ??0NetArena@@QAE@H@Z       004932e0 f   game.obj
 0001:000928d0       ??1NetArena@@UAE@XZ        004938d0 f   game.obj
 0001:00092990       ?ResetGameChat@NetArena@@QAEXXZ 00493990 f   game.obj
 0001:00092a50       ?AddGameChatLine@NetArena@@QAEXPAD@Z 00493a50 f   game.obj
 0001:00092b00       ?PostChatMessages@NetArena@@QAEXXZ 00493b00 f   game.obj
 0001:00092bd0       ?ChatEntry@NetArena@@QAEXXZ 00493bd0 f   game.obj
 0001:00092c90       ?RetrieveChatLine@NetArena@@QAEHPAD@Z 00493c90 f   game.obj
 0001:00092ce0       ?FindRosterName@NetArena@@QAEHPAD@Z 00493ce0 f   game.obj
 0001:00092d50       ?AddRosterName@NetArena@@QAEXPAULocString@@00K@Z 00493d50 f   game.obj
 0001:00092ef0       ?RemoveRosterEntry@NetArena@@QAEXH@Z 00493ef0 f   game.obj
 0001:00092fc0       ?ResetRoster@NetArena@@QAEXXZ 00493fc0 f   game.obj
 0001:000930e0       ?SetReady@NetArena@@QAEXKH@Z 004940e0 f   game.obj
 0001:00093130       ?GetRaceName@NetArena@@QAEPADXZ 00494130 f   game.obj
 0001:00093340       ?PostHostSettings@NetArena@@QAEXXZ 00494340 f   game.obj
 0001:00093500       ?PostPlayerInfo@NetArena@@QAEXPAULocString@@00@Z 00494500 f   game.obj
 0001:000935b0       ?SetHost@NetArena@@QAEXH@Z 004945b0 f   game.obj
 0001:00093620       ??0HostRaceMenu@@QAE@H@Z   00494620 f   game.obj
 0001:00093720       ??0ControlSetup@@QAE@H@Z   00494720 f   game.obj
 0001:00093910       ??1ControlSetup@@UAE@XZ    00494910 f   game.obj
 0001:00093970       ?CreateDeviceOptions@ControlSetup@@QAEXXZ 00494970 f   game.obj
 0001:00093c30       ?DeactivateAllDeviceOptions@ControlSetup@@QAEXXZ 00494c30 f   game.obj
 0001:00093c90       ?ActivateDeviceOptions@ControlSetup@@QAEXXZ 00494c90 f   game.obj
 0001:00093f70       ?SetControlPosition@ControlSetup@@QAEMPAVuiWidget@@MM@Z 00494f70 f   game.obj
 0001:00093f90       ?SetSensitivityCB@ControlSetup@@QAEXXZ 00494f90 f   game.obj
 0001:00093fa0       ?ControlSelect@ControlSetup@@QAEXXZ 00494fa0 f   game.obj
 0001:00093ff0       ?PreSetup@ControlSetup@@UAEXXZ 00494ff0 f   game.obj
 0001:00094020       ?SetFFPermissions@ControlSetup@@QAEXXZ 00495020 f   game.obj
 0001:00094060       ?InitCustomControls@ControlSetup@@QAEXXZ 00495060 f   game.obj
 0001:000940f0       ?Update@ControlSetup@@UAEXXZ 004950f0 f   game.obj
 0001:00094110       ?StoreCurrentSetup@ControlSetup@@UAEXXZ 00495110 f   game.obj
 0001:00094120       ?ResetDefaultAction@ControlSetup@@UAEXXZ 00495120 f   game.obj
 0001:00094160       ?LaunchJoyCpl@ControlSetup@@QAEXXZ 00495160 f   game.obj
 0001:00094210       ?CalibrateWatcher@@YGKPAX@Z 00495210 f   game.obj
 0001:000942f0       ?CancelAction@ControlSetup@@UAEXXZ 004952f0 f   game.obj
 0001:00094300       ?BadAssignCB@ControlSetup@@QAEXXZ 00495300 f   game.obj
 0001:00094330       ?ClearBadAssignment@ControlSetup@@QAEXXZ 00495330 f   game.obj
 0001:00094340       ?CancelBadAssignment@ControlSetup@@QAEXXZ 00495340 f   game.obj
 0001:00094360       ?VerifyBadAssignment@ControlSetup@@QAEXXZ 00495360 f   game.obj
 0001:000943b0       ??0OptionsMenu@@QAE@H@Z    004953b0 f   game.obj
 0001:00094570       ?PreSetup@OptionsMenu@@UAEXXZ 00495570 f   game.obj
 0001:000945a0       ?PostSetup@OptionsMenu@@UAEXXZ 004955a0 f   game.obj
 0001:000945f0       ??0NetSelectMenu@@QAE@H@Z  004955f0 f   game.obj
 0001:00094d40       ??1NetSelectMenu@@UAE@XZ   00495d40 f   game.obj
 0001:00094db0       ?PreSetup@NetSelectMenu@@UAEXXZ 00495db0 f   game.obj
 0001:00094e20       ?PostSetup@NetSelectMenu@@UAEXXZ 00495e20 f   game.obj
 0001:00094e40       ?HostCB@NetSelectMenu@@QAEXXZ 00495e40 f   game.obj
 0001:00094e50       ?JoinCB@NetSelectMenu@@QAEXXZ 00495e50 f   game.obj
 0001:00094e60       ?GetHostJoin@NetSelectMenu@@QAEHXZ 00495e60 f   game.obj
 0001:00094e70       ?FocusDescription@NetSelectMenu@@QAEXH@Z 00495e70 f   game.obj
 0001:00094ef0       ?JoinCallback@NetSelectMenu@@QAEXXZ 00495ef0 f   game.obj
 0001:00094f00       ?ProtocolBack@NetSelectMenu@@QAEXXZ 00495f00 f   game.obj
 0001:00094f20       ?SetNetname@NetSelectMenu@@QAEXPAD@Z 00495f20 f   game.obj
 0001:00094f60       ?SetPhoneNumber@NetSelectMenu@@QAEXPAD@Z 00495f60 f   game.obj
 0001:00094f80       ?SetIPAddress@NetSelectMenu@@QAEXPAD@Z 00495f80 f   game.obj
 0001:00094fa0       ?BuildAllTheModemWidgets@NetSelectMenu@@QAEXMMMMPAD@Z 00495fa0 f   game.obj
 0001:000950b0       ?GetSessions@NetSelectMenu@@QAEPAVUITextScroll@@XZ 004960b0 f   game.obj
 0001:000950c0       ?GetSessionID@NetSelectMenu@@QAEHXZ 004960c0 f   game.obj
 0001:000950d0       ?SetSession@NetSelectMenu@@QAEXPADH@Z 004960d0 f   game.obj
 0001:00095100       ?IPAddressCallback@NetSelectMenu@@QAEXXZ 00496100 f   game.obj
 0001:00095120       ?BuildComs@NetSelectMenu@@QAEXXZ 00496120 f   game.obj
 0001:00095220       ?SetComs@NetSelectMenu@@QAEXXZ 00496220 f   game.obj
 0001:00095330       ?ClearProtocol@NetSelectMenu@@QAEXXZ 00496330 f   game.obj
 0001:00095340       ?SetIPXButton@NetSelectMenu@@QAEXH@Z 00496340 f   game.obj
 0001:00095370       ?SetTCPNetButton@NetSelectMenu@@QAEXH@Z 00496370 f   game.obj
 0001:000953a0       ?SetModemButton@NetSelectMenu@@QAEXH@Z 004963a0 f   game.obj
 0001:000953d0       ?SetSerialButton@NetSelectMenu@@QAEXH@Z 004963d0 f   game.obj
 0001:00095400       ?GetCommPack@NetSelectMenu@@QAEPAUNETCOMMPACK@@XZ 00496400 f   game.obj
 0001:00095430       ?NetNameCB@NetSelectMenu@@QAEXXZ 00496430 f   game.obj
 0001:00095490       ??0RaceMenu@@QAE@H@Z       00496490 f   game.obj
 0001:00095550       ?SetProgressMask@RaceMenu@@QAEXH@Z 00496550 f   game.obj
 0001:00095570       ?SetBlitzMask@RaceMenu@@QAEXH@Z 00496570 f   game.obj
 0001:00095590       ?SetCheckpointMask@RaceMenu@@QAEXH@Z 00496590 f   game.obj
 0001:000955b0       ?SetCircuitMask@RaceMenu@@QAEXH@Z 004965b0 f   game.obj
 0001:00095600       ??0VehShowcase@@QAE@H@Z    00496600 f   game.obj
 0001:00095780       ??0Vehicle@@QAE@H@Z        00496780 f   game.obj
 0001:00095860       ?SetSubMenu@Vehicle@@QAEXH@Z 00496860 f   game.obj
 0001:00095880       ?SetSubMenuButtons@Vehicle@@QAEXXZ 00496880 f   game.obj
 0001:000958a0       ?PreSetup@Vehicle@@UAEXXZ  004968a0 f   game.obj
 0001:000958b0       ?PostSetup@Vehicle@@UAEXXZ 004968b0 f   game.obj
 0001:000958f0       ??0DriverMenu@@QAE@H@Z     004968f0 f   game.obj
 0001:000959d0       ?PreSetup@DriverMenu@@UAEXXZ 004969d0 f   game.obj
 0001:00095a00       ?InitPlayerSelection@DriverMenu@@QAEXXZ 00496a00 f   game.obj
 0001:00095df0       ??1DriverMenu@@UAE@XZ      00496df0 f   game.obj
 0001:00095e60       ?RemovePlayer@DriverMenu@@QAEXPAD@Z 00496e60 f   game.obj
 0001:000960a0       ?SetPlayerPick@DriverMenu@@QAEXH@Z 004970a0 f   game.obj
 0001:000960b0       ?RemoveAllPlayers@DriverMenu@@QAEXXZ 004970b0 f   game.obj
 0001:000960c0       ?AddPlayer@DriverMenu@@QAEXPAD@Z 004970c0 f   game.obj
 0001:000961d0       ?TDPickCB@DriverMenu@@QAEXXZ 004971d0 f   game.obj
 0001:000961e0       ?DeleteCB@DriverMenu@@QAEXXZ 004971e0 f   game.obj
 0001:000961f0       ?DisplayDriverInfo@DriverMenu@@QAEXPAD0000H@Z 004971f0 f   game.obj
 0001:000962b0       ?SetController@DriverMenu@@QAEXPAD@Z 004972b0 f   game.obj
 0001:000962d0       ?SetNetName@DriverMenu@@QAEXPAD@Z 004972d0 f   game.obj
 0001:00096340       ??0AboutMenu@@QAE@H@Z      00497340 f   game.obj
 0001:00096500       ?PreSetup@AboutMenu@@UAEXXZ 00497500 f   game.obj
 0001:00096520       ?Update@AboutMenu@@UAEXXZ  00497520 f   game.obj
 0001:000965a0       ?Cull@AboutMenu@@UAEXXZ    004975a0 f   game.obj
 0001:00096690       ??0RaceMenuBase@@QAE@H@Z   00497690 f   game.obj
 0001:000967d0       ?Init@RaceMenuBase@@QAEXH@Z 004977d0 f   game.obj
 0001:00097590       ??1RaceMenuBase@@UAE@XZ    00498590 f   game.obj
 0001:00097610       ?FocusDescription@RaceMenuBase@@QAEXH@Z 00498610 f   game.obj
 0001:00097640       ?WidgetOnOff@RaceMenuBase@@QAEXHPAVuiWidget@@@Z 00498640 f   game.obj
 0001:00097670       ?SetRW@RaceMenuBase@@QAEXXZ 00498670 f   game.obj
 0001:00097940       ?IsEnvEnabled@RaceMenuBase@@QAEHXZ 00498940 f   game.obj
 0001:00097960       ?SyncRaceState@RaceMenuBase@@QAEXXZ 00498960 f   game.obj
 0001:00097a10       ?CityChange@RaceMenuBase@@QAEXXZ 00498a10 f   game.obj
 0001:00097b90       ?GameCallback@RaceMenuBase@@QAEXXZ 00498b90 f   game.obj
 0001:00097c10       ?LapsCallback@RaceMenuBase@@QAEXXZ 00498c10 f   game.obj
 0001:00097c20       ?WPCallback@RaceMenuBase@@QAEXXZ 00498c20 f   game.obj
 0001:00097c70       ?AICallback@RaceMenuBase@@QAEXXZ 00498c70 f   game.obj
 0001:00097cc0       ?ChangeLocalVals@RaceMenuBase@@QAEXXZ 00498cc0 f   game.obj
 0001:00097f50       ?SetStateRace@RaceMenuBase@@QAEXXZ 00498f50 f   game.obj
 0001:00098320       ?Init320@PUResults@@QAEXXZ 00499320 f   game.obj
 0001:00098700       ?AddTitle@PUResults@@QAEXPAULocString@@0@Z 00499700 f   game.obj
 0001:00098730       ?Reset@PUResults@@UAEXXZ   00499730 f   game.obj
 0001:00098740       ?RosterRO@PUResults@@QAEXH@Z 00499740 f   game.obj
 0001:00098760       ?RestartRO@PUResults@@QAEXH@Z 00499760 f   game.obj
 0001:00098780       ?AddName@PUResults@@QAEXHPADM@Z 00499780 f   game.obj
 0001:00098830       ?AddName@PUResults@@QAEXHPADH@Z 00499830 f   game.obj
 0001:000988f0       ?ClearNames@PUResults@@QAEXXZ 004998f0 f   game.obj
 0001:00098960       ?DisableNextRace@PUResults@@QAEXXZ 00499960 f   game.obj
 0001:00098970       ?EnableNextRace@PUResults@@QAEXXZ 00499970 f   game.obj
 0001:00098980       ?SetMessage@PUResults@@QAEXPAULocString@@@Z 00499980 f   game.obj
 0001:000989a0       ??0PURoster@@QAE@HMMMM@Z   004999a0 f   game.obj
 0001:00098b10       ?Reset@PURoster@@UAEXXZ    00499b10 f   game.obj
 0001:00098b20       ?BootButtonCB@PURoster@@QAEXXZ 00499b20 f   game.obj
 0001:00098b80       ?AddName@PURoster@@QAEXPADKH@Z 00499b80 f   game.obj
 0001:00098c50       ?RemoveName@PURoster@@QAEXPADK@Z 00499c50 f   game.obj
 0001:00098d90       ?RemoveName@PURoster@@QAEXK@Z 00499d90 f   game.obj
 0001:00098ec0       ?ClearNames@PURoster@@QAEXXZ 00499ec0 f   game.obj
 0001:00098f20       ?PostNames@PURoster@@QAEXXZ 00499f20 f   game.obj
 0001:00098f50       ?SetBootCB@PURoster@@QAEXVCallback@@@Z 00499f50 f   game.obj
 0001:00098f70       ?FindRosterName@PURoster@@QAEHK@Z 00499f70 f   game.obj
 0001:00098fd0       ??0PUChat@@QAE@HMMMMPAD@Z  00499fd0 f   game.obj
 0001:000990d0       ?ClearChat@PUChat@@QAEXXZ  0049a0d0 f   game.obj
 0001:00099110       ?ChatEntry@PUChat@@QAEXXZ  0049a110 f   game.obj
 0001:000991a0       ??0PUGraphics@@QAE@HMMMM@Z 0049a1a0 f   game.obj
 0001:000996b0       ?toggle_interlace@@YAXXZ   0049a6b0 f   game.obj
 0001:000996d0       ?toggle_filter@@YAXXZ      0049a6d0 f   game.obj
 0001:00099700       ?fix_lighting_lame@@YAXXZ  0049a700 f   game.obj
 0001:00099720       ?PreSetup@PUGraphics@@UAEXXZ 0049a720 f   game.obj
 0001:00099730       ?CancelAction@PUGraphics@@QAEXXZ 0049a730 f   game.obj
 0001:00099770       ?GetInstance@mmCullCity@@SAPAV1@XZ 0049a770 f   game.obj
 0001:00099780       ??0PUControl@@QAE@HMMMM@Z  0049a780 f   game.obj
 0001:00099a80       ??1PUControl@@UAE@XZ       0049aa80 f   game.obj
 0001:00099ae0       ?PreSetup@PUControl@@UAEXXZ 0049aae0 f   game.obj
 0001:00099b00       ?CancelAction@PUControl@@QAEXXZ 0049ab00 f   game.obj
 0001:00099b20       ?SetRWStates@PUControl@@QAEXXZ 0049ab20 f   game.obj
 0001:00099bb0       ?ControlSelect@PUControl@@QAEXXZ 0049abb0 f   game.obj
 0001:00099be0       ?SetSensitivityCB@PUControl@@QAEXXZ 0049abe0 f   game.obj
 0001:00099c20       ??0PUDebug@@QAE@HMMMM@Z    0049ac20 f   game.obj
 0001:00099dc0       ?RecordCB@PUDebug@@QAEXXZ  0049adc0 f   game.obj
 0001:00099e00       ??0PUOptions@@QAE@HMMMM@Z  0049ae00 f   game.obj
 0001:00099fa0       ??0PUAudioOptions@@QAE@HMMMM@Z 0049afa0 f   game.obj
 0001:0009a1e0       ?SetWaveVolume@PUAudioOptions@@QAEXXZ 0049b1e0 f   game.obj
 0001:0009a200       ?SetCDVolume@PUAudioOptions@@QAEXXZ 0049b200 f   game.obj
 0001:0009a220       ?SetBalance@PUAudioOptions@@QAEXXZ 0049b220 f   game.obj
 0001:0009a250       ?PreSetup@PUAudioOptions@@UAEXXZ 0049b250 f   game.obj
 0001:0009a260       ?CancelAction@PUAudioOptions@@QAEXXZ 0049b260 f   game.obj
 0001:0009a2a0       ??0PUExit@@QAE@HMMMMPAD@Z  0049b2a0 f   game.obj
 0001:0009a410       ??0PUQuit@@QAE@HMMMMPAD@Z  0049b410 f   game.obj
 0001:0009a580       ??1PUMenuBase@@UAE@XZ      0049b580 f   game.obj
 0001:0009a5e0       ?CreateDummyBitmap@PUMenuBase@@QAEPAVagiBitmap@@XZ 0049b5e0 f   game.obj
 0001:0009a640       ?CreateTitle@PUMenuBase@@QAEMXZ 0049b640 f   game.obj
 0001:0009a650       ?AddPrevious@PUMenuBase@@QAEMMMMM@Z 0049b650 f   game.obj
 0001:0009a6c0       ?AddOKCancel@PUMenuBase@@QAEXVCallback@@0@Z 0049b6c0 f   game.obj
 0001:0009a760       ?AddExit@PUMenuBase@@QAEMMMMM@Z 0049b760 f   game.obj
 0001:0009a7d0       ?Update@PUMenuBase@@UAEXXZ 0049b7d0 f   game.obj
 0001:0009a800       ?DisableExit@PUMenuBase@@QAEXXZ 0049b800 f   game.obj
 0001:0009a810       ?EnableExit@PUMenuBase@@QAEXXZ 0049b810 f   game.obj
 0001:0009a850       ??0OptionsBase@@QAE@H@Z    0049b850 f   game.obj
 0001:0009a9b0       ??1OptionsBase@@UAE@XZ     0049b9b0 f   game.obj
 0001:0009aa50       ??0ControlBase@@QAE@XZ     0049ba50 f   game.obj
 0001:0009aa60       ?InitSensitivity@ControlBase@@QAEXXZ 0049ba60 f   game.obj
 0001:0009aac0       ?SetSensitivity@ControlBase@@QAEXXZ 0049bac0 f   game.obj
 0001:0009aaf0       ??0MArray@@QAE@XZ          0049baf0 f   game.obj
 0001:0009ab00       ?Init@MArray@@QAEXH@Z      0049bb00 f   game.obj
 0001:0009ab40       ?Write@MArray@@QAEXPAD@Z   0049bb40 f   game.obj
 0001:0009ae50       ?AddMenuData@MArray@@QAEXHAAVVector4@@PAD@Z 0049be50 f   game.obj
 0001:0009aec0       ??0WArray@@QAE@XZ          0049bec0 f   game.obj
 0001:0009aed0       ??1WArray@@QAE@XZ          0049bed0 f   game.obj
 0001:0009aee0       ?Init@WArray@@QAEXH@Z      0049bee0 f   game.obj
 0001:0009af20       ?Write@WArray@@QAEXPAD@Z   0049bf20 f   game.obj
 0001:0009b140       ?DumpMenu@WArray@@QAEXPAVStream@@PAVUIMenu@@@Z 0049c140 f   game.obj
 0001:0009b3a0       ?AddWidgetData@WArray@@QAEXHHAAVVector4@@PAD@Z 0049c3a0 f   game.obj
 0001:0009b420       ?RetrieveWidgetData@WArray@@QAEHHHAAM000@Z 0049c420 f   game.obj
 0001:0009b670       ??0UIMenu@@QAE@H@Z         0049c670 f   game.obj
 0001:0009b770       ??1UIMenu@@UAE@XZ          0049c770 f   game.obj
 0001:0009b810       ?AssignName@UIMenu@@QAEXPAULocString@@@Z 0049c810 f   game.obj
 0001:0009b860       ?Enable@UIMenu@@QAEXXZ     0049c860 f   game.obj
 0001:0009b8e0       ?Disable@UIMenu@@QAEXXZ    0049c8e0 f   game.obj
 0001:0009b900       ?PreSetup@UIMenu@@UAEXXZ   0049c900 f   game.obj
 0001:0009b930       ?Update@UIMenu@@UAEXXZ     0049c930 f   game.obj
 0001:0009b940       ?SetAction@UIMenu@@QAEXW4eSource@1@@Z 0049c940 f   game.obj
 0001:0009b960       ?ClearToolTip@UIMenu@@QAEXXZ 0049c960 f   game.obj
 0001:0009b990       ?BackUp@UIMenu@@UAEXXZ     0049c990 f   game.obj
 0001:0009b9a0       ?SetBstate@UIMenu@@QAEXH@Z 0049c9a0 f   game.obj
 0001:0009b9d0       ?SetFocusWidget@UIMenu@@QAEXH@Z 0049c9d0 f   game.obj
 0001:0009ba10       ?GetWidgetID@UIMenu@@QAEHXZ 0049ca10 f   game.obj
 0001:0009ba20       ?GetBstate@UIMenu@@QAEHXZ  0049ca20 f   game.obj
 0001:0009ba30       ?FindTheFirstFocusWidget@UIMenu@@QAEHXZ 0049ca30 f   game.obj
 0001:0009ba70       ?Increment@UIMenu@@QAEHXZ  0049ca70 f   game.obj
 0001:0009bb30       ?Decrement@UIMenu@@QAEHXZ  0049cb30 f   game.obj
 0001:0009bbe0       ?AddHotSpot@UIMenu@@QAEPAVuiWidget@@HPADMMMMVCallback@@@Z 0049cbe0 f   game.obj
 0001:0009bcc0       ?AddTextDropdown@UIMenu@@QAEPAVUITextDropdown@@HPAULocString@@PAHMMMMVstring@@HHHVCallback@@PAD@Z 0049ccc0 f   game.obj
 0001:0009be40       ?AddTextRoller@UIMenu@@QAEPAVUITextRoller@@HPAULocString@@PAHMMMMVstring@@HHHHVCallback@@@Z 0049ce40 f   game.obj
 0001:0009bf90       ?AddTextRoller2@UIMenu@@QAEPAVUITextRoller2@@HPAULocString@@PAHMMMMVstring@@HHHHVCallback@@@Z 0049cf90 f   game.obj
 0001:0009c110       ?AddTextScroll@UIMenu@@QAEPAVUITextScroll@@HPAXMMMMVstring@@HPAHVCallback@@@Z 0049d110 f   game.obj
 0001:0009c2b0       ?AddCompScroll@UIMenu@@QAEPAVUICompositeScroll@@HMMMMMHPAHHHVCallback@@@Z 0049d2b0 f   game.obj
 0001:0009c430       ?AddTextField@UIMenu@@QAEPAVUITextField@@HPAULocString@@PADMMMMHHHHHVCallback@@@Z 0049d430 f   game.obj
 0001:0009c5a0       ?AddUIControl@UIMenu@@QAEPAVUIControlWidget@@HMMMMMPAVmmIO@@VCallback@@@Z 0049d5a0 f   game.obj
 0001:0009c670       ?AddSlider@UIMenu@@QAEPAVUISlider@@HPAULocString@@PAMMMMMMMHHHHVCallback@@@Z 0049d670 f   game.obj
 0001:0009c7b0       ?AddButton@UIMenu@@QAEPAVUIButton@@HPAULocString@@MMMMHHVCallback@@@Z 0049d7b0 f   game.obj
 0001:0009c8d0       ?AddLabel@UIMenu@@QAEPAVUILabel@@HPAULocString@@MMMMHH@Z 0049d8d0 f   game.obj
 0001:0009c9e0       ?AddBMLabel@UIMenu@@QAEPAVUIBMLabel@@HPADPAVstring@@MMPAH@Z 0049d9e0 f   game.obj
 0001:0009caf0       ?AddIconW@UIMenu@@QAEPAVUIIconW@@HPAULocString@@PADMMMMVCallback@@@Z 0049daf0 f   game.obj
 0001:0009cc00       ?AddToggle@UIMenu@@QAEPAVUIToggleButton@@HPAULocString@@PAHMMMMHHVCallback@@@Z 0049dc00 f   game.obj
 0001:0009cd20       ?AddToggle2@UIMenu@@QAEPAVUIToggleButton2@@HPAULocString@@PAHMMMMHHVCallback@@@Z 0049dd20 f   game.obj
 0001:0009ce40       ?AddMex@UIMenu@@QAEPAVUIMexButton@@HPAULocString@@PAHHMMMMHHVCallback@@@Z 0049de40 f   game.obj
 0001:0009cf60       ?AddBMButton@UIMenu@@QAEPAVUIBMButton@@HPADMMHVCallback@@PAHHH1@Z 0049df60 f   game.obj
 0001:0009d0f0       ?AddCWArray@UIMenu@@QAEPAVUICWArray@@HMMMMHVCallback@@@Z 0049e0f0 f   game.obj
 0001:0009d230       ?AddVScrollBar@UIMenu@@QAEPAVUIVScrollBar@@HPAHMMMMMMHHVCallback@@@Z 0049e230 f   game.obj
 0001:0009d380       ?MouseAction@UIMenu@@QAEXTeqEvent@@@Z 0049e380 f   game.obj
 0001:0009d3f0       ?KeyboardAction@UIMenu@@QAEXTeqEvent@@@Z 0049e3f0 f   game.obj
 0001:0009d480       ?MouseHitCheck@UIMenu@@QAEPAVuiWidget@@HMM@Z 0049e480 f   game.obj
 0001:0009d5b0       ?SetSelected@UIMenu@@QAEXXZ 0049e5b0 f   game.obj
 0001:0009d5e0       ?ClearSelected@UIMenu@@QAEXXZ 0049e5e0 f   game.obj
 0001:0009d610       ?ClearWidgets@UIMenu@@QAEXXZ 0049e610 f   game.obj
 0001:0009d640       ?CheckMouseHits@UIMenu@@QAEXXZ 0049e640 f   game.obj
 0001:0009d7b0       ?AddWidget@UIMenu@@QAEXPAVuiWidget@@PADMMMMH1@Z 0049e7b0 f   game.obj
 0001:0009d8d0       ??0MenuManager@@QAE@XZ     0049e8d0 f   game.obj
 0001:0009da90       ??1MenuManager@@UAE@XZ     0049ea90 f   game.obj
 0001:0009dcb0       ?MouseAction@MenuManager@@QAEPAVuiWidget@@HMM@Z 0049ecb0 f   game.obj
 0001:0009dd30       ?ClearAllWidgets@MenuManager@@QAEXXZ 0049ed30 f   game.obj
 0001:0009dd70       ?Init@MenuManager@@QAEXHHPAD@Z 0049ed70 f   game.obj
 0001:0009e100       ?Init@MenuManager@@QAEXPAVasCamera@@HHMMMM@Z 0049f100 f   game.obj
 0001:0009e370       ?InitCommonStuff@MenuManager@@QAEXHH@Z 0049f370 f   game.obj
 0001:0009e650       ?InitGlobalStrings@MenuManager@@QAEXXZ 0049f650 f   game.obj
 0001:0009edc0       ?LoadRaceNames@MenuManager@@QAEXXZ 0049fdc0 f   game.obj
 0001:0009f0c0       ?GetControllerName@MenuManager@@QAEPADH@Z 004a00c0 f   game.obj
 0001:0009f160       ?GetFont@MenuManager@@QAEPAXH@Z 004a0160 f   game.obj
 0001:0009f230       ?GetFGColor@MenuManager@@QAEAAVVector4@@H@Z 004a0230 f   game.obj
 0001:0009f3c0       ?CheckBG@MenuManager@@QAEXPAVUIMenu@@@Z 004a03c0 f   game.obj
 0001:0009f3e0       ?SetDefaultBackgroundImage@MenuManager@@QAEXPAD@Z 004a03e0 f   game.obj
 0001:0009f440       ?SetBackgroundImage@MenuManager@@QAEXPAD@Z 004a0440 f   game.obj
 0001:0009f490       ?EnablePU@MenuManager@@QAEXXZ 004a0490 f   game.obj
 0001:0009f510       ?DisablePU@MenuManager@@QAEXXZ 004a0510 f   game.obj
 0001:0009f550       ?OpenDialog@MenuManager@@QAEXH@Z 004a0550 f   game.obj
 0001:0009f5d0       ?CloseDialog@MenuManager@@QAEXXZ 004a05d0 f   game.obj
 0001:0009f600       ?EnableNavBar@MenuManager@@QAEXXZ 004a0600 f   game.obj
 0001:0009f620       ?DisableNavBar@MenuManager@@QAEXXZ 004a0620 f   game.obj
 0001:0009f630       ?PlaySound@MenuManager@@QAEXH@Z 004a0630 f   game.obj
 0001:0009f6e0       ?DeclareLastDrawn@MenuManager@@QAEXPAVasNode@@@Z 004a06e0 f   game.obj
 0001:0009f6f0       ?ResChange@MenuManager@@UAEXHH@Z 004a06f0 f   game.obj
 0001:0009f720       ?Flush@MenuManager@@QAEXXZ 004a0720 f   game.obj
 0001:0009f750       ?CheckInput@MenuManager@@QAEXXZ 004a0750 f   game.obj
 0001:0009f7d0       ?ToggleFocus@MenuManager@@QAEXH@Z 004a07d0 f   game.obj
 0001:0009f850       ?RegisterWidgetFocus@MenuManager@@QAEXHMMMMPAVuiWidget@@@Z 004a0850 f   game.obj
 0001:0009f8b0       ?ScanGlobalKeys@MenuManager@@QAEHH@Z 004a08b0 f   game.obj
 0001:0009fc60       ?SwitchFocus@MenuManager@@QAEXPAVUIMenu@@@Z 004a0c60 f   game.obj
 0001:0009fcb0       ?NotifyMouseSelect@MenuManager@@QAEXPAVUIMenu@@@Z 004a0cb0 f   game.obj
 0001:0009fcf0       ?FindMenu@MenuManager@@QAEHH@Z 004a0cf0 f   game.obj
 0001:0009fd30       ?SetPreviousMenu@MenuManager@@QAEXH@Z 004a0d30 f   game.obj
 0001:0009fd60       ?AddMenu2@MenuManager@@QAEHPAVUIMenu@@@Z 004a0d60 f   game.obj
 0001:0009fdc0       ?PlayMenuSwitchSound@MenuManager@@AAEXXZ 004a0dc0 f   game.obj
 0001:0009fe60       ?AllocateMenuSwitchAudio@MenuManager@@QAEXXZ 004a0e60 f   game.obj
 0001:0009ffe0       ?PlayRecordsSound@MenuManager@@QAEXXZ 004a0fe0 f   game.obj
 0001:000a0010       ?AddBrackets@MenuManager@@QAEXPAVUIIcon@@0PAVuiWidget@@MM@Z 004a1010 f   game.obj
 0001:000a00f0       ?Help@MenuManager@@QAEXXZ  004a10f0 f   game.obj
 0001:000a01c0       ?HelpWatcher@@YGKPAX@Z     004a11c0 f   game.obj
 0001:000a0330       ??0uiNavBar@@QAE@H@Z       004a1330 f   game.obj
 0001:000a0540       ?Help@uiNavBar@@QAEXXZ     004a1540 f   game.obj
 0001:000a0550       ?Minimize@uiNavBar@@QAEXXZ 004a1550 f   game.obj
 0001:000a05a0       ?OptionActive@uiNavBar@@QAEXXZ 004a15a0 f   game.obj
 0001:000a05c0       ?OptionInActive@uiNavBar@@QAEXXZ 004a15c0 f   game.obj
 0001:000a05e0       ?Update@uiNavBar@@UAEXXZ   004a15e0 f   game.obj
 0001:000a0680       ?SetPrevPos@uiNavBar@@QAEXMM@Z 004a1680 f   game.obj
 0001:000a06d0       ?TurnOnPrev@uiNavBar@@QAEXXZ 004a16d0 f   game.obj
 0001:000a06f0       ?TurnOffPrev@uiNavBar@@QAEXXZ 004a16f0 f   game.obj
 0001:000a0740       ??0UITextField@@QAE@XZ     004a1740 f   game.obj
 0001:000a0850       ??1UITextField@@UAE@XZ     004a1850 f   game.obj
 0001:000a08c0       ?Init@UITextField@@QAEXPAULocString@@PADMMMMHHHHHVCallback@@PAVUIMenu@@@Z 004a18c0 f   game.obj
 0001:000a0bd0       ?SetField@UITextField@@QAEXPAD@Z 004a1bd0 f   game.obj
 0001:000a0c30       ?CaptureAction@UITextField@@UAEXTeqEvent@@@Z 004a1c30 f   game.obj
 0001:000a0c40       ?Action@UITextField@@UAEXTeqEvent@@@Z 004a1c40 f   game.obj
 0001:000a0c90       ?SetTextField@UITextField@@QAEXXZ 004a1c90 f   game.obj
 0001:000a0ce0       ?Switch@UITextField@@UAEXH@Z 004a1ce0 f   game.obj
 0001:000a0d80       ?IsValidChar@UITextField@@QAEHG@Z 004a1d80 f   game.obj
 0001:000a0e10       ?WmCharHandler@UITextField@@QAEXE@Z 004a1e10 f   game.obj
 0001:000a0f80       ?KeyAction@UITextField@@QAEXPATeqEvent@@@Z 004a1f80 f   game.obj
 0001:000a10c0       ?Disable@uiWidget@@UAEXXZ  004a20c0 f   game.obj
 0001:000a10d0       ?Enable@uiWidget@@UAEXXZ   004a20d0 f   game.obj
 0001:000a10e0       ?TurnOn@uiWidget@@UAEXXZ   004a20e0 f   game.obj
 0001:000a1100       ?TurnOff@uiWidget@@UAEXXZ  004a2100 f   game.obj
 0001:000a1110       ?SetReadOnly@uiWidget@@UAEXH@Z 004a2110 f   game.obj
 0001:000a1130       ?GetScreenHeight@uiWidget@@UAEMXZ 004a2130 f   game.obj
 0001:000a1170       ?Update@UITextField@@UAEXXZ 004a2170 f   game.obj
 0001:000a1180       ??0UITextDropdown@@QAE@XZ  004a2180 f   game.obj
 0001:000a1210       ??1UITextDropdown@@UAE@XZ  004a2210 f   game.obj
 0001:000a1280       ?Init@UITextDropdown@@QAEXPAULocString@@PAHMMMMVstring@@HHHVCallback@@PAD@Z 004a2280 f   game.obj
 0001:000a1640       ?GetScreenHeight@UITextDropdown@@UAEMXZ 004a2640 f   game.obj
 0001:000a1650       ?SetData@UITextDropdown@@QAEXPAH@Z 004a2650 f   game.obj
 0001:000a1680       ?Update@UITextDropdown@@UAEXXZ 004a2680 f   game.obj
 0001:000a16f0       ?CaptureAction@UITextDropdown@@UAEXTeqEvent@@@Z 004a26f0 f   game.obj
 0001:000a1860       ?Action@UITextDropdown@@UAEXTeqEvent@@@Z 004a2860 f   game.obj
 0001:000a1990       ?Switch@UITextDropdown@@UAEXH@Z 004a2990 f   game.obj
 0001:000a1a10       ?SetSliderFocus@UITextDropdown@@QAEXH@Z 004a2a10 f   game.obj
 0001:000a1a90       ?SetValue@UITextDropdown@@QAEHH@Z 004a2a90 f   game.obj
 0001:000a1ac0       ?SetDisabledMask@UITextDropdown@@QAEXJ@Z 004a2ac0 f   game.obj
 0001:000a1ae0       ?Cull@UITextDropdown@@UAEXXZ 004a2ae0 f   game.obj
 0001:000a1b70       ??0UISlider@@QAE@XZ        004a2b70 f   game.obj
 0001:000a1c00       ??1UISlider@@UAE@XZ        004a2c00 f   game.obj
 0001:000a1c70       ?Init@UISlider@@QAEXPAULocString@@PAMMMMMMMHHHHVCallback@@PAVUIMenu@@@Z 004a2c70 f   game.obj
 0001:000a1e90       ?SetPosition@UISlider@@UAEXMM@Z 004a2e90 f   game.obj
 0001:000a1ff0       ?Update@UISlider@@UAEXXZ   004a2ff0 f   game.obj
 0001:000a2050       ?Action@UISlider@@UAEXTeqEvent@@@Z 004a3050 f   game.obj
 0001:000a2120       ?Switch@UISlider@@UAEXH@Z  004a3120 f   game.obj
 0001:000a2190       ?SetReadWrite@UISlider@@QAEXH@Z 004a3190 f   game.obj
 0001:000a21e0       ?SetValue@UISlider@@QAEMM@Z 004a31e0 f   game.obj
 0001:000a2210       ?SetMouseParams@UISlider@@QAEXM@Z 004a3210 f   game.obj
 0001:000a2260       ?EvalMouseXY@UISlider@@QAEXMM@Z 004a3260 f   game.obj
 0001:000a2390       ?SetData@UISlider@@QAEXM@Z 004a3390 f   game.obj
 0001:000a23b0       ?GetFudgeWidth@UISlider@@QAEMXZ 004a33b0 f   game.obj
 0001:000a23f0       ?GetScreenHeight@UISlider@@UAEMXZ 004a33f0 f   game.obj
 0001:000a2400       ??0UIBMLabel@@QAE@XZ       004a3400 f   game.obj
 0001:000a2470       ??1UIBMLabel@@UAE@XZ       004a3470 f   game.obj
 0001:000a24e0       ?Init@UIBMLabel@@QAEXPAVstring@@MMPAH@Z 004a34e0 f   game.obj
 0001:000a25c0       ?SetBitmapName@UIBMLabel@@QAEXPAVstring@@@Z 004a35c0 f   game.obj
 0001:000a2660       ?LoadBitmap@UIBMLabel@@AAEXXZ 004a3660 f   game.obj
 0001:000a2740       ?CreateDummyBitmap@UIBMLabel@@QAEPAVagiBitmap@@XZ 004a3740 f   game.obj
 0001:000a2790       ?Update@UIBMLabel@@UAEXXZ  004a3790 f   game.obj
 0001:000a27c0       ?Cull@UIBMLabel@@UAEXXZ    004a37c0 f   game.obj
 0001:000a2800       ?DeclareFields@UIBMLabel@@SAXXZ 004a3800 f   game.obj
 0001:000a2850       ?new_UIBMLabel@@YAPAXH@Z   004a3850 f   game.obj
 0001:000a2920       ?delete_UIBMLabel@@YAXPAXH@Z 004a3920 f   game.obj
 0001:000a2970       ?GetClass@UIBMLabel@@UAEPAVMetaClass@@XZ 004a3970 f   game.obj
 0001:000a29e0       ??0uiWidget@@QAE@XZ        004a39e0 f   game.obj
 0001:000a2a10       ?SetToolTipText@uiWidget@@QAEXPAULocString@@@Z 004a3a10 f   game.obj
 0001:000a2a30       ??0mmCompRaceRecord@@QAE@XZ 004a3a30 f   game.obj
 0001:000a2a70       ??1mmCompRaceRecord@@UAE@XZ 004a3a70 f   game.obj
 0001:000a2b10       ?Init@mmCompRaceRecord@@QAEXHPAD0000HH@Z 004a3b10 f   game.obj
 0001:000a2ba0       ?InitTitle@mmCompRaceRecord@@QAEXMMMMPAULocString@@00000H@Z 004a3ba0 f   game.obj
 0001:000a2c10       ?LoadBitmap@mmCompRaceRecord@@QAEXPAD@Z 004a3c10 f   game.obj
 0001:000a2c60       ?Reset@mmCompRaceRecord@@UAEXXZ 004a3c60 f   game.obj
 0001:000a2c70       ?Update@mmCompRaceRecord@@UAEXXZ 004a3c70 f   game.obj
 0001:000a2c80       ?SetSubwidgetGeometry@mmCompRaceRecord@@QAEXXZ 004a3c80 f   game.obj
 0001:000a2db0       ?SetGeometry@mmCompRaceRecord@@UAEXMMMM@Z 004a3db0 f   game.obj
 0001:000a2de0       ?SelectIfRaceType@mmCompRaceRecord@@QAEXHH@Z 004a3de0 f   game.obj
 0001:000a2e20       ?SetPosition@mmCompRaceRecord@@UAEXPAVmmTextNode@@HM@Z 004a3e20 f   game.obj
 0001:000a2ec0       ?Cull@mmCompRaceRecord@@UAEXXZ 004a3ec0 f   game.obj
 0001:000a2f30       ?DisableBlt@mmCompBase@@UAEXXZ 004a3f30 f   game.obj
 0001:000a2f40       ?SetBltXY@mmCompBase@@UAEXMM@Z 004a3f40 f   game.obj
 0001:000a2f70       ?Switch@mmCompBase@@UAEXH@Z 004a3f70 f   game.obj
 0001:000a2f80       ?SetGeometry@mmCompBase@@UAEXMMMM@Z 004a3f80 f   game.obj
 0001:000a2fd0       ??0UICompositeScroll@@QAE@XZ 004a3fd0 f   game.obj
 0001:000a30b0       ??1UICompositeScroll@@UAE@XZ 004a40b0 f   game.obj
 0001:000a3130       ?Init@UICompositeScroll@@QAEXMMMMMHPAHHHVCallback@@@Z 004a4130 f   game.obj
 0001:000a3370       ?InitVScroll@UICompositeScroll@@QAEXMMM@Z 004a4370 f   game.obj
 0001:000a33f0       ?RemoveAllComponentChildren@UICompositeScroll@@QAEXXZ 004a43f0 f   game.obj
 0001:000a3440       ?AddComponent@UICompositeScroll@@QAEXPAVmmCompBase@@@Z 004a4440 f   game.obj
 0001:000a3510       ?GetSelectedCount@UICompositeScroll@@QAEHXZ 004a4510 f   game.obj
 0001:000a3560       ?Redraw@UICompositeScroll@@QAEXXZ 004a4560 f   game.obj
 0001:000a36b0       ?VScrollCB@UICompositeScroll@@QAEXXZ 004a46b0 f   game.obj
 0001:000a3720       ?SetVScrollVals@UICompositeScroll@@QAEXXZ 004a4720 f   game.obj
 0001:000a3770       ?SetVScrollPos@UICompositeScroll@@QAEXXZ 004a4770 f   game.obj
 0001:000a37b0       ?Reset@UICompositeScroll@@UAEXXZ 004a47b0 f   game.obj
 0001:000a37d0       ?Update@UICompositeScroll@@UAEXXZ 004a47d0 f   game.obj
 0001:000a37e0       ?GetHit@UICompositeScroll@@QAEHMM@Z 004a47e0 f   game.obj
 0001:000a3860       ?Action@UICompositeScroll@@UAEXTeqEvent@@@Z 004a4860 f   game.obj
 0001:000a39e0       ?CaptureAction@UICompositeScroll@@UAEXTeqEvent@@@Z 004a49e0 f   game.obj
 0001:000a3a50       ?Switch@UICompositeScroll@@UAEXH@Z 004a4a50 f   game.obj
 0001:000a3a90       ?Clear@UICompositeScroll@@QAEXXZ 004a4a90 f   game.obj
 0001:000a3aa0       ?SetPosition@UICompositeScroll@@QAEXH@Z 004a4aa0 f   game.obj
 0001:000a3b10       ??0mmCompDRecord@@QAE@XZ   004a4b10 f   game.obj
 0001:000a3b50       ??1mmCompDRecord@@UAE@XZ   004a4b50 f   game.obj
 0001:000a3c00       ?Init@mmCompDRecord@@QAEXHPADM0HHH@Z 004a4c00 f   game.obj
 0001:000a3cf0       ?InitTitle@mmCompDRecord@@QAEXMMMMPAULocString@@0000H@Z 004a4cf0 f   game.obj
 0001:000a3d60       ?LoadBitmap@mmCompDRecord@@QAEXPAD@Z 004a4d60 f   game.obj
 0001:000a3dd0       ?Reset@mmCompDRecord@@UAEXXZ 004a4dd0 f   game.obj
 0001:000a3de0       ?Update@mmCompDRecord@@UAEXXZ 004a4de0 f   game.obj
 0001:000a3e10       ?SetSubwidgetGeometry@mmCompDRecord@@QAEXXZ 004a4e10 f   game.obj
 0001:000a3f30       ?SetPosition@mmCompDRecord@@UAEXPAVmmTextNode@@HM@Z 004a4f30 f   game.obj
 0001:000a3fd0       ?SetGeometry@mmCompDRecord@@UAEXMMMM@Z 004a4fd0 f   game.obj
 0001:000a4000       ?SetBltXY@mmCompDRecord@@UAEXMM@Z 004a5000 f   game.obj
 0001:000a4050       ?Cull@mmCompDRecord@@UAEXXZ 004a5050 f   game.obj
 0001:000a4120       ??0UIBMButton@@QAE@XZ      004a5120 f   game.obj
 0001:000a41c0       ??1UIBMButton@@UAE@XZ      004a51c0 f   game.obj
 0001:000a4240       ?Init@UIBMButton@@QAEXPADMMHHPAHHHPAULocString@@VCallback@@3@Z 004a5240 f   game.obj
 0001:000a44d0       ?LoadBitmap@UIBMButton@@QAEXPAD@Z 004a54d0 f   game.obj
 0001:000a4540       ?GetDiv@UIBMButton@@QAEHXZ 004a5540 f   game.obj
 0001:000a4570       ?CreateDummyBitmap@UIBMButton@@QAEPAVagiBitmap@@XZ 004a5570 f   game.obj
 0001:000a45d0       ?GetSize@UIBMButton@@AAEXXZ 004a55d0 f   game.obj
 0001:000a4600       ?SetPosition@UIBMButton@@UAEXMM@Z 004a5600 f   game.obj
 0001:000a4770       ?GetHitArea@UIBMButton@@QAEXAAM0@Z 004a5770 f   game.obj
 0001:000a47d0       ?DoToggle@UIBMButton@@QAEXXZ 004a57d0 f   game.obj
 0001:000a4890       ?Kill@UIBMButton@@QAEXXZ   004a5890 f   game.obj
 0001:000a48b0       ?Unkill@UIBMButton@@QAEXXZ 004a58b0 f   game.obj
 0001:000a48f0       ?Switch@UIBMButton@@UAEXH@Z 004a58f0 f   game.obj
 0001:000a4a20       ?Action@UIBMButton@@UAEXTeqEvent@@@Z 004a5a20 f   game.obj
 0001:000a4ad0       ?MexOff@UIBMButton@@QAEXXZ 004a5ad0 f   game.obj
 0001:000a4ae0       ?MexOn@UIBMButton@@QAEXXZ  004a5ae0 f   game.obj
 0001:000a4b20       ?Update@UIBMButton@@UAEXXZ 004a5b20 f   game.obj
 0001:000a4cb0       ?ReturnDescription@UIBMButton@@UAEPADXZ 004a5cb0 f   game.obj
 0001:000a4d60       ?GetScreenHeight@UIBMButton@@UAEMXZ 004a5d60 f   game.obj
 0001:000a4d70       ?Cull@UIBMButton@@UAEXXZ   004a5d70 f   game.obj
 0001:000a4f20       ?AllocateSounds@UIBMButton@@CAXXZ 004a5f20 f   game.obj
 0001:000a5110       ?PlaySound@UIBMButton@@AAEXXZ 004a6110 f   game.obj
 0001:000a5140       ?DeclareFields@UIBMButton@@SAXXZ 004a6140 f   game.obj
 0001:000a5190       ?new_UIBMButton@@YAPAXH@Z  004a6190 f   game.obj
 0001:000a5260       ?delete_UIBMButton@@YAXPAXH@Z 004a6260 f   game.obj
 0001:000a52b0       ?GetClass@UIBMButton@@UAEPAVMetaClass@@XZ 004a62b0 f   game.obj
 0001:000a52c0       ?Enable@UIBMButton@@UAEXXZ 004a62c0 f   game.obj
 0001:000a52e0       ?Disable@UIBMButton@@UAEXXZ 004a62e0 f   game.obj
 0001:000a5360       ??0mmCompCRPlayer@@QAE@XZ  004a6360 f   game.obj
 0001:000a5390       ??1mmCompCRPlayer@@UAE@XZ  004a6390 f   game.obj
 0001:000a5420       ?Init@mmCompCRPlayer@@QAEXPADH0HH@Z 004a6420 f   game.obj
 0001:000a5550       ?Reset@mmCompCRPlayer@@UAEXXZ 004a6550 f   game.obj
 0001:000a5560       ?Update@mmCompCRPlayer@@UAEXXZ 004a6560 f   game.obj
 0001:000a5570       ?SetPoints@mmCompCRPlayer@@QAEXH@Z 004a6570 f   game.obj
 0001:000a5590       ?SetSubwidgetGeometry@mmCompCRPlayer@@QAEXXZ 004a6590 f   game.obj
 0001:000a5690       ?SetPosition@mmCompCRPlayer@@UAEXPAVmmTextNode@@HM@Z 004a6690 f   game.obj
 0001:000a5720       ?SetGeometry@mmCompCRPlayer@@UAEXMMMM@Z 004a6720 f   game.obj
 0001:000a5750       ?Cull@mmCompCRPlayer@@UAEXXZ 004a6750 f   game.obj
 0001:000a5820       ??0mmCompRoster@@QAE@XZ    004a6820 f   game.obj
 0001:000a5890       ??1mmCompRoster@@UAE@XZ    004a6890 f   game.obj
 0001:000a5920       ?Init@mmCompRoster@@QAEXPAD00K@Z 004a6920 f   game.obj
 0001:000a59a0       ?LoadBitmap@mmCompRoster@@QAEXPAD@Z 004a69a0 f   game.obj
 0001:000a59f0       ?Reset@mmCompRoster@@UAEXXZ 004a69f0 f   game.obj
 0001:000a5a00       ?Update@mmCompRoster@@UAEXXZ 004a6a00 f   game.obj
 0001:000a5a30       ?SetReady@mmCompRoster@@QAEXH@Z 004a6a30 f   game.obj
 0001:000a5a50       ?SetSubwidgetGeometry@mmCompRoster@@QAEXXZ 004a6a50 f   game.obj
 0001:000a5af0       ?SetPosition@mmCompRoster@@UAEXPAVmmTextNode@@HM@Z 004a6af0 f   game.obj
 0001:000a5b70       ?SetGeometry@mmCompRoster@@UAEXMMMM@Z 004a6b70 f   game.obj
 0001:000a5ba0       ?SetBltXY@mmCompRoster@@UAEXMM@Z 004a6ba0 f   game.obj
 0001:000a5be0       ?Cull@mmCompRoster@@UAEXXZ 004a6be0 f   game.obj
 0001:000a5c40       ??0UICWArray@@QAE@XZ       004a6c40 f   game.obj
 0001:000a5d00       ?Reset@UICWArray@@UAEXXZ   004a6d00 f   game.obj
 0001:000a5d10       ?Init@UICWArray@@QAEXMMMMHVCallback@@@Z 004a6d10 f   game.obj
 0001:000a5f70       ?VScrollCB@UICWArray@@QAEXXZ 004a6f70 f   game.obj
 0001:000a5fe0       ?SetVScrollVals@UICWArray@@QAEXXZ 004a6fe0 f   game.obj
 0001:000a6050       ?SetVScrollPos@UICWArray@@QAEXXZ 004a7050 f   game.obj
 0001:000a6080       ?Redraw@UICWArray@@QAEXXZ  004a7080 f   game.obj
 0001:000a61e0       ?Switch@UICWArray@@UAEXH@Z 004a71e0 f   game.obj
 0001:000a6220       ?Action@UICWArray@@UAEXTeqEvent@@@Z 004a7220 f   game.obj
 0001:000a6350       ?CaptureAction@UICWArray@@UAEXTeqEvent@@@Z 004a7350 f   game.obj
 0001:000a63c0       ?Update@UICWArray@@UAEXXZ  004a73c0 f   game.obj
 0001:000a6440       ?EnterCapture@UICWArray@@QAEXH@Z 004a7440 f   game.obj
 0001:000a64b0       ?ForceCapture@UICWArray@@QAEXXZ 004a74b0 f   game.obj
 0001:000a64e0       ?AcceptCapture@UICWArray@@QAEXXZ 004a74e0 f   game.obj
 0001:000a6530       ?ResetCapture@UICWArray@@QAEXXZ 004a7530 f   game.obj
 0001:000a6560       ?CheckCapture@UICWArray@@QAEXXZ 004a7560 f   game.obj
 0001:000a66a0       ??0UITextScroll@@QAE@XZ    004a76a0 f   game.obj
 0001:000a67b0       ??1UITextScroll@@UAE@XZ    004a77b0 f   game.obj
 0001:000a6830       ?Init@UITextScroll@@QAEXPAXMMMMVstring@@HPAHVCallback@@@Z 004a7830 f   game.obj
 0001:000a6ba0       ?VScrollCB@UITextScroll@@QAEXXZ 004a7ba0 f   game.obj
 0001:000a6be0       ?SetVScrollVals@UITextScroll@@QAEXXZ 004a7be0 f   game.obj
 0001:000a6c00       ?SetVScrollPos@UITextScroll@@QAEXXZ 004a7c00 f   game.obj
 0001:000a6c30       ?Recalc@UITextScroll@@QAEXVstring@@@Z 004a7c30 f   game.obj
 0001:000a6da0       ?FillScroll@UITextScroll@@AAEXXZ 004a7da0 f   game.obj
 0001:000a6e80       ?GetHit@UITextScroll@@QAEHMM@Z 004a7e80 f   game.obj
 0001:000a6f00       ?Action@UITextScroll@@UAEXTeqEvent@@@Z 004a7f00 f   game.obj
 0001:000a6fb0       ?Switch@UITextScroll@@UAEXH@Z 004a7fb0 f   game.obj
 0001:000a6ff0       ?SetTextColor@UITextScroll@@AAEXXZ 004a7ff0 f   game.obj
 0001:000a7050       ?SetText@UITextScroll@@QAEXHPAULocString@@@Z 004a8050 f   game.obj
 0001:000a7090       ?ResetTextScroll@UITextScroll@@AAEXXZ 004a8090 f   game.obj
 0001:000a7110       ?InitTextScroll@UITextScroll@@AAEXVstring@@@Z 004a8110 f   game.obj
 0001:000a7240       ?AddTextScrollLine@UITextScroll@@AAEXPADH@Z 004a8240 f   game.obj
 0001:000a7300       ??0UILabel@@QAE@XZ         004a8300 f   game.obj
 0001:000a7390       ??1UILabel@@UAE@XZ         004a8390 f   game.obj
 0001:000a73f0       ?Init@UILabel@@QAEXPAULocString@@HMMMMH@Z 004a83f0 f   game.obj
 0001:000a74b0       ?SetText@UILabel@@QAEXPAULocString@@@Z 004a84b0 f   game.obj
 0001:000a74d0       ?Update@UILabel@@UAEXXZ    004a84d0 f   game.obj
 0001:000a7520       ?SwitchState@UILabel@@QAEXH@Z 004a8520 f   game.obj
 0001:000a75b0       ??0UIIcon@@QAE@XZ          004a85b0 f   game.obj
 0001:000a7600       ?Init@UIIcon@@QAEXPADMM@Z  004a8600 f   game.obj
 0001:000a7640       ?LoadBitmap@UIIcon@@QAEXPAD@Z 004a8640 f   game.obj
 0001:000a76b0       ?CreateDummyBitmap@UIIcon@@QAEPAVagiBitmap@@XZ 004a86b0 f   game.obj
 0001:000a7700       ?GetHitArea@UIIcon@@QAEXAAM0@Z 004a8700 f   game.obj
 0001:000a7730       ?Switch@UIIcon@@UAEXH@Z    004a8730 f   game.obj
 0001:000a7770       ?Update@UIIcon@@UAEXXZ     004a8770 f   game.obj
 0001:000a7790       ?Cull@UIIcon@@UAEXXZ       004a8790 f   game.obj
 0001:000a77f0       ??0UIButton@@QAE@XZ        004a87f0 f   game.obj
 0001:000a7880       ??1UIButton@@UAE@XZ        004a8880 f   game.obj
 0001:000a78f0       ?Init@UIButton@@QAEXPAULocString@@HMMMMHVCallback@@@Z 004a88f0 f   game.obj
 0001:000a79c0       ?Update@UIButton@@UAEXXZ   004a89c0 f   game.obj
 0001:000a79d0       ?SetString@UIButton@@QAEXPAULocString@@@Z 004a89d0 f   game.obj
 0001:000a79f0       ?Action@UIButton@@UAEXTeqEvent@@@Z 004a89f0 f   game.obj
 0001:000a7a40       ?SetReadOnly@UIButton@@UAEXH@Z 004a8a40 f   game.obj
 0001:000a7a90       ?Switch@UIButton@@UAEXH@Z  004a8a90 f   game.obj
 0001:000a7b10       ?SetType@UIButton@@QAEXH@Z 004a8b10 f   game.obj
 0001:000a7b90       ?Enable@UIButton@@UAEXXZ   004a8b90 f   game.obj
 0001:000a7bb0       ?Disable@UIButton@@UAEXXZ  004a8bb0 f   game.obj
 0001:000a7bc0       ??0UITextRoller@@QAE@XZ    004a8bc0 f   game.obj
 0001:000a7ca0       ??1UITextRoller@@UAE@XZ    004a8ca0 f   game.obj
 0001:000a7d10       ?Init@UITextRoller@@QAEXPAULocString@@PAHMMMMVstring@@HHHHVCallback@@PAVUIMenu@@@Z 004a8d10 f   game.obj
 0001:000a81e0       ?Update@UITextRoller@@UAEXXZ 004a91e0 f   game.obj
 0001:000a8240       ?Switch@UITextRoller@@UAEXH@Z 004a9240 f   game.obj
 0001:000a8270       ?Action@UITextRoller@@UAEXTeqEvent@@@Z 004a9270 f   game.obj
 0001:000a8350       ?EvalMouseXY@UITextRoller@@QAEXMM@Z 004a9350 f   game.obj
 0001:000a84e0       ?SetValue@UITextRoller@@QAEHH@Z 004a94e0 f   game.obj
 0001:000a8580       ?SetString@UITextRoller@@QAEXVstring@@@Z 004a9580 f   game.obj
 0001:000a8650       ?SetText@UITextRoller@@QAEXXZ 004a9650 f   game.obj
 0001:000a86c0       ?Inc@UITextRoller@@QAEHXZ  004a96c0 f   game.obj
 0001:000a86e0       ?Dec@UITextRoller@@QAEHXZ  004a96e0 f   game.obj
 0001:000a8700       ?Cull@UITextRoller@@UAEXXZ 004a9700 f   game.obj
 0001:000a87e0       ??0UITextRoller2@@QAE@XZ   004a97e0 f   game.obj
 0001:000a8890       ??1UITextRoller2@@UAE@XZ   004a9890 f   game.obj
 0001:000a8900       ?Init@UITextRoller2@@QAEXPAULocString@@PAHMMMMVstring@@HHHHVCallback@@PAVUIMenu@@@Z 004a9900 f   game.obj
 0001:000a8ff0       ?Update@UITextRoller2@@UAEXXZ 004a9ff0 f   game.obj
 0001:000a9050       ?Switch@UITextRoller2@@UAEXH@Z 004aa050 f   game.obj
 0001:000a90f0       ?Action@UITextRoller2@@UAEXTeqEvent@@@Z 004aa0f0 f   game.obj
 0001:000a91d0       ?EvalMouseXY@UITextRoller2@@QAEXMM@Z 004aa1d0 f   game.obj
 0001:000a9340       ?SetValue@UITextRoller2@@QAEHH@Z 004aa340 f   game.obj
 0001:000a93f0       ?SetString@UITextRoller2@@QAEXVstring@@@Z 004aa3f0 f   game.obj
 0001:000a94c0       ?SetText@UITextRoller2@@QAEXXZ 004aa4c0 f   game.obj
 0001:000a9530       ?Inc@UITextRoller2@@QAEHXZ 004aa530 f   game.obj
 0001:000a9560       ?Dec@UITextRoller2@@QAEHXZ 004aa560 f   game.obj
 0001:000a9590       ?Cull@UITextRoller2@@UAEXXZ 004aa590 f   game.obj
 0001:000a9690       ??0UIControlWidget@@QAE@XZ 004aa690 f   game.obj
 0001:000a97b0       ??1UIControlWidget@@UAE@XZ 004aa7b0 f   game.obj
 0001:000a9850       ?Init@UIControlWidget@@QAEXMMMMMPAVmmIO@@VCallback@@@Z 004aa850 f   game.obj
 0001:000a9a10       ?SetPosition@UIControlWidget@@QAEXMMMM@Z 004aaa10 f   game.obj
 0001:000a9ad0       ?Update@UIControlWidget@@UAEXXZ 004aaad0 f   game.obj
 0001:000a9af0       ?UpdateField@UIControlWidget@@QAEXXZ 004aaaf0 f   game.obj
 0001:000a9b20       ?Action@UIControlWidget@@UAEXTeqEvent@@@Z 004aab20 f   game.obj
 0001:000a9b70       ?Switch@UIControlWidget@@UAEXH@Z 004aab70 f   game.obj
 0001:000a9bf0       ?EnableField@UIControlWidget@@QAEXXZ 004aabf0 f   game.obj
 0001:000a9c60       ?DisableField@UIControlWidget@@QAEXXZ 004aac60 f   game.obj
 0001:000a9cb0       ?TurnOn@UIControlWidget@@UAEXXZ 004aacb0 f   game.obj
 0001:000a9cc0       ?TurnOff@UIControlWidget@@UAEXXZ 004aacc0 f   game.obj
 0001:000a9cd0       ??0UIIconW@@QAE@XZ         004aacd0 f   game.obj
 0001:000a9d90       ??1UIIconW@@UAE@XZ         004aad90 f   game.obj
 0001:000a9e00       ?Init@UIIconW@@QAEXPAULocString@@PADMMMMVCallback@@@Z 004aae00 f   game.obj
 0001:000a9ee0       ?Action@UIIconW@@UAEXTeqEvent@@@Z 004aaee0 f   game.obj
 0001:000a9f40       ?Update@UIIconW@@UAEXXZ    004aaf40 f   game.obj
 0001:000a9fc0       ?Switch@UIIconW@@UAEXH@Z   004aafc0 f   game.obj
 0001:000aa070       ??0UIToggleButton@@QAE@XZ  004ab070 f   game.obj
 0001:000aa0f0       ??1UIToggleButton@@UAE@XZ  004ab0f0 f   game.obj
 0001:000aa160       ?Init@UIToggleButton@@QAEXPAULocString@@PAHMMMMHHVCallback@@@Z 004ab160 f   game.obj
 0001:000aa200       ?DrawOff@UIToggleButton@@MAEXXZ 004ab200 f   game.obj
 0001:000aa220       ?DrawOn@UIToggleButton@@MAEXXZ 004ab220 f   game.obj
 0001:000aa240       ?DoToggle@UIToggleButton@@UAEXXZ 004ab240 f   game.obj
 0001:000aa260       ?Action@UIToggleButton@@UAEXTeqEvent@@@Z 004ab260 f   game.obj
 0001:000aa300       ?Update@UIToggleButton@@UAEXXZ 004ab300 f   game.obj
 0001:000aa310       ??0UIToggleButton2@@QAE@XZ 004ab310 f   game.obj
 0001:000aa390       ?Init@UIToggleButton2@@QAEXPAULocString@@PAHMMMMHHVCallback@@@Z 004ab390 f   game.obj
 0001:000aa460       ?DrawOff@UIToggleButton2@@MAEXXZ 004ab460 f   game.obj
 0001:000aa4a0       ?DrawOn@UIToggleButton2@@MAEXXZ 004ab4a0 f   game.obj
 0001:000aa4e0       ?DoToggle@UIToggleButton2@@UAEXXZ 004ab4e0 f   game.obj
 0001:000aa500       ?Action@UIToggleButton2@@UAEXTeqEvent@@@Z 004ab500 f   game.obj
 0001:000aa580       ?Switch@UIToggleButton2@@UAEXH@Z 004ab580 f   game.obj
 0001:000aa620       ?Update@UIToggleButton2@@UAEXXZ 004ab620 f   game.obj
 0001:000aa630       ?Enable@UIToggleButton2@@UAEXXZ 004ab630 f   game.obj
 0001:000aa640       ?Disable@UIToggleButton2@@UAEXXZ 004ab640 f   game.obj
 0001:000aa650       ??0UIMexButton@@QAE@XZ     004ab650 f   game.obj
 0001:000aa6d0       ?Init@UIMexButton@@QAEXPAULocString@@PAHHMMMMHHVCallback@@@Z 004ab6d0 f   game.obj
 0001:000aa7a0       ?Update@UIMexButton@@UAEXXZ 004ab7a0 f   game.obj
 0001:000aa7f0       ?DrawOff@UIMexButton@@EAEXXZ 004ab7f0 f   game.obj
 0001:000aa800       ?DrawOn@UIMexButton@@EAEXXZ 004ab800 f   game.obj
 0001:000aa830       ?DoToggle@UIMexButton@@UAEXXZ 004ab830 f   game.obj
 0001:000aa850       ?Action@UIMexButton@@UAEXTeqEvent@@@Z 004ab850 f   game.obj
 0001:000aa8f0       ??0UIVScrollBar@@QAE@XZ    004ab8f0 f   game.obj
 0001:000aa990       ??1UIVScrollBar@@UAE@XZ    004ab990 f   game.obj
 0001:000aaa20       ?Init@UIVScrollBar@@QAEXMMMMHMMPAHVCallback@@H@Z 004aba20 f   game.obj
 0001:000aaa90       ?LoadBitmap@UIVScrollBar@@QAEXXZ 004aba90 f   game.obj
 0001:000aabc0       ?SetHotSpots@UIVScrollBar@@QAEXXZ 004abbc0 f   game.obj
 0001:000aac80       ?Inc@UIVScrollBar@@QAEMXZ  004abc80 f   game.obj
 0001:000aace0       ?Dec@UIVScrollBar@@QAEMXZ  004abce0 f   game.obj
 0001:000aad40       ?SetStep@UIVScrollBar@@QAEXHM@Z 004abd40 f   game.obj
 0001:000aada0       ?SetRange@UIVScrollBar@@QAEXMM@Z 004abda0 f   game.obj
 0001:000aae10       ?SetTrough@UIVScrollBar@@QAEXMM@Z 004abe10 f   game.obj
 0001:000aae90       ?Update@UIVScrollBar@@UAEXXZ 004abe90 f   game.obj
 0001:000aaeb0       ?Switch@UIVScrollBar@@UAEXH@Z 004abeb0 f   game.obj
 0001:000aaf00       ?Action@UIVScrollBar@@UAEXTeqEvent@@@Z 004abf00 f   game.obj
 0001:000aafc0       ?EvalMouseXY@UIVScrollBar@@QAEXMM@Z 004abfc0 f   game.obj
 0001:000ab140       ?Cull@UIVScrollBar@@UAEXXZ 004ac140 f   game.obj
 0001:000ab2c0       ?DeclareFields@UIVScrollBar@@SAXXZ 004ac2c0 f   game.obj
 0001:000ab310       ?new_UIVScrollBar@@YAPAXH@Z 004ac310 f   game.obj
 0001:000ab3e0       ?delete_UIVScrollBar@@YAXPAXH@Z 004ac3e0 f   game.obj
 0001:000ab430       ?GetClass@UIVScrollBar@@UAEPAVMetaClass@@XZ 004ac430 f   game.obj
 0001:000ab4a0       ?SetPosition@UIVScrollBar@@UAEXMM@Z 004ac4a0 f   game.obj
 0001:000ab4c0       ?Enable@UIVScrollBar@@UAEXXZ 004ac4c0 f   game.obj
 0001:000ab4e0       ?Disable@UIVScrollBar@@UAEXXZ 004ac4e0 f   game.obj
 0001:000ab500       ??0sfPointer@@QAE@XZ       004ac500 f   game.obj
 0001:000ab530       ??1sfPointer@@UAE@XZ       004ac530 f   game.obj
 0001:000ab590       ?Init@sfPointer@@QAEXXZ    004ac590 f   game.obj
 0001:000ab5b0       ?ResChange@sfPointer@@UAEXHH@Z 004ac5b0 f   game.obj
 0001:000ab610       ?GetPointerHeight@sfPointer@@QAEMXZ 004ac610 f   game.obj
 0001:000ab620       ?Update@sfPointer@@UAEXXZ  004ac620 f   game.obj
 0001:000ab880       ?WaitForRelease@sfPointer@@QAEXXZ 004ac880 f   game.obj
 0001:000ab890       ?Cull@sfPointer@@UAEXXZ    004ac890 f   game.obj
 0001:000ab910       ?DeclareFields@sfPointer@@SAXXZ 004ac910 f   game.obj
 0001:000ab960       ?new_sfPointer@@YAPAXH@Z   004ac960 f   game.obj
 0001:000aba30       ?delete_sfPointer@@YAXPAXH@Z 004aca30 f   game.obj
 0001:000aba80       ?GetClass@sfPointer@@UAEPAVMetaClass@@XZ 004aca80 f   game.obj
 0001:000abaf0       ??0TextDropWidget@@QAE@XZ  004acaf0 f   game.obj
 0001:000abba0       ??1TextDropWidget@@UAE@XZ  004acba0 f   game.obj
 0001:000abc10       ?Init@TextDropWidget@@QAEXPAVasCamera@@PAXMMMMMVstring@@H@Z 004acc10 f   game.obj
 0001:000abd00       ?SetString@TextDropWidget@@QAEXVstring@@@Z 004acd00 f   game.obj
 0001:000abdc0       ?SetValue@TextDropWidget@@QAEHH@Z 004acdc0 f   game.obj
 0001:000abe60       ?SetHighlight@TextDropWidget@@QAEHH@Z 004ace60 f   game.obj
 0001:000abed0       ?IncDrop@TextDropWidget@@QAEHXZ 004aced0 f   game.obj
 0001:000abf00       ?DecDrop@TextDropWidget@@QAEHXZ 004acf00 f   game.obj
 0001:000abf30       ?Capture@TextDropWidget@@QAEHMM@Z 004acf30 f   game.obj
 0001:000abf70       ?Switch@TextDropWidget@@QAEXHAAVVector4@@@Z 004acf70 f   game.obj
 0001:000abf90       ?Update@TextDropWidget@@UAEXXZ 004acf90 f   game.obj
 0001:000abfa0       ?IsActive@TextDropWidget@@QAEHXZ 004acfa0 f   game.obj
 0001:000abfb0       ?SetActive@TextDropWidget@@QAEXH@Z 004acfb0 f   game.obj
 0001:000abfc0       ?SetDisabledMask@TextDropWidget@@QAEXJ@Z 004acfc0 f   game.obj
 0001:000abfe0       ?GetDisabledMask@TextDropWidget@@QAEJXZ 004acfe0 f   game.obj
 0001:000abff0       ?DeclareFields@TextDropWidget@@SAXXZ 004acff0 f   game.obj
 0001:000ac040       ?new_TextDropWidget@@YAPAXH@Z 004ad040 f   game.obj
 0001:000ac110       ?delete_TextDropWidget@@YAXPAXH@Z 004ad110 f   game.obj
 0001:000ac160       ?GetClass@TextDropWidget@@UAEPAVMetaClass@@XZ 004ad160 f   game.obj
 0001:000ac1d0       ??0mmSlider@@QAE@XZ        004ad1d0 f   game.obj
 0001:000ac260       ??1mmSlider@@UAE@XZ        004ad260 f   game.obj
 0001:000ac300       ?Init@mmSlider@@QAEXPADPAVuiWidget@@MMMMHMMHH@Z 004ad300 f   game.obj
 0001:000ac360       ?LoadBitmap@mmSlider@@QAEXPAD@Z 004ad360 f   game.obj
 0001:000ac510       ?SetReadWrite@mmSlider@@QAEXH@Z 004ad510 f   game.obj
 0001:000ac530       ?IsReadWrite@mmSlider@@QAEHXZ 004ad530 f   game.obj
 0001:000ac540       ?SetValue@mmSlider@@QAEMM@Z 004ad540 f   game.obj
 0001:000ac5a0       ?GetScreenHeight@mmSlider@@QAEMXZ 004ad5a0 f   game.obj
 0001:000ac5d0       ?FudgeWidth@mmSlider@@QAEMXZ 004ad5d0 f   game.obj
 0001:000ac600       ?SetPosition@mmSlider@@QAEXMM@Z 004ad600 f   game.obj
 0001:000ac620       ?GetSliderHotSpots@mmSlider@@QAEXAAM00000@Z 004ad620 f   game.obj
 0001:000ac6f0       ?UpdatePosition@mmSlider@@QAEXXZ 004ad6f0 f   game.obj
 0001:000ac720       ?Inc@mmSlider@@QAEMXZ      004ad720 f   game.obj
 0001:000ac740       ?Dec@mmSlider@@QAEMXZ      004ad740 f   game.obj
 0001:000ac760       ?SetStep@mmSlider@@QAEXM@Z 004ad760 f   game.obj
 0001:000ac7e0       ?SetRange@mmSlider@@QAEXMM@Z 004ad7e0 f   game.obj
 0001:000ac850       ?Update@mmSlider@@UAEXXZ   004ad850 f   game.obj
 0001:000ac870       ?Cull@mmSlider@@UAEXXZ     004ad870 f   game.obj
 0001:000aca30       ?DeclareFields@mmSlider@@SAXXZ 004ada30 f   game.obj
 0001:000aca80       ?new_mmSlider@@YAPAXH@Z    004ada80 f   game.obj
 0001:000acb50       ?delete_mmSlider@@YAXPAXH@Z 004adb50 f   game.obj
 0001:000acba0       ?GetClass@mmSlider@@UAEPAVMetaClass@@XZ 004adba0 f   game.obj
 0001:000acc10       ??1mmToolTip@@UAE@XZ       004adc10 f   game.obj
 0001:000acc70       ?SetText@mmToolTip@@QAEXPAULocString@@@Z 004adc70 f   game.obj
 0001:000accc0       ?Update@mmCompBase@@UAEXXZ 004adcc0 f   game.obj
 0001:000accd0       ??0VSWidget@@QAE@XZ        004adcd0 f   game.obj
 0001:000acd50       ??1VSWidget@@UAE@XZ        004add50 f   game.obj
 0001:000acdd0       ?Init@VSWidget@@QAEXMMMMPAHVCallback@@H@Z 004addd0 f   game.obj
 0001:000ace30       ?LoadBitmap@VSWidget@@QAEXXZ 004ade30 f   game.obj
 0001:000acf80       ?CalcTroughRatio@VSWidget@@QAEXM@Z 004adf80 f   game.obj
 0001:000ad000       ?SetHotSpots@VSWidget@@QAEXXZ 004ae000 f   game.obj
 0001:000ad0b0       ?SyncData@VSWidget@@QAEXXZ 004ae0b0 f   game.obj
 0001:000ad0f0       ?Inc@VSWidget@@QAEMXZ      004ae0f0 f   game.obj
 0001:000ad150       ?Dec@VSWidget@@QAEMXZ      004ae150 f   game.obj
 0001:000ad1b0       ?SetStep@VSWidget@@QAEXHM@Z 004ae1b0 f   game.obj
 0001:000ad220       ?SetTrough@VSWidget@@QAEXM@Z 004ae220 f   game.obj
 0001:000ad2b0       ?Update@VSWidget@@UAEXXZ   004ae2b0 f   game.obj
 0001:000ad2e0       ?Switch@VSWidget@@QAEXHMM@Z 004ae2e0 f   game.obj
 0001:000ad330       ?Action@VSWidget@@QAEHTeqEvent@@MMH@Z 004ae330 f   game.obj
 0001:000ad3e0       ?EvalMouseXY@VSWidget@@QAEXMMH@Z 004ae3e0 f   game.obj
 0001:000ad590       ?Cull@VSWidget@@UAEXXZ     004ae590 f   game.obj
 0001:000ad710       ?DeclareFields@VSWidget@@SAXXZ 004ae710 f   game.obj
 0001:000ad760       ?new_VSWidget@@YAPAXH@Z    004ae760 f   game.obj
 0001:000ad830       ?delete_VSWidget@@YAXPAXH@Z 004ae830 f   game.obj
 0001:000ad880       ?GetClass@VSWidget@@UAEPAVMetaClass@@XZ 004ae880 f   game.obj
 0001:000ad8f0       ??0mmToggle2@@QAE@XZ       004ae8f0 f   game.obj
 0001:000ad910       ??1mmToggle2@@UAE@XZ       004ae910 f   game.obj
 0001:000ad970       ?Init@mmToggle2@@QAEXPADMMPAH@Z 004ae970 f   game.obj
 0001:000ad9a0       ?LoadBitmap@mmToggle2@@AAEXPAD@Z 004ae9a0 f   game.obj
 0001:000ada00       ?SetPosition@mmToggle2@@QAEXMM@Z 004aea00 f   game.obj
 0001:000adaa0       ?Update@mmToggle2@@UAEXXZ  004aeaa0 f   game.obj
 0001:000adac0       ?Cull@mmToggle2@@UAEXXZ    004aeac0 f   game.obj
 0001:000adb80       ?DeclareFields@mmToggle2@@SAXXZ 004aeb80 f   game.obj
 0001:000adbd0       ?new_mmToggle2@@YAPAXH@Z   004aebd0 f   game.obj
 0001:000adc90       ?delete_mmToggle2@@YAXPAXH@Z 004aec90 f   game.obj
 0001:000adce0       ?GetClass@mmToggle2@@UAEPAVMetaClass@@XZ 004aece0 f   game.obj
 0001:000add50       ??0mmToggle@@QAE@XZ        004aed50 f   game.obj
 0001:000add70       ??1mmToggle@@UAE@XZ        004aed70 f   game.obj
 0001:000addd0       ?Init@mmToggle@@QAEXPADMMMM@Z 004aedd0 f   game.obj
 0001:000ade70       ?LoadBitmap@mmToggle@@AAEXPAD@Z 004aee70 f   game.obj
 0001:000adec0       ?SetSize@mmToggle@@AAEXMM@Z 004aeec0 f   game.obj
 0001:000adf70       ?Update@mmToggle@@UAEXXZ   004aef70 f   game.obj
 0001:000adf90       ?Cull@mmToggle@@UAEXXZ     004aef90 f   game.obj
 0001:000ae010       ?DeclareFields@mmToggle@@SAXXZ 004af010 f   game.obj
 0001:000ae060       ?new_mmToggle@@YAPAXH@Z    004af060 f   game.obj
 0001:000ae130       ?delete_mmToggle@@YAXPAXH@Z 004af130 f   game.obj
 0001:000ae180       ?GetClass@mmToggle@@UAEPAVMetaClass@@XZ 004af180 f   game.obj
 0001:000ae1f0       ?Init@mmDropDown@@QAEXPAVasCamera@@PAXMMMMVstring@@H@Z 004af1f0 f   game.obj
 0001:000ae2f0       ?SetString@mmDropDown@@AAEXVstring@@@Z 004af2f0 f   game.obj
 0001:000ae3e0       ?GetCurrentString@mmDropDown@@QAEXPADH@Z 004af3e0 f   game.obj
 0001:000ae430       ?SetDisabledColors@mmDropDown@@QAEXXZ 004af430 f   game.obj
 0001:000ae4b0       ?FindFirstEnabled@mmDropDown@@QAEHXZ 004af4b0 f   game.obj
 0001:000ae4e0       ?GetHit@mmDropDown@@QAEHMM@Z 004af4e0 f   game.obj
 0001:000ae540       ?Update@mmDropDown@@UAEXXZ 004af540 f   game.obj
 0001:000ae550       ?DeclareFields@mmDropDown@@SAXXZ 004af550 f   game.obj
 0001:000ae5a0       ?new_mmDropDown@@YAPAXH@Z  004af5a0 f   game.obj
 0001:000ae670       ?delete_mmDropDown@@YAXPAXH@Z 004af670 f   game.obj
 0001:000ae6c0       ??0mmAnimMgr@@QAE@XZ       004af6c0 f   game.obj
 0001:000ae740       ??1mmAnimMgr@@UAE@XZ       004af740 f   game.obj
 0001:000ae7a0       ?Init@mmAnimMgr@@QAEHPADPAVmmInstance@@PAPAV2@H@Z 004af7a0 f   game.obj
 0001:000ae950       ?Update@mmAnimMgr@@UAEXXZ  004af950 f   game.obj
 0001:000ae960       ?AirlinerSwap@mmAnimMgr@@QAEXXZ 004af960 f   game.obj
 0001:000ae9a0       ?UFOSwap@mmAnimMgr@@QAEXXZ 004af9a0 f   game.obj
 0001:000ae9e0       ?DeclareFields@mmAnimMgr@@SAXXZ 004af9e0 f   game.obj
 0001:000aea30       ?new_mmAnimMgr@@YAPAXH@Z   004afa30 f   game.obj
 0001:000aeb00       ?delete_mmAnimMgr@@YAXPAXH@Z 004afb00 f   game.obj
 0001:000aeb50       ?GetClass@mmAnimMgr@@UAEPAVMetaClass@@XZ 004afb50 f   game.obj
 0001:000aec40       ??0mmBridgeMgr@@QAE@XZ     004afc40 f   game.obj
 0001:000aed50       ??1mmBridgeMgr@@UAE@XZ     004afd50 f   game.obj
 0001:000aede0       ?ToggleDrawLabels@mmBridgeMgr@@QAEXXZ 004afde0 f   game.obj
 0001:000aedf0       ?Cull@mmBridgeMgr@@UAEXXZ  004afdf0 f   game.obj
 0001:000aee30       ?Init@mmBridgeMgr@@QAEXPADPAVmmInstance@@PAPAV2@H@Z 004afe30 f   game.obj
 0001:000af250       ?Save@mmBridgeMgr@@UAEXXZ  004b0250 f   game.obj
 0001:000af260       ?AddWidgets@mmBridgeMgr@@UAEXPAVBank@@@Z 004b0260 f   game.obj
 0001:000af490       ??0mmBridgeSet@@QAE@XZ     004b0490 f   game.obj
 0001:000af5a0       ??1mmBridgeSet@@UAE@XZ     004b05a0 f   game.obj
 0001:000af610       ?Reset@mmBridgeSet@@UAEXXZ 004b0610 f   game.obj
 0001:000af6e0       ?ReadEntry@mmBridgeSet@@QAEHPAVStream@@H@Z 004b06e0 f   game.obj
 0001:000af820       ?Update@mmBridgeSet@@UAEXXZ 004b0820 f   game.obj
 0001:000afbd0       ?Cull@mmBridgeSet@@UAEXXZ  004b0bd0 f   game.obj
 0001:000afc70       ?AddWidgets@mmBridgeSet@@UAEXPAVBank@@@Z 004b0c70 f   game.obj
 0001:000afe40       ?DeclareFields@mmBridgeSet@@SAXXZ 004b0e40 f   game.obj
 0001:000afee0       ?UpdateAudio@mmBridgeSet@@QAEXXZ 004b0ee0 f   game.obj
 0001:000b0140       ?CalculateDistToPlayer2@mmBridgeSet@@AAEXXZ 004b1140 f   game.obj
 0001:000b0220       ?CalculateAudioPanning@mmBridgeSet@@AAEXXZ 004b1220 f   game.obj
 0001:000b0270       ?CalculateDoppler@mmBridgeSet@@AAEMM@Z 004b1270 f   game.obj
 0001:000b02a0       ?RampDownBridgeVolume@mmBridgeSet@@AAEXXZ 004b12a0 f   game.obj
 0001:000b0360       ?new_mmBridgeSet@@YAPAXH@Z 004b1360 f   game.obj
 0001:000b0430       ?delete_mmBridgeSet@@YAXPAXH@Z 004b1430 f   game.obj
 0001:000b0480       ?GetClass@mmBridgeSet@@UAEPAVMetaClass@@XZ 004b1480 f   game.obj
 0001:000b0490       ?DeclareFields@mmBridgeMgr@@SAXXZ 004b1490 f   game.obj
 0001:000b05e0       ?new_mmBridgeMgr@@YAPAXH@Z 004b15e0 f   game.obj
 0001:000b06b0       ?delete_mmBridgeMgr@@YAXPAXH@Z 004b16b0 f   game.obj
 0001:000b0700       ?GetClass@mmBridgeMgr@@UAEPAVMetaClass@@XZ 004b1700 f   game.obj
 0001:000b07f0       ??0mmAnimExcel@@QAE@XZ     004b17f0 f   game.obj
 0001:000b0810       ??1mmAnimExcel@@UAE@XZ     004b1810 f   game.obj
 0001:000b0850       ?Init@mmAnimExcel@@QAEHPAD0@Z 004b1850 f   game.obj
 0001:000b08e0       ?AddFile@mmAnimExcel@@QAEXPAD0@Z 004b18e0 f   game.obj
 0001:000b0a20       ?GetName@mmAnimExcel@@QAEPADH@Z 004b1a20 f   game.obj
 0001:000b0a80       ??0mmAnimSpline@@QAE@XZ    004b1a80 f   game.obj
 0001:000b0aa0       ??1mmAnimSpline@@UAE@XZ    004b1aa0 f   game.obj
 0001:000b0b00       ?Init@mmAnimSpline@@QAEHPADH@Z 004b1b00 f   game.obj
 0001:000b0ba0       ?LoadFile@mmAnimSpline@@QAEHPAD@Z 004b1ba0 f   game.obj
 0001:000b0c80       ?ClearVectors@mmAnimSpline@@QAEXXZ 004b1c80 f   game.obj
 0001:000b0ca0       ?AddVector@mmAnimSpline@@QAEXAAVVector3@@@Z 004b1ca0 f   game.obj
 0001:000b0d40       ?InitPlane@mmAnimSpline@@QAEHXZ 004b1d40 f   game.obj
 0001:000b0de0       ?InitTrain@mmAnimSpline@@QAEHXZ 004b1de0 f   game.obj
 0001:000b0e60       ?Update@mmAnimSpline@@UAEXXZ 004b1e60 f   game.obj
 0001:000b0e90       ?Reset@mmAnimSpline@@UAEXXZ 004b1e90 f   game.obj
 0001:000b0eb0       ?AirlinerSwap@mmAnimSpline@@QAEXXZ 004b1eb0 f   game.obj
 0001:000b0f60       ?UFOSwap@mmAnimSpline@@QAEXXZ 004b1f60 f   game.obj
 0001:000b0f80       ??0mmBridgeAudMgr@@QAE@XZ  004b1f80 f   game.obj
 0001:000b1130       ??1mmBridgeAudMgr@@UAE@XZ  004b2130 f   game.obj
 0001:000b11f0       ?Add@mmBridgeAudMgr@@QAEFPAVmmBridgeSet@@@Z 004b21f0 f   game.obj
 0001:000b1280       ?Remove@mmBridgeAudMgr@@QAEXPAVmmBridgeSet@@F@Z 004b2280 f   game.obj
 0001:000b12e0       ?FindGreatestDistance@mmBridgeAudMgr@@QAEFPAVmmBridgeSet@@@Z 004b22e0 f   game.obj
 0001:000b1380       ?FindUnusedSlot@mmBridgeAudMgr@@QAEFXZ 004b2380 f   game.obj
 0001:000b13c0       ?Update@mmBridgeAudMgr@@UAEXXZ 004b23c0 f   game.obj
 0001:000b13f0       ?AssignSounds@mmBridgeAudMgr@@QAEXF@Z 004b23f0 f   game.obj
 0001:000b1450       ??0mmAnimTrigger@@QAE@XZ   004b2450 f   game.obj
 0001:000b1460       ?Init@mmAnimTrigger@@QAEXPAVVector3@@PAM@Z 004b2460 f   game.obj
 0001:000b1480       ?CheckCondition@mmAnimTrigger@@QAEHXZ 004b2480 f   game.obj
 0001:000b14f0       ?CheckObjectHit@mmAnimTrigger@@QAEHXZ 004b24f0 f   game.obj
 0001:000b1510       ?CheckTimeDelay@mmAnimTrigger@@QAEHXZ 004b2510 f   game.obj
 0001:000b1540       ?CheckStateStatus@mmAnimTrigger@@QAEHXZ 004b2540 f   game.obj
 0001:000b1590       ?Reset@mmAnimTrigger@@QAEXXZ 004b2590 f   game.obj
 0001:000b15a0       ?CheckObjectDistance@mmAnimTrigger@@QAEHXZ 004b25a0 f   game.obj
 0001:000b1650       ?InitBridge@mmDrawbridgeInstance@@QAEHPAD0HPAVMatrix34@@PAVVector3@@@Z 004b2650 f   game.obj
 0001:000b1690       ??0mmAnimDOF@@QAE@XZ       004b2690 f   game.obj
 0001:000b16b0       ?Init@mmAnimDOF@@QAEHPAVmmAnimTrigger@@PADAAVVector3@@2HPAH@Z 004b26b0 f   game.obj
 0001:000b1a30       ?Reset@mmAnimDOF@@QAEXXZ   004b2a30 f   game.obj
 0001:000b1a70       ?Update@mmAnimDOF@@QAEXXZ  004b2a70 f   game.obj
 0001:000b1c90       ?SetSwitch@mmAnimDOF@@QAEXH@Z 004b2c90 f   game.obj
 0001:000b1ce0       ?SetState@mmAnimDOF@@QAEXH@Z 004b2ce0 f   game.obj
 0001:000b1d20       ?DeclareFields@mmAnimDOF@@SAXXZ 004b2d20 f   game.obj
 0001:000b1d70       ?new_mmAnimDOF@@YAPAXH@Z   004b2d70 f   game.obj
 0001:000b1e40       ?delete_mmAnimDOF@@YAXPAXH@Z 004b2e40 f   game.obj
 0001:000b1eb0       ?GetClass@mmAnimDOF@@UAEPAVMetaClass@@XZ 004b2eb0 f   game.obj
 0001:000b1ee0       ?FromMatrix@mmDofBangerInstance@@UAIXABVMatrix34@@@Z 004b2ee0 f   game.obj
 0001:000b1ef0       ?ToMatrix@mmDofBangerInstance@@UAIAAVMatrix34@@AAV2@@Z 004b2ef0 f   game.obj
 0001:000b1f20       ?GetPos@mmDofBangerInstance@@UAIAAVVector3@@XZ 004b2f20 f   game.obj
 0001:000b1f90       ??0mmAnimPlane@@QAE@XZ     004b2f90 f   game.obj
 0001:000b2080       ??1mmAnimPlane@@UAE@XZ     004b3080 f   game.obj
 0001:000b2130       ?Init@mmAnimPlane@@QAEXHPAD0PAVVector3@@HHPAM@Z 004b3130 f   game.obj
 0001:000b2330       ?Reset@mmAnimPlane@@UAEXXZ 004b3330 f   game.obj
 0001:000b23a0       ?Update@mmAnimPlane@@QAEXXZ 004b33a0 f   game.obj
 0001:000b23c0       ?UpdatePathPosition@mmAnimPlane@@QAEXXZ 004b33c0 f   game.obj
 0001:000b2590       ?SetPathSpeed@mmAnimPlane@@QAEXXZ 004b3590 f   game.obj
 0001:000b25a0       ?SolvePosition@mmAnimPlane@@QAEXAAVVector3@@AAM@Z 004b35a0 f   game.obj
 0001:000b2670       ?AdjustPhaseOffsets@mmAnimPlane@@QAEXXZ 004b3670 f   game.obj
 0001:000b26e0       ?PreCalcCubics@mmAnimPlane@@QAEXXZ 004b36e0 f   game.obj
 0001:000b27b0       ?CalculateCubics@mmAnimPlane@@QAEXHAAVVector4@@00@Z 004b37b0 f   game.obj
 0001:000b2930       ?SolveVector@mmAnimPlane@@QAEXMAAVVector3@@0@Z 004b3930 f   game.obj
 0001:000b2ab0       ?Draw@mmAnimPlane@@UAIXH@Z 004b3ab0 f   game.obj
 0001:000b2b00       ?UpdateAudio@mmAnimPlane@@AAEXXZ 004b3b00 f   game.obj
 0001:000b2c60       ?CalculateDistToPlayer2@mmAnimPlane@@AAEXXZ 004b3c60 f   game.obj
 0001:000b2d30       ?CalculateAudioPanning@mmAnimPlane@@AAEXXZ 004b3d30 f   game.obj
 0001:000b2d80       ?CalculateDoppler@mmAnimPlane@@AAEMM@Z 004b3d80 f   game.obj
 0001:000b2e50       ??0mmAnimTrain@@QAE@XZ     004b3e50 f   game.obj
 0001:000b2f40       ??1mmAnimTrain@@QAE@XZ     004b3f40 f   game.obj
 0001:000b2fb0       ?Init@mmAnimTrain@@QAEXHPAD0PAVVector3@@HHPAM@Z 004b3fb0 f   game.obj
 0001:000b3280       ?Reset@mmAnimTrain@@QAEXXZ 004b4280 f   game.obj
 0001:000b32f0       ?Update@mmAnimTrain@@QAEXXZ 004b42f0 f   game.obj
 0001:000b3390       ?UpdatePathPosition@mmAnimTrain@@QAEXXZ 004b4390 f   game.obj
 0001:000b34e0       ?SetPathSpeed@mmAnimTrain@@QAEXXZ 004b44e0 f   game.obj
 0001:000b34f0       ?SolvePosition@mmAnimTrain@@QAEXAAVVector3@@AAM@Z 004b44f0 f   game.obj
 0001:000b35f0       ?GetStart@mmAnimTrain@@QAEXMAAHAAM@Z 004b45f0 f   game.obj
 0001:000b3670       ?PreCalcCubics@mmAnimTrain@@QAEXXZ 004b4670 f   game.obj
 0001:000b3740       ?CalculateCubics@mmAnimTrain@@QAEXHAAVVector4@@00@Z 004b4740 f   game.obj
 0001:000b3940       ?ComputeXZCurve@mmAnimTrain@@QAEXAAVVector3@@000AAVVector4@@11@Z 004b4940 f   game.obj
 0001:000b3a20       ?SolveXZCurve@mmAnimTrain@@QAEXAAVVector3@@0M@Z 004b4a20 f   game.obj
 0001:000b3b50       ?UpdateAudio@mmAnimTrain@@AAEXXZ 004b4b50 f   game.obj
 0001:000b3cb0       ?CalculateDistToPlayer2@mmAnimTrain@@AAEXXZ 004b4cb0 f   game.obj
 0001:000b3d80       ?CalculateAudioPanning@mmAnimTrain@@AAEXXZ 004b4d80 f   game.obj
 0001:000b3dd0       ?CalculateDoppler@mmAnimTrain@@AAEMM@Z 004b4dd0 f   game.obj
 0001:000b3e50       ??0mmBoat@@QAE@XZ          004b4e50 f   game.obj
 0001:000b3f30       ??1mmBoat@@UAE@XZ          004b4f30 f   game.obj
 0001:000b3fa0       ?Reset@mmBoat@@UAEXXZ      004b4fa0 f   game.obj
 0001:000b4000       ?Update@mmBoat@@UAEXXZ     004b5000 f   game.obj
 0001:000b4030       ?UpdatePathPosition@mmBoat@@QAEXXZ 004b5030 f   game.obj
 0001:000b4080       ?SetPathSpeed@mmBoat@@QAEXXZ 004b5080 f   game.obj
 0001:000b40a0       ?ReverseCalcPathSpeed@mmBoat@@QAEXXZ 004b50a0 f   game.obj
 0001:000b40c0       ?SolvePosition@mmBoat@@QAEXAAVVector3@@AAM@Z 004b50c0 f   game.obj
 0001:000b41a0       ?AdjustPhaseOffsets@mmBoat@@QAEXXZ 004b51a0 f   game.obj
 0001:000b4220       ?AddWidgets@mmBoat@@UAEXPAVBank@@@Z 004b5220 f   game.obj
 0001:000b4310       ?CalculateCubics@mmBoat@@QAEXH@Z 004b5310 f   game.obj
 0001:000b4520       ?ComputeXZCurve@mmBoat@@QAEXAAVVector3@@000@Z 004b5520 f   game.obj
 0001:000b4610       ?SolveXZCurve@mmBoat@@QAEXAAVVector3@@0M@Z 004b5610 f   game.obj
 0001:000b46e0       ?DeclareFields@mmBoat@@SAXXZ 004b56e0 f   game.obj
 0001:000b4730       ?new_mmBoat@@YAPAXH@Z      004b5730 f   game.obj
 0001:000b4800       ?delete_mmBoat@@YAXPAXH@Z  004b5800 f   game.obj
 0001:000b4850       ?GetClass@mmBoat@@UAEPAVMetaClass@@XZ 004b5850 f   game.obj
 0001:000b48c0       ?Init@mmAnimTrainCar@@QAEXPAD0@Z 004b58c0 f   game.obj
 0001:000b4940       ?SetMatrix@mmAnimTrainCar@@QAEXAAVMatrix34@@@Z 004b5940 f   game.obj
 0001:000b4960       ?Draw@mmAnimTrainCar@@UAIXH@Z 004b5960 f   game.obj
 0001:000b49b0       ?Reset@mmAnimTrainCar@@UAEXXZ 004b59b0 f   game.obj
 0001:000b49c0       ?SetStart@mmAnimTrainCar@@QAEXMM@Z 004b59c0 f   game.obj
 0001:000b49f0       ?LoadEntry@mmBangerData@@QAEHPAD@Z 004b59f0 f   game.obj
 0001:000b4bb0       ?LaunchInstance@mmBangerData@@QAEXMPAVVector3@@@Z 004b5bb0 f   game.obj
 0001:000b4d90       ?AddWidgets@mmBangerDataManager@@UAEXPAVBank@@@Z 004b5d90 f   game.obj
 0001:000b4e20       ?AddWidgets@mmBangerData@@UAEXPAVBank@@@Z 004b5e20 f   game.obj
 0001:000b5270       ??0mmBangerDataManager@@QAE@XZ 004b6270 f   game.obj
 0001:000b5390       ??1mmBangerDataManager@@UAE@XZ 004b6390 f   game.obj
 0001:000b5450       ?AddBangerDataEntry@mmBangerDataManager@@QAEHPAD0@Z 004b6450 f   game.obj
 0001:000b56b0       ?Bootstrap@mmBangerData@@QAEHPAD0@Z 004b66b0 f   game.obj
 0001:000b5710       ?BootstrapBreakablesOnly@mmBangerData@@QAEXPAD@Z 004b6710 f   game.obj
 0001:000b5750       ?InitBreakables@mmBangerData@@QAEXPAD@Z 004b6750 f   game.obj
 0001:000b5990       ?InitPhysics@mmBangerData@@QAEHPAD0@Z 004b6990 f   game.obj
 0001:000b5c10       ?ComputeYRadius@mmBangerData@@QAEXPAD@Z 004b6c10 f   game.obj
 0001:000b5d50       ?Save@mmBangerDataManager@@UAEXXZ 004b6d50 f   game.obj
 0001:000b5d80       ?DeclareFields@mmBangerData@@SAXXZ 004b6d80 f   game.obj
 0001:000b5f80       ?new_mmBangerData@@YAPAXH@Z 004b6f80 f   game.obj
 0001:000b60b0       ?delete_mmBangerData@@YAXPAXH@Z 004b70b0 f   game.obj
 0001:000b6100       ?GetClass@mmBangerData@@UAEPAVMetaClass@@XZ 004b7100 f   game.obj
 0001:000b6110       ?DeclareFields@mmBangerDataManager@@SAXXZ 004b7110 f   game.obj
 0001:000b6160       ?new_mmBangerDataManager@@YAPAXH@Z 004b7160 f   game.obj
 0001:000b6230       ?delete_mmBangerDataManager@@YAXPAXH@Z 004b7230 f   game.obj
 0001:000b6280       ?GetClass@mmBangerDataManager@@UAEPAVMetaClass@@XZ 004b7280 f   game.obj
 0001:000b6290       ?RefTo@@YAPAUMetaType@@PAU1@HPAF@Z 004b7290 f   game.obj
 0001:000b6390       ??0mmBangerData@@QAE@XZ    004b7390 f   game.obj
 0001:000b6420       ??1mmBangerData@@UAE@XZ    004b7420 f   game.obj
 0001:000b6470       ?ComputeLod@mmBangerInstance@@UAEHMM@Z 004b7470 f   game.obj
 0001:000b6490       ?Draw@mmBangerInstance@@UAIXH@Z 004b7490 f   game.obj
 0001:000b6680       ?DrawGlow@mmBangerInstance@@UAIXXZ 004b7680 f   game.obj
 0001:000b6750       ?Draw@mmHitBangerInstance@@UAIXH@Z 004b7750 f   game.obj
 0001:000b6930       ?DrawShadow@mmBangerInstance@@UAIXXZ 004b7930 f   game.obj
 0001:000b6c80       ?InitBreakables@mmUnhitBangerInstance@@QAEXPAD0PAVmmBangerData@@@Z 004b7c80 f   game.obj
 0001:000b6d10       ?Reset@mmUnhitBangerInstance@@UAEXXZ 004b7d10 f   game.obj
 0001:000b6d60       ?Init@mmBangerManager@@QAEXH@Z 004b7d60 f   game.obj
 0001:000b6e20       ?Reset@mmBangerManager@@UAEXXZ 004b7e20 f   game.obj
 0001:000b6e90       ?SizeOf@mmDofBangerInstance@@UAEIXZ 004b7e90 f   game.obj
 0001:000b6ea0       ?Init@mmDofBangerInstance@@QAEHPAD0HPAVMatrix34@@PAVVector3@@@Z 004b7ea0 f   game.obj
 0001:000b6f90       ??1mmPlayerData@@UAE@XZ    004b7f90 f   game.obj
 0001:000b7030       ??0mmMiscData@@QAE@XZ      004b8030 f   game.obj
 0001:000b7140       ??1mmMiscData@@UAE@XZ      004b8140 f   game.obj
 0001:000b7240       ?Load@mmMiscData@@QAEHPAD@Z 004b8240 f   game.obj
 0001:000b72b0       ?Save@mmMiscData@@QAEHPADH@Z 004b82b0 f   game.obj
 0001:000b7340       ?LoadBinary@mmMiscData@@QAEHPAD@Z 004b8340 f   game.obj
 0001:000b7500       ?SaveBinary@mmMiscData@@QAEHPAD@Z 004b8500 f   game.obj
 0001:000b7680       ?GetBestRaceTime@mmMiscData@@QAE?AVmmRecord@@HH@Z 004b8680 f   game.obj
 0001:000b77b0       ?GetBestBlitzTime@mmMiscData@@QAE?AVmmRecord@@HH@Z 004b87b0 f   game.obj
 0001:000b78e0       ?GetBestCircuitTime@mmMiscData@@QAE?AVmmRecord@@HH@Z 004b88e0 f   game.obj
 0001:000b7a10       ?GetBestRaceScore@mmMiscData@@QAE?AVmmRecord@@HH@Z 004b8a10 f   game.obj
 0001:000b7b40       ?GetBestBlitzScore@mmMiscData@@QAE?AVmmRecord@@HH@Z 004b8b40 f   game.obj
 0001:000b7c70       ?GetBestCircuitScore@mmMiscData@@QAE?AVmmRecord@@HH@Z 004b8c70 f   game.obj
 0001:000b7da0       ?CheckCheckpoint@mmMiscData@@QAEHPADMH0HH@Z 004b8da0 f   game.obj
 0001:000b7f40       ?CheckCircuit@mmMiscData@@QAEHPADMH0HH@Z 004b8f40 f   game.obj
 0001:000b80e0       ?CheckBlitz@mmMiscData@@QAEHPADMH0HH@Z 004b90e0 f   game.obj
 0001:000b8280       ?DeclareFields@mmMiscData@@SAXXZ 004b9280 f   game.obj
 0001:000b83d0       ?new_mmMiscData@@YAPAXH@Z  004b93d0 f   game.obj
 0001:000b84b0       ?delete_mmMiscData@@YAXPAXH@Z 004b94b0 f   game.obj
 0001:000b8500       ?GetClass@mmMiscData@@UAEPAVMetaClass@@XZ 004b9500 f   game.obj
 0001:000b8570       ??0mmPlayerConfig@@QAE@XZ  004b9570 f   game.obj
 0001:000b8610       ??1mmPlayerConfig@@UAE@XZ  004b9610 f   game.obj
 0001:000b8680       ?Load@mmPlayerConfig@@QAEHPAD@Z 004b9680 f   game.obj
 0001:000b8750       ?LoadBinary@mmPlayerConfig@@QAEHPAD@Z 004b9750 f   game.obj
 0001:000b89d0       ?SaveBinary@mmPlayerConfig@@QAEHPAD@Z 004b99d0 f   game.obj
 0001:000b8c20       ?Save@mmPlayerConfig@@QAEHPADH@Z 004b9c20 f   game.obj
 0001:000b8cc0       ?SetAudio@mmPlayerConfig@@QAEXXZ 004b9cc0 f   game.obj
 0001:000b8e30       ?SetControls@mmPlayerConfig@@QAEXXZ 004b9e30 f   game.obj
 0001:000b8f20       ?Get@mmGfxCFG@@QAEXXZ      004b9f20 f   game.obj
 0001:000b8f90       ?Set@mmGfxCFG@@QAEXXZ      004b9f90 f   game.obj
 0001:000b9010       ?GetGraphics@mmPlayerConfig@@QAEXXZ 004ba010 f   game.obj
 0001:000b9020       ?SetGraphics@mmPlayerConfig@@QAEXXZ 004ba020 f   game.obj
 0001:000b9030       ?GetAudio@mmPlayerConfig@@QAEXXZ 004ba030 f   game.obj
 0001:000b90a0       ?GetControls@mmPlayerConfig@@QAEXXZ 004ba0a0 f   game.obj
 0001:000b9180       ?GetViewSettings@mmPlayerConfig@@QAEXXZ 004ba180 f   game.obj
 0001:000b91b0       ?SetViewSettings@mmPlayerConfig@@QAEXXZ 004ba1b0 f   game.obj
 0001:000b91e0       ?DefaultAudio@mmPlayerConfig@@QAEXXZ 004ba1e0 f   game.obj
 0001:000b92f0       ?DefaultControls@mmPlayerConfig@@QAEXXZ 004ba2f0 f   game.obj
 0001:000b9350       ?DefaultViewSettings@mmPlayerConfig@@QAEXXZ 004ba350 f   game.obj
 0001:000b9390       ?Reset@mmPlayerConfig@@QAEXXZ 004ba390 f   game.obj
 0001:000b93a0       ?DeclareFields@mmPlayerConfig@@SAXXZ 004ba3a0 f   game.obj
 0001:000b9710       ?new_mmPlayerConfig@@YAPAXH@Z 004ba710 f   game.obj
 0001:000b97e0       ?delete_mmPlayerConfig@@YAXPAXH@Z 004ba7e0 f   game.obj
 0001:000b9830       ?GetClass@mmPlayerConfig@@UAEPAVMetaClass@@XZ 004ba830 f   game.obj
 0001:000b9840       ??1mmCtrlCFG@@QAE@XZ       004ba840 f   game.obj
 0001:000b98c0       ??0mmPlayerDirectory@@QAE@XZ 004ba8c0 f   game.obj
 0001:000b9900       ??1mmPlayerDirectory@@UAE@XZ 004ba900 f   game.obj
 0001:000b9960       ?NewDirectory@mmPlayerDirectory@@QAEXH@Z 004ba960 f   game.obj
 0001:000b99a0       ?SetPlayer@mmPlayerDirectory@@QAEXHPAD0@Z 004ba9a0 f   game.obj
 0001:000b99d0       ?SetLastPlayer@mmPlayerDirectory@@QAEXPAD@Z 004ba9d0 f   game.obj
 0001:000b9a20       ?GetPlayer@mmPlayerDirectory@@QAEPADH@Z 004baa20 f   game.obj
 0001:000b9a50       ?GetNumPlayers@mmPlayerDirectory@@QAEHXZ 004baa50 f   game.obj
 0001:000b9a60       ?GetLastPlayer@mmPlayerDirectory@@QAEPADXZ 004baa60 f   game.obj
 0001:000b9a90       ?AddPlayer@mmPlayerDirectory@@QAEHPAD@Z 004baa90 f   game.obj
 0001:000b9bd0       ?FindPlayer@mmPlayerDirectory@@QAEHPAD@Z 004babd0 f   game.obj
 0001:000b9c40       ?GetFileName@mmPlayerDirectory@@QAEPADPAD@Z 004bac40 f   game.obj
 0001:000b9cd0       ?GetFileName@mmPlayerDirectory@@QAEPADH@Z 004bacd0 f   game.obj
 0001:000b9d00       ?MakeFileName@mmPlayerDirectory@@AAEPADXZ 004bad00 f   game.obj
 0001:000b9dc0       ?RemovePlayer@mmPlayerDirectory@@QAEHPAD@Z 004badc0 f   game.obj
 0001:000b9ec0       ?Load@mmPlayerDirectory@@QAEHPAD@Z 004baec0 f   game.obj
 0001:000b9ef0       ?Save@mmPlayerDirectory@@QAEHPADH@Z 004baef0 f   game.obj
 0001:000b9f90       ?SaveBinary@mmPlayerDirectory@@QAEHPAD@Z 004baf90 f   game.obj
 0001:000ba090       ?LoadBinary@mmPlayerDirectory@@QAEHPAD@Z 004bb090 f   game.obj
 0001:000ba1d0       ?DeclareFields@mmPlayerDirectory@@SAXXZ 004bb1d0 f   game.obj
 0001:000ba280       ?new_mmPlayerDirectory@@YAPAXH@Z 004bb280 f   game.obj
 0001:000ba350       ?delete_mmPlayerDirectory@@YAXPAXH@Z 004bb350 f   game.obj
 0001:000ba3a0       ?GetClass@mmPlayerDirectory@@UAEPAVMetaClass@@XZ 004bb3a0 f   game.obj
 0001:000ba3b0       ?RefTo@@YAPAUMetaType@@PAU1@HPAH@Z 004bb3b0 f   game.obj
 0001:000ba450       ??0mmPlayerRecord@@QAE@XZ  004bb450 f   game.obj
 0001:000ba470       ?Reset@mmPlayerRecord@@QAEXXZ 004bb470 f   game.obj
 0001:000ba4a0       ??4mmPlayerRecord@@QAEXAAV0@@Z 004bb4a0 f   game.obj
 0001:000ba4f0       ?ComputeCRC@mmPlayerRecord@@QAEIXZ 004bb4f0 f   game.obj
 0001:000ba550       ?SaveBinary@mmPlayerRecord@@QAEHPAVStream@@@Z 004bb550 f   game.obj
 0001:000ba5d0       ?LoadBinary@mmPlayerRecord@@QAEHPAVStream@@@Z 004bb5d0 f   game.obj
 0001:000ba650       ?DeclareFields@mmPlayerRecord@@SAXXZ 004bb650 f   game.obj
 0001:000ba700       ?new_mmPlayerRecord@@YAPAXH@Z 004bb700 f   game.obj
 0001:000ba7d0       ?delete_mmPlayerRecord@@YAXPAXH@Z 004bb7d0 f   game.obj
 0001:000ba820       ?GetClass@mmPlayerRecord@@UAEPAVMetaClass@@XZ 004bb820 f   game.obj
 0001:000ba830       ??0mmPlayerData@@QAE@XZ    004bb830 f   game.obj
 0001:000ba950       ?GetCheckpointProgress@mmPlayerData@@QAEHH@Z 004bb950 f   game.obj
 0001:000ba970       ?GetBlitzMask@mmPlayerData@@QAEHXZ 004bb970 f   game.obj
 0001:000ba9a0       ?GetCheckpointMask@mmPlayerData@@QAEHXZ 004bb9a0 f   game.obj
 0001:000ba9d0       ?GetCircuitMask@mmPlayerData@@QAEHXZ 004bb9d0 f   game.obj
 0001:000baa00       ?GetBlitzPassed@mmPlayerData@@QAEHXZ 004bba00 f   game.obj
 0001:000baa20       ?GetCheckpointPassed@mmPlayerData@@QAEHXZ 004bba20 f   game.obj
 0001:000baa40       ?GetCircuitPassed@mmPlayerData@@QAEHXZ 004bba40 f   game.obj
 0001:000baa60       ?GetTotalPassed@mmPlayerData@@QAEHXZ 004bba60 f   game.obj
 0001:000baa80       ?GetTotalScore@mmPlayerData@@QAEHXZ 004bba80 f   game.obj
 0001:000baad0       ?ResolveCheckpointProgress@mmPlayerData@@QAEXXZ 004bbad0 f   game.obj
 0001:000bab60       ?RegisterFinish@mmPlayerData@@QAEHVmmPlayerRecord@@HH@Z 004bbb60 f   game.obj
 0001:000bae10       ?Reset@mmPlayerData@@QAEXXZ 004bbe10 f   game.obj
 0001:000baee0       ?SetName@mmPlayerData@@QAEXPAD@Z 004bbee0 f   game.obj
 0001:000baf20       ?GetName@mmPlayerData@@QAEPADXZ 004bbf20 f   game.obj
 0001:000baf30       ?SetNetName@mmPlayerData@@QAEXPAD@Z 004bbf30 f   game.obj
 0001:000baf70       ?GetNetName@mmPlayerData@@QAEPADXZ 004bbf70 f   game.obj
 0001:000baf80       ?SetFileName@mmPlayerData@@QAEXPAD@Z 004bbf80 f   game.obj
 0001:000bafc0       ?GetFileName@mmPlayerData@@QAEPADXZ 004bbfc0 f   game.obj
 0001:000bafd0       ?Load@mmPlayerData@@QAEHPAD@Z 004bbfd0 f   game.obj
 0001:000bb000       ?Save@mmPlayerData@@QAEHPADH@Z 004bc000 f   game.obj
 0001:000bb0a0       ?ComputeCRC@mmPlayerData@@QAEIXZ 004bc0a0 f   game.obj
 0001:000bb150       ?LoadBinary@mmPlayerData@@QAEHPAD@Z 004bc150 f   game.obj
 0001:000bb3b0       ?SaveBinary@mmPlayerData@@QAEHPAD@Z 004bc3b0 f   game.obj
 0001:000bb5c0       ?DeclareFields@mmPlayerData@@SAXXZ 004bc5c0 f   game.obj
 0001:000bb780       ?new_mmPlayerData@@YAPAXH@Z 004bc780 f   game.obj
 0001:000bb850       ?delete_mmPlayerData@@YAXPAXH@Z 004bc850 f   game.obj
 0001:000bb8a0       ?GetClass@mmPlayerData@@UAEPAVMetaClass@@XZ 004bc8a0 f   game.obj
 0001:000bb970       ?DeclareFields@mmInfoBase@@SAXXZ 004bc970 f   game.obj
 0001:000bb9c0       ?new_mmInfoBase@@YAPAXH@Z  004bc9c0 f   game.obj
 0001:000bba90       ?delete_mmInfoBase@@YAXPAXH@Z 004bca90 f   game.obj
 0001:000bbb40       ??0mmRecord@@QAE@XZ        004bcb40 f   game.obj
 0001:000bbb80       ?GetTime@mmRecord@@QAEMXZ  004bcb80 f   game.obj
 0001:000bbb90       ?GetCarName@mmRecord@@QAEPADXZ 004bcb90 f   game.obj
 0001:000bbba0       ?GetName@mmRecord@@QAEPADXZ 004bcba0 f   game.obj
 0001:000bbbb0       ?GetScore@mmRecord@@QAEHXZ 004bcbb0 f   game.obj
 0001:000bbbc0       ?SetTime@mmRecord@@QAEXM@Z 004bcbc0 f   game.obj
 0001:000bbbd0       ?SetCarName@mmRecord@@QAEXPAD@Z 004bcbd0 f   game.obj
 0001:000bbbf0       ?SetName@mmRecord@@QAEXPAD@Z 004bcbf0 f   game.obj
 0001:000bbc30       ?SetPassed@mmRecord@@QAEXH@Z 004bcc30 f   game.obj
 0001:000bbc50       ?SetScore@mmRecord@@QAEXH@Z 004bcc50 f   game.obj
 0001:000bbc60       ??4mmRecord@@QAEXAAV0@@Z   004bcc60 f   game.obj
 0001:000bbcf0       ?SaveBinary@mmRecord@@QAEHPAVStream@@@Z 004bccf0 f   game.obj
 0001:000bbd70       ?LoadBinary@mmRecord@@QAEHPAVStream@@@Z 004bcd70 f   game.obj
 0001:000bbdf0       ?ComputeCRC@mmRecord@@QAEIXZ 004bcdf0 f   game.obj
 0001:000bbe50       ?DeclareFields@mmRecord@@SAXXZ 004bce50 f   game.obj
 0001:000bbf10       ?new_mmRecord@@YAPAXH@Z    004bcf10 f   game.obj
 0001:000bbfe0       ?delete_mmRecord@@YAXPAXH@Z 004bcfe0 f   game.obj
 0001:000bc030       ?GetClass@mmRecord@@UAEPAVMetaClass@@XZ 004bd030 f   game.obj
 0001:000bc0a0       ??0mmRaceData@@QAE@XZ      004bd0a0 f   game.obj
 0001:000bc0b0       ?Load@mmRaceData@@QAEHPAD@Z 004bd0b0 f   game.obj
 0001:000bc430       ?GetNumRaces@mmRaceData@@QAEHXZ 004bd430 f   game.obj
 0001:000bc440       ?GetNumLaps@mmRaceData@@QAEHHW4mmSkillLevel@@@Z 004bd440 f   game.obj
 0001:000bc470       ?GetTimeLimit@mmRaceData@@QAEMHW4mmSkillLevel@@@Z 004bd470 f   game.obj
 0001:000bc4a0       ?GetNumOpponents@mmRaceData@@QAEHHW4mmSkillLevel@@@Z 004bd4a0 f   game.obj
 0001:000bc4d0       ?GetNumCops@mmRaceData@@QAEHHW4mmSkillLevel@@@Z 004bd4d0 f   game.obj
 0001:000bc500       ?GetTimeOfDay@mmRaceData@@QAEHHW4mmSkillLevel@@@Z 004bd500 f   game.obj
 0001:000bc530       ?GetWeather@mmRaceData@@QAEHHW4mmSkillLevel@@@Z 004bd530 f   game.obj
 0001:000bc560       ?GetPedDensity@mmRaceData@@QAEMHW4mmSkillLevel@@@Z 004bd560 f   game.obj
 0001:000bc590       ?GetAmbientDensity@mmRaceData@@QAEMHW4mmSkillLevel@@@Z 004bd590 f   game.obj
 0001:000bc5c0       ?GetDifficulty@mmRaceData@@QAEMHW4mmSkillLevel@@@Z 004bd5c0 f   game.obj
 0001:000bc5f0       ??0mmPropInfo@@QAE@XZ      004bd5f0 f   game.obj
 0001:000bc620       ??1mmPropInfo@@UAE@XZ      004bd620 f   game.obj
 0001:000bc680       ?NewItems@mmPropInfo@@QAEXH@Z 004bd680 f   game.obj
 0001:000bc6b0       ?SetItem@mmPropInfo@@QAEXHPAD@Z 004bd6b0 f   game.obj
 0001:000bc6d0       ??0mmRoadSide@@QAE@XZ      004bd6d0 f   game.obj
 0001:000bc760       ??0mmRoadSect@@QAE@XZ      004bd760 f   game.obj
 0001:000bc8a0       ?GetVertex@mmRoadSect@@QAEPAVVector3@@HHH@Z 004bd8a0 f   game.obj
 0001:000bc8d0       ?GetSidewalkVertex@mmRoadSect@@QAEPAVVector3@@HHH@Z 004bd8d0 f   game.obj
 0001:000bc910       ?GetNormal@mmRoadSect@@QAEPAVVector3@@H@Z 004bd910 f   game.obj
 0001:000bc930       ?GetIntersectionType@mmRoadSect@@QAEHH@Z 004bd930 f   game.obj
 0001:000bc950       ?GetStopLightPos@mmRoadSect@@QAEXHAAVVector3@@0@Z 004bd950 f   game.obj
 0001:000bc9a0       ?IsBlocked@mmRoadSect@@QAEHH@Z 004bd9a0 f   game.obj
 0001:000bc9c0       ?IsPedBlocked@mmRoadSect@@QAEHH@Z 004bd9c0 f   game.obj
 0001:000bc9e0       ?GetStopLightName@mmRoadSect@@QAEPADH@Z 004bd9e0 f   game.obj
 0001:000bca00       ?IsDivided@mmRoadSect@@QAEHXZ 004bda00 f   game.obj
 0001:000bca10       ?IsAlley@mmRoadSect@@QAEHXZ 004bda10 f   game.obj
 0001:000bca20       ?DeclareFields@mmPropInfo@@SAXXZ 004bda20 f   game.obj
 0001:000bcac0       ?new_mmPropInfo@@YAPAXH@Z  004bdac0 f   game.obj
 0001:000bcb90       ?delete_mmPropInfo@@YAXPAXH@Z 004bdb90 f   game.obj
 0001:000bcbe0       ?GetClass@mmPropInfo@@UAEPAVMetaClass@@XZ 004bdbe0 f   game.obj
 0001:000bcbf0       ?DeclareFields@mmRoadSide@@SAXXZ 004bdbf0 f   game.obj
 0001:000bcce0       ?new_mmRoadSide@@YAPAXH@Z  004bdce0 f   game.obj
 0001:000bcdb0       ?delete_mmRoadSide@@YAXPAXH@Z 004bddb0 f   game.obj
 0001:000bce00       ?GetClass@mmRoadSide@@UAEPAVMetaClass@@XZ 004bde00 f   game.obj
 0001:000bce10       ?DeclareFields@mmRoadSect@@SAXXZ 004bde10 f   game.obj
 0001:000bd0a0       ?new_mmRoadSect@@YAPAXH@Z  004be0a0 f   game.obj
 0001:000bd170       ?delete_mmRoadSect@@YAXPAXH@Z 004be170 f   game.obj
 0001:000bd1c0       ?GetClass@mmRoadSect@@UAEPAVMetaClass@@XZ 004be1c0 f   game.obj
 0001:000bd2f0       ??0mmMapData@@QAE@XZ       004be2f0 f   game.obj
 0001:000bd310       ??1mmMapData@@UAE@XZ       004be310 f   game.obj
 0001:000bd370       ?NewItems@mmMapData@@QAEXH@Z 004be370 f   game.obj
 0001:000bd3a0       ?SetItem@mmMapData@@QAEXHPAD@Z 004be3a0 f   game.obj
 0001:000bd3c0       ?GetItem@mmMapData@@QAEPADH@Z 004be3c0 f   game.obj
 0001:000bd3f0       ?GetNumItems@mmMapData@@QAEHXZ 004be3f0 f   game.obj
 0001:000bd400       ?DeclareFields@mmMapData@@SAXXZ 004be400 f   game.obj
 0001:000bd490       ?new_mmMapData@@YAPAXH@Z   004be490 f   game.obj
 0001:000bd560       ?delete_mmMapData@@YAXPAXH@Z 004be560 f   game.obj
 0001:000bd5b0       ?GetClass@mmMapData@@UAEPAVMetaClass@@XZ 004be5b0 f   game.obj
 0001:000bd620       ?Load@mmCityInfo@@QAEHPAD@Z 004be620 f   game.obj
 0001:000bd970       ??0mmVehInfo@@QAE@XZ       004be970 f   game.obj
 0001:000bd990       ?Load@mmVehInfo@@QAEHPAD@Z 004be990 f   game.obj
 0001:000bdb70       ?Print@mmVehInfo@@QAEXXZ   004beb70 f   game.obj
 0001:000bdc30       ?UpdateCrc@@YAKPAEI@Z      004bec30 f   game.obj
 0001:000bdc90       ?DoUpdateAll@mmPhysExec@@QAEXXZ 004bec90 f   game.obj
 0001:000bdee0       ?DoUpdatePlayerOnly@mmPhysExec@@QAEXXZ 004beee0 f   game.obj
 0001:000be150       ?Init@mmPhysicsMGR@@QAEXPAVasInertialCS@@PAVmmViewCS@@@Z 004bf150 f   game.obj
 0001:000be1f0       ?Reset@mmPhysicsMGR@@UAEXXZ 004bf1f0 f   game.obj
 0001:000be240       ?Shutdown@mmPhysicsMGR@@QAEXXZ 004bf240 f   game.obj
 0001:000be260       ?ClosestNeighboringCullRoom@mmPhysicsMGR@@IAEHH@Z 004bf260 f   game.obj
 0001:000be3b0       ?UpdateEverythingButPlayer@mmPhysicsMGR@@QAEXXZ 004bf3b0 f   game.obj
 0001:000be5f0       ?Update@mmPhysicsMGR@@UAEXXZ 004bf5f0 f   game.obj
 0001:000be9a0       ?UpdatePaused@mmPhysicsMGR@@UAEXXZ 004bf9a0 f   game.obj
 0001:000be9d0       ?DeclareBound@mmPhysicsMGR@@IAEXPAVmmBoundTemplate@@@Z 004bf9d0 f   game.obj
 0001:000bea40       ?Cull@mmPhysicsMGR@@UAEXXZ 004bfa40 f   game.obj
 0001:000bebd0       ?Stats@mmPhysicsMGR@@IAEXXZ 004bfbd0 f   game.obj
 0001:000bede0       ?CollideInstances@mmPhysicsMGR@@IAEHPAVmmInstance@@0HH@Z 004bfde0 f   game.obj
 0001:000bf270       ?CollideTerrain@mmPhysicsMGR@@IAEXPAVmmInstance@@@Z 004c0270 f   game.obj
 0001:000bf750       ?Collide@mmPhysicsMGR@@QAEHPAVmmIntersection@@HFF@Z 004c0750 f   game.obj
 0001:000bf870       ?CollideLOS@mmPhysicsMGR@@QAEHPAVmmIntersection@@HFF@Z 004c0870 f   game.obj
 0001:000bf9d0       ?FindIntersections@@YAHPAVmmIntersection@@HPAVasBound@@1PAVmmBoundTemplate@@2PAVmmEdgeBodyIsect@@H3H@Z 004c09d0 f   game.obj
 0001:000c0e00       ?DoEndPtSearch@@YAXHABVVector3@@PAVmmEdgeBodyIsect@@HPAPAVmmIntersection@@PAHH@Z 004c1e00 f   game.obj
 0001:000c1420       ?DoEdgeEdge@@YAXPAVmmEdgeBodyIsect@@PAPAVmmIntersection@@PAHH@Z 004c2420 f   game.obj
 0001:000c1500       ?SegSegDistNorm@@YAXABVVector3@@00000PAV1@11PAMPAH@Z 004c2500 f   game.obj
 0001:000c1a20       ?GetCollidePolyEdge@@YAHABVVector3@@PAVmmPolygon@@PAVmmBoundTemplate@@PAVasInertialCS@@0M0000PAV1@4PAMPAH6@Z 004c2a20 f   game.obj
 0001:000c20f0       ?AddWidgets@mmPhysicsMGR@@UAEXPAVBank@@@Z 004c30f0 f   game.obj
 0001:000c21e0       ?testNoOverlap@@YAHMM@Z    004c31e0 f   game.obj
 0001:000c2250       ?Zero@asInertialCS@@QAEXXZ 004c3250 f   game.obj
 0001:000c2370       ?Reset@asInertialCS@@UAEXXZ 004c3370 f   game.obj
 0001:000c2390       ?Update@asInertialCS@@UAEXXZ 004c3390 f   game.obj
 0001:000c2450       ?FinishForces@asInertialCS@@QAEXXZ 004c3450 f   game.obj
 0001:000c27f0       ?MoveICS@asInertialCS@@QAEXXZ 004c37f0 f   game.obj
 0001:000c2870       ?FinishUpdate@asInertialCS@@QAEXXZ 004c3870 f   game.obj
 0001:000c2f10       ?ApplyForce@asInertialCS@@QAEXABVVector3@@@Z 004c3f10 f   game.obj
 0001:000c2fa0       ?ApplyForce@asInertialCS@@QAEXABVVector3@@0@Z 004c3fa0 f   game.obj
 0001:000c30b0       ?ApplyTorque@asInertialCS@@QAEXABVVector3@@@Z 004c40b0 f   game.obj
 0001:000c3140       ?ApplyImpulse@asInertialCS@@QAEXABVVector3@@0@Z 004c4140 f   game.obj
 0001:000c3250       ?ApplyAngImpulse@asInertialCS@@QAEXABVVector3@@@Z 004c4250 f   game.obj
 0001:000c32e0       ?ApplyPush@asInertialCS@@UAEXABVVector3@@0@Z 004c42e0 f   game.obj
 0001:000c3450       ?ApplyPush@asInertialCS@@QAEXABVVector3@@@Z 004c4450 f   game.obj
 0001:000c35c0       ?DrawForce@asInertialCS@@AAEXABVVector3@@0@Z 004c45c0 f   game.obj
 0001:000c3610       ?DrawForce@asInertialCS@@AAEXABVVector3@@00@Z 004c4610 f   game.obj
 0001:000c3660       ?DoConstrain@asInertialCS@@QAEXXZ 004c4660 f   game.obj
 0001:000c3710       ?GetVelocity@asInertialCS@@QAE?AVVector3@@PBV2@@Z 004c4710 f   game.obj
 0001:000c37e0       ?CalcCMatrix@asInertialCS@@QBEXAAVMatrix34@@ABVVector3@@@Z 004c47e0 f   game.obj
 0001:000c39b0       ?GetCMatrix@asInertialCS@@UBEXAAVMatrix34@@ABVVector3@@@Z 004c49b0 f   game.obj
 0001:000c3a20       ?MatrixToAngVelocity@@YA?AVVector3@@ABVMatrix34@@M@Z 004c4a20 f   game.obj
 0001:000c3af0       ?AddWidgets@asInertialCS@@UAEXPAVBank@@@Z 004c4af0 f   game.obj
 0001:000c42c0       ?DeclareFields@asInertialCS@@SAXXZ 004c52c0 f   game.obj
 0001:000c4320       ?new_asInertialCS@@YAPAXH@Z 004c5320 f   game.obj
 0001:000c43f0       ?delete_asInertialCS@@YAXPAXH@Z 004c53f0 f   game.obj
 0001:000c4440       ?GetClass@asInertialCS@@UAEPAVMetaClass@@XZ 004c5440 f   game.obj
 0001:000c4450       ??0Joint3Dof@@QAE@XZ       004c5450 f   game.obj
 0001:000c44a0       ?Init@Joint3Dof@@QAEXXZ    004c54a0 f   game.obj
 0001:000c4510       ?Reset@Joint3Dof@@UAEXXZ   004c5510 f   game.obj
 0001:000c4520       ?InitJoint3Dof@Joint3Dof@@QAEXPAVasInertialCS@@ABVVector3@@01@Z 004c5520 f   game.obj
 0001:000c45a0       ?SetPosition@Joint3Dof@@QAEXABVVector3@@@Z 004c55a0 f   game.obj
 0001:000c4680       ?SetFrictionLean@Joint3Dof@@QAEXMMM@Z 004c5680 f   game.obj
 0001:000c46b0       ?SetFrictionRoll@Joint3Dof@@QAEXMMM@Z 004c56b0 f   game.obj
 0001:000c46e0       ?SetLeanLimit@Joint3Dof@@QAEXMM@Z 004c56e0 f   game.obj
 0001:000c4700       ?SetRollLimit@Joint3Dof@@QAEXMMM@Z 004c5700 f   game.obj
 0001:000c4730       ?SetRestOrientMat@Joint3Dof@@QAEXABVMatrix34@@@Z 004c5730 f   game.obj
 0001:000c4770       ?SetRestOrientMat@Joint3Dof@@QAEXABVMatrix34@@0@Z 004c5770 f   game.obj
 0001:000c47c0       ?SetJointForceFlag@Joint3Dof@@QAEXXZ 004c57c0 f   game.obj
 0001:000c4860       ?Update@Joint3Dof@@UAEXXZ  004c5860 f   game.obj
 0001:000c5ac0       ?BreakJoint@Joint3Dof@@QAEXXZ 004c6ac0 f   game.obj
 0001:000c5af0       ?UnbreakJoint@Joint3Dof@@QAEXXZ 004c6af0 f   game.obj
 0001:000c5b20       ?DoJointTorque@Joint3Dof@@QAEXABVMatrix34@@000AAM1AAVVector3@@11@Z 004c6b20 f   game.obj
 0001:000c60b0       ?DoJointLimits@Joint3Dof@@QAEXMABVVector3@@M0AAV2@ABVMatrix34@@2222@Z 004c70b0 f   game.obj
 0001:000c6770       ?GetCMatrix@Joint3Dof@@UAEXPBVasInertialCS@@AAVMatrix34@@ABVVector3@@@Z 004c7770 f   game.obj
 0001:000c6ad0       ?GetCMatrix@Joint3Dof@@UAEXPBVasInertialCS@@0AAVMatrix34@@ABVVector3@@@Z 004c7ad0 f   game.obj
 0001:000c70c0       ?AddWidgets@Joint3Dof@@UAEXPAVBank@@@Z 004c80c0 f   game.obj
 0001:000c70d0       ?DeclareFields@Joint3Dof@@SAXXZ 004c80d0 f   game.obj
 0001:000c7120       ?new_Joint3Dof@@YAPAXH@Z   004c8120 f   game.obj
 0001:000c71f0       ?delete_Joint3Dof@@YAXPAXH@Z 004c81f0 f   game.obj
 0001:000c7240       ?GetClass@Joint3Dof@@UAEPAVMetaClass@@XZ 004c8240 f   game.obj
 0001:000c72d0       ?RotateNoTrans@Matrix34@@QBE?AVVector3@@ABV2@@Z 004c82d0 f   game.obj
 0001:000c7300       ?Transpose@Matrix34@@QBE?AV1@XZ 004c8300 f   game.obj
 0001:000c7330       ?CrossProdMatrix@@YAXPAVMatrix34@@ABVVector3@@@Z 004c8330 f   game.obj
 0001:000c7380       ?AddWidgets@asOverSample@@UAEXPAVBank@@@Z 004c8380 f   game.obj
 0001:000c7430       ?DeclareFields@asOverSample@@SAXXZ 004c8430 f   game.obj
 0001:000c74a0       ?new_asOverSample@@YAPAXH@Z 004c84a0 f   game.obj
 0001:000c7560       ?delete_asOverSample@@YAXPAXH@Z 004c8560 f   game.obj
 0001:000c75b0       ??0asBound@@QAE@XZ         004c85b0 f   game.obj
 0001:000c75f0       ?Impact@asBound@@QAEHPAVmmIntersection@@PAV1@HHH@Z 004c85f0 f   game.obj
 0001:000c7fd0       ?GetPhysMtl@asBound@@QAEAAVagiPhysParameters@@ABVmmPolygon@@@Z 004c8fd0 f   game.obj
 0001:000c80b0       ??0asAero@@QAE@XZ          004c90b0 f   game.obj
 0001:000c8110       ?Update@asAero@@UAEXXZ     004c9110 f   game.obj
 0001:000c85d0       ?AddWidgets@asAero@@UAEXPAVBank@@@Z 004c95d0 f   game.obj
 0001:000c8730       ?DeclareFields@asAero@@SAXXZ 004c9730 f   game.obj
 0001:000c87f0       ?new_asAero@@YAPAXH@Z      004c97f0 f   game.obj
 0001:000c88c0       ?delete_asAero@@YAXPAXH@Z  004c98c0 f   game.obj
 0001:000c8910       ?GetClass@asAero@@UAEPAVMetaClass@@XZ 004c9910 f   game.obj
 0001:000c8980       ??0mmInput@@QAE@XZ         004c9980 f   game.obj
 0001:000c8ba0       ??1mmInput@@UAE@XZ         004c9ba0 f   game.obj
 0001:000c8c60       ?AttachToPipe@mmInput@@QAEHXZ 004c9c60 f   game.obj
 0001:000c9110       ?Reset@mmInput@@UAEXXZ     004ca110 f   game.obj
 0001:000c9140       ?IOInit@mmInput@@QAEXHPAULocString@@J@Z 004ca140 f   game.obj
 0001:000c9170       ?SaveCB@mmInput@@QAEXXZ    004ca170 f   game.obj
 0001:000c91b0       ?RestoreDefaultConfig@mmInput@@QAEXH@Z 004ca1b0 f   game.obj
 0001:000c9210       ?Init@mmInput@@QAEXH@Z     004ca210 f   game.obj
 0001:000c93f0       ?ReturnStateCaptured@mmInput@@QAEHXZ 004ca3f0 f   game.obj
 0001:000c9410       ?CaptureState@mmInput@@QAEXH@Z 004ca410 f   game.obj
 0001:000c9440       ?BuildCaptureIO@mmInput@@QAEHHPAVmmIO@@TeqEvent@@@Z 004ca440 f   game.obj
 0001:000c9600       ?ForceAssignment@mmInput@@QAEXPAVmmIO@@@Z 004ca600 f   game.obj
 0001:000c9620       ?SanityCheck@mmInput@@QAEHPAVmmIO@@HH@Z 004ca620 f   game.obj
 0001:000c96a0       ?IsAlreadyAssigned@mmInput@@QAEHPAVmmIO@@HHH@Z 004ca6a0 f   game.obj
 0001:000c9780       ?AssignIO@mmInput@@QAEXPAVmmIO@@HH@Z 004ca780 f   game.obj
 0001:000c9820       ?Update@mmInput@@UAEXXZ    004ca820 f   game.obj
 0001:000c9900       ?PollStates@mmInput@@QAEHXZ 004ca900 f   game.obj
 0001:000c99b0       ?PollSuperQ@mmInput@@QAEHXZ 004ca9b0 f   game.obj
 0001:000c99e0       ?ClearEventHitFlags@mmInput@@QAEXXZ 004ca9e0 f   game.obj
 0001:000c9a00       ?ProcessStates@mmInput@@AAE_JXZ 004caa00 f   game.obj
 0001:000c9ae0       ?ScanState@mmInput@@AAE_JPAVmmIO@@@Z 004caae0 f   game.obj
 0001:000c9c90       ?ProcessJoyEvents@mmInput@@AAEXXZ 004cac90 f   game.obj
 0001:000ca160       ?PutEventInQueue@mmInput@@AAEX_J@Z 004cb160 f   game.obj
 0001:000ca190       ?PollContinuous@mmInput@@AAEXPAVmmIO@@@Z 004cb190 f   game.obj
 0001:000ca620       ?GetThrottle@mmInput@@QAEMXZ 004cb620 f   game.obj
 0001:000ca640       ?GetThrottleVal@mmInput@@QAEMXZ 004cb640 f   game.obj
 0001:000ca6b0       ?GetHandBrake@mmInput@@QAEMXZ 004cb6b0 f   game.obj
 0001:000ca730       ?FilterDiscreteSteering@mmInput@@AAEMM@Z 004cb730 f   game.obj
 0001:000ca8d0       ?FilterGamepadSteering@mmInput@@QAEMXZ 004cb8d0 f   game.obj
 0001:000caa60       ?GetSteering@mmInput@@QAEMXZ 004cba60 f   game.obj
 0001:000cab10       ?GetCamPan@mmInput@@QAEMXZ 004cbb10 f   game.obj
 0001:000cac10       ?DeviceConnected@mmInput@@QAEHXZ 004cbc10 f   game.obj
 0001:000cac20       ?JoystickHasCoolie@mmInput@@QAEHXZ 004cbc20 f   game.obj
 0001:000cac30       ?DoingFF@mmInput@@QAEHXZ   004cbc30 f   game.obj
 0001:000cac60       ?StopAllFF@mmInput@@QAEXXZ 004cbc60 f   game.obj
 0001:000cac70       ?ToggleFFEnabled@mmInput@@QAEHH@Z 004cbc70 f   game.obj
 0001:000cac90       ?FFPlay@mmInput@@QAEHH@Z   004cbc90 f   game.obj
 0001:000cacc0       ?FFStop@mmInput@@QAEHH@Z   004cbcc0 f   game.obj
 0001:000cacf0       ?FFIsPlaying@mmInput@@QAEHH@Z 004cbcf0 f   game.obj
 0001:000cad20       ?FFSetValues@mmInput@@QAEHHMM@Z 004cbd20 f   game.obj
 0001:000cad50       ?PopEvent@mmInput@@QAEHPAH@Z 004cbd50 f   game.obj
 0001:000cad80       ?BinaryLoadConfig@mmInput@@QAEHPAVStream@@@Z 004cbd80 f   game.obj
 0001:000cae40       ?BinarySaveConfig@mmInput@@QAEHPAVStream@@@Z 004cbe40 f   game.obj
 0001:000caed0       ?AddWidgets@mmInput@@EAEXPAVBank@@@Z 004cbed0 f   game.obj
 0001:000cb100       ?DeclareFields@mmInput@@SAXXZ 004cc100 f   game.obj
 0001:000cb190       ?new_mmInput@@YAPAXH@Z     004cc190 f   game.obj
 0001:000cb260       ?delete_mmInput@@YAXPAXH@Z 004cc260 f   game.obj
 0001:000cb2b0       ?GetClass@mmInput@@UAEPAVMetaClass@@XZ 004cc2b0 f   game.obj
 0001:000cb2c0       ?SaveCodeConfig@mmInput@@QAEHPAVStream@@@Z 004cc2c0 f   game.obj
 0001:000cb9f0       ?Write@mmIO@@QAEHPAVStream@@@Z 004cc9f0 f   game.obj
 0001:000cba30       ?Read@mmIO@@QAEHPAVStream@@@Z 004cca30 f   game.obj
 0001:000cbb00       ?ForceSettingAcrossConfigs@mmIO@@QAEXH@Z 004ccb00 f   game.obj
 0001:000cbbc0       ?Init@mmIODev@@QAEXH_J@Z   004ccbc0 f   game.obj
 0001:000cbbf0       ?Assign@mmIODev@@QAEXHHH@Z 004ccbf0 f   game.obj
 0001:000cbd10       ?SanityCheckioType@mmIODev@@QAEHHHH@Z 004ccd10 f   game.obj
 0001:000cbd90       ?Print@mmIODev@@QAEXH@Z    004ccd90 f   game.obj
 0001:000cbe60       ?Write@mmIODev@@QAEHPAVStream@@@Z 004cce60 f   game.obj
 0001:000cbec0       ?WriteBinary@mmIODev@@QAEHPAVStream@@@Z 004ccec0 f   game.obj
 0001:000cbf10       ?Read@mmIODev@@QAEHPAVStream@@@Z 004ccf10 f   game.obj
 0001:000cbf70       ?ReadBinary@mmIODev@@QAEHPAVStream@@@Z 004ccf70 f   game.obj
 0001:000cbfc0       ?DeclareFields@mmIODev@@SAXXZ 004ccfc0 f   game.obj
 0001:000cc050       ?new_mmIODev@@YAPAXH@Z     004cd050 f   game.obj
 0001:000cc120       ?delete_mmIODev@@YAXPAXH@Z 004cd120 f   game.obj
 0001:000cc170       ?inputEnumDeviceProc@@YGHPAUDIDEVICEINSTANCEA@@PAX@Z 004cd170 f   game.obj
 0001:000cc1a0       ??0mmJoyMan@@QAE@XZ        004cd1a0 f   game.obj
 0001:000cc1b0       ??1mmJoyMan@@QAE@XZ        004cd1b0 f   game.obj
 0001:000cc1f0       ?Init@mmJoyMan@@QAEHPAUHINSTANCE__@@PAUHWND__@@@Z 004cd1f0 f   game.obj
 0001:000cc350       ?Update@mmJoyMan@@QAEXXZ   004cd350 f   game.obj
 0001:000cc380       ?GetJoyAxis@mmJoyMan@@QAEMHH@Z 004cd380 f   game.obj
 0001:000cc3c0       ?GetJoyButton@mmJoyMan@@QAEHHH@Z 004cd3c0 f   game.obj
 0001:000cc410       ?PollJoyButtons@mmJoyMan@@QAEHXZ 004cd410 f   game.obj
 0001:000cc470       ?PollJoyAxes@mmJoyMan@@QAEHXZ 004cd470 f   game.obj
 0001:000cc4b0       ?SetCapture@mmJoyMan@@QAEXH@Z 004cd4b0 f   game.obj
 0001:000cc520       ?GetFFEffect@mmJoyMan@@QAEPAVmmEffectFF@@H@Z 004cd520 f   game.obj
 0001:000cc550       ?ToggleEnabled@mmJoyMan@@QAEHH@Z 004cd550 f   game.obj
 0001:000cc590       ?FFPlay@mmJoyMan@@QAEHH@Z  004cd590 f   game.obj
 0001:000cc5c0       ?FFStop@mmJoyMan@@QAEHH@Z  004cd5c0 f   game.obj
 0001:000cc5f0       ?FFIsPlaying@mmJoyMan@@QAEHH@Z 004cd5f0 f   game.obj
 0001:000cc620       ?FFSetValues@mmJoyMan@@QAEHHMM@Z 004cd620 f   game.obj
 0001:000cc660       ?StopAllFF@mmJoyMan@@QAEXXZ 004cd660 f   game.obj
 0001:000cc680       ?HasCoolie@mmJoyMan@@QAEHXZ 004cd680 f   game.obj
 0001:000cc6a0       ?HasThrottle@mmJoyMan@@QAEHXZ 004cd6a0 f   game.obj
 0001:000cc6c0       ??0mmJaxis@@QAE@XZ         004cd6c0 f   game.obj
 0001:000cc6e0       ?SetRange@mmJaxis@@QAEXMM@Z 004cd6e0 f   game.obj
 0001:000cc700       ?Normalize@mmJaxis@@QAEXM@Z 004cd700 f   game.obj
 0001:000cc720       ?NormalizePOV@mmJaxis@@QAEXK@Z 004cd720 f   game.obj
 0001:000cc760       ?Capture@mmJaxis@@QAEHXZ   004cd760 f   game.obj
 0001:000cc790       ?ResetCapture@mmJaxis@@QAEXXZ 004cd790 f   game.obj
 0001:000cc7b0       ??0mmJoystick@@QAE@XZ      004cd7b0 f   game.obj
 0001:000cc870       ??1mmJoystick@@QAE@XZ      004cd870 f   game.obj
 0001:000cc990       ?Init@mmJoystick@@QAEHPAUIDirectInputDevice2A@@PAUHWND__@@@Z 004cd990 f   game.obj
 0001:000ccaa0       ?inputPrepareDevice@mmJoystick@@QAEHXZ 004cdaa0 f   game.obj
 0001:000ccc50       ?SetDeadZone@mmJoystick@@QAEHM@Z 004cdc50 f   game.obj
 0001:000cccf0       ?DisableAutoCenter@mmJoystick@@QAEHXZ 004cdcf0 f   game.obj
 0001:000ccd50       ?GetButton@mmJoystick@@QAEMH@Z 004cdd50 f   game.obj
 0001:000ccd80       ?ResetAxisCapture@mmJoystick@@QAEXXZ 004cdd80 f   game.obj
 0001:000cce00       ?InputCreateEffect@mmJoystick@@QAEXXZ 004cde00 f   game.obj
 0001:000ccf20       ?InputInitEffect@mmJoystick@@QAEXXZ 004cdf20 f   game.obj
 0001:000ccf60       ?InputStopEffect@mmJoystick@@QAEXXZ 004cdf60 f   game.obj
 0001:000ccfa0       ?GetFFEffect@mmJoystick@@QAEPAVmmEffectFF@@H@Z 004cdfa0 f   game.obj
 0001:000ccff0       ?PrintDeviceCaps@mmJoystick@@QAEXXZ 004cdff0 f   game.obj
 0001:000cd1d0       ?DecodeDIErrorMFlag@@YAXJ@Z 004ce1d0 f   game.obj
 0001:000cd530       ?AngelReadKeyString@@YAPAULocString@@I@Z 004ce530 f   game.obj
 0001:000cd570       ?inputEnumEffectTypeProc@@YGHPBUDIEFFECTINFOA@@PAX@Z 004ce570 f   game.obj
 0001:000cd5d0       ??0mmEffectFF@@QAE@XZ      004ce5d0 f   game.obj
 0001:000cd640       ??1mmEffectFF@@QAE@XZ      004ce640 f   game.obj
 0001:000cd660       ?SetValues@mmEffectFF@@UAEHMM@Z 004ce660 f   game.obj
 0001:000cd670       ?Init@mmCollideFF@@UAEHPAUIDirectInputDevice2A@@@Z 004ce670 f   game.obj
 0001:000cd830       ?SetValues@mmCollideFF@@UAEHMM@Z 004ce830 f   game.obj
 0001:000cd860       ?Assign@mmCollideFF@@QAEHJJ@Z 004ce860 f   game.obj
 0001:000cd960       ?Play@mmCollideFF@@UAEHXZ  004ce960 f   game.obj
 0001:000cd9b0       ?Stop@mmCollideFF@@UAEHXZ  004ce9b0 f   game.obj
 0001:000cd9c0       ?Init@mmRoadFF@@UAEHPAUIDirectInputDevice2A@@@Z 004ce9c0 f   game.obj
 0001:000cdac0       ?SetValues@mmRoadFF@@UAEHMM@Z 004ceac0 f   game.obj
 0001:000cdaf0       ?Assign@mmRoadFF@@QAEHJJ@Z 004ceaf0 f   game.obj
 0001:000cdbe0       ?Play@mmRoadFF@@UAEHXZ     004cebe0 f   game.obj
 0001:000cdc50       ?Stop@mmRoadFF@@UAEHXZ     004cec50 f   game.obj
 0001:000cdca0       ?Init@mmFrictionFF@@UAEHPAUIDirectInputDevice2A@@@Z 004ceca0 f   game.obj
 0001:000cddb0       ?SetValues@mmFrictionFF@@UAEHMM@Z 004cedb0 f   game.obj
 0001:000cdde0       ?Assign@mmFrictionFF@@QAEHJ@Z 004cede0 f   game.obj
 0001:000cdeb0       ?Play@mmFrictionFF@@UAEHXZ 004ceeb0 f   game.obj
 0001:000cdf10       ?Stop@mmFrictionFF@@UAEHXZ 004cef10 f   game.obj
 0001:000cdf50       ?Init@mmSpringFF@@UAEHPAUIDirectInputDevice2A@@@Z 004cef50 f   game.obj
 0001:000ce050       ?SetValues@mmSpringFF@@UAEHMM@Z 004cf050 f   game.obj
 0001:000ce080       ?Assign@mmSpringFF@@QAEHJ@Z 004cf080 f   game.obj
 0001:000ce170       ?Play@mmSpringFF@@UAEHXZ   004cf170 f   game.obj
 0001:000ce1e0       ?Stop@mmSpringFF@@UAEHXZ   004cf1e0 f   game.obj
 0001:000ce220       ??0AudManager@@QAE@XZ      004cf220 f   game.obj
 0001:000ce360       ??1AudManager@@UAE@XZ      004cf360 f   game.obj
 0001:000ce4a0       ?SetNumChannels@AudManager@@QAEXH@Z 004cf4a0 f   game.obj
 0001:000ce560       ?CheckPriority@AudManager@@QAEHHHH@Z 004cf560 f   game.obj
 0001:000ce800       ?RemoveSoundFromPlayList@AudManager@@QAEXPAVAudSound@@@Z 004cf800 f   game.obj
 0001:000ce840       ?RemoveSoundFromPlayList@AudManager@@QAEXH@Z 004cf840 f   game.obj
 0001:000ce890       ?Update@AudManager@@UAEXXZ 004cf890 f   game.obj
 0001:000ce8c0       ?Init@AudManager@@QAEXHIPADFF@Z 004cf8c0 f   game.obj
 0001:000ce9f0       ?DeallocateUIADF@AudManager@@QAEXXZ 004cf9f0 f   game.obj
 0001:000cea00       ?DeallocateDSound@AudManager@@QAEXFF@Z 004cfa00 f   game.obj
 0001:000ceb80       ?ReallocateDSound@AudManager@@QAEXPADFF@Z 004cfb80 f   game.obj
 0001:000ced10       ?AddSound@AudManager@@QAEHPAVAudSound@@@Z 004cfd10 f   game.obj
 0001:000ced70       ?AddStream@AudManager@@QAEHPAVAudStream@@@Z 004cfd70 f   game.obj
 0001:000cedc0       ?RemoveSound@AudManager@@QAEXPAVAudSound@@H@Z 004cfdc0 f   game.obj
 0001:000cee30       ?RemoveStream@AudManager@@QAEXPAVAudStream@@H@Z 004cfe30 f   game.obj
 0001:000ceea0       ?Enable@AudManager@@QAEXPADFF@Z 004cfea0 f   game.obj
 0001:000cef50       ?Disable@AudManager@@QAEXFF@Z 004cff50 f   game.obj
 0001:000cf040       ?StopAllSounds@AudManager@@QAEXXZ 004d0040 f   game.obj
 0001:000cf0e0       ?PlayCDTrack@AudManager@@QAEHHH@Z 004d00e0 f   game.obj
 0001:000cf160       ?PlayCDTrack@AudManager@@QAEHHEEEH@Z 004d0160 f   game.obj
 0001:000cf1f0       ?GetNumCDTracks@AudManager@@QAEFXZ 004d01f0 f   game.obj
 0001:000cf210       ?GetCDTrackNum@AudManager@@QAEEXZ 004d0210 f   game.obj
 0001:000cf230       ?CDIsPlaying@AudManager@@QAEFXZ 004d0230 f   game.obj
 0001:000cf250       ?StopCD@AudManager@@QAEXXZ 004d0250 f   game.obj
 0001:000cf270       ?EnableCD@AudManager@@QAEHXZ 004d0270 f   game.obj
 0001:000cf2a0       ?AssignWaveVolume@AudManager@@QAEXM@Z 004d02a0 f   game.obj
 0001:000cf2c0       ?AssignCDVolume@AudManager@@QAEXM@Z 004d02c0 f   game.obj
 0001:000cf300       ?SetCDPlayMode@AudManager@@QAEXE@Z 004d0300 f   game.obj
 0001:000cf330       ?CDIsEnabled@AudManager@@QAEHXZ 004d0330 f   game.obj
 0001:000cf350       ?AttenuateCDVolume@AudManager@@QAEXM@Z 004d0350 f   game.obj
 0001:000cf390       ?AssignWaveBalance@AudManager@@QAEXM@Z 004d0390 f   game.obj
 0001:000cf3b0       ?AssignCDBalance@AudManager@@QAEXM@Z 004d03b0 f   game.obj
 0001:000cf3d0       ?IsStereo@AudManager@@QAEHXZ 004d03d0 f   game.obj
 0001:000cf3e0       ?AddWidgets@AudManager@@UAEXPAVBank@@@Z 004d03e0 f   game.obj
 0001:000cf3f0       ?Supports16Bit@AudManager@@QAEFXZ 004d03f0 f   game.obj
 0001:000cf400       ?CheckCDFile@AudManager@@QAEEPAD@Z 004d0400 f   game.obj
 0001:000cf420       ?Update3DCDMusic@AudManager@@AAEXXZ 004d0420 f   game.obj
 0001:000cf580       ?GetUsingEAXMask@AudManager@@SA?BIXZ 004d0580 f   game.obj
 0001:000cf590       ?IsAlwaysEAX@AudManager@@QAEIXZ 004d0590 f   game.obj
 0001:000cf5a0       ?AlwaysEAX@AudManager@@QAEXI@Z 004d05a0 f   game.obj
 0001:000cf5d0       ?EAXEnabled@AudManager@@QAEIXZ 004d05d0 f   game.obj
 0001:000cf5e0       ?DSound3DEnabled@AudManager@@QAEIXZ 004d05e0 f   game.obj
 0001:000cf5f0       ?CreateListenerSoundObj@AudManager@@AAEIXZ 004d05f0 f   game.obj
 0001:000cf730       ?GetListenerEAXObj@AudManager@@AAEPAVCReverb@@XZ 004d0730 f   game.obj
 0001:000cf740       ?SetEAXPreset@AudManager@@QAEHKMMM@Z 004d0740 f   game.obj
 0001:000cf7c0       ?SetEAXPreset@AudManager@@QAEHPAUEAX_REVERBPROPERTIES@@@Z 004d07c0 f   game.obj
 0001:000cf830       ?UpdatePaused@AudManager@@UAEXXZ 004d0830 f   game.obj
 0001:000cf850       ?SetBitDepthAndSampleRate@AudManager@@QAEXHK@Z 004d0850 f   game.obj
 0001:000cf8e0       ?GetDeviceNames@AudManager@@QAEPAPADXZ 004d08e0 f   game.obj
 0001:000cf900       ?GetNumDevices@AudManager@@QAEHXZ 004d0900 f   game.obj
 0001:000cf920       ?GetActiveDeviceName@AudManager@@QAEPADXZ 004d0920 f   game.obj
 0001:000cf940       ?GetStereoOnMask@AudManager@@SA?BIXZ 004d0940 f   game.obj
 0001:000cf950       ?GetHiResMask@AudManager@@SA?BIXZ 004d0950 f   game.obj
 0001:000cf960       ?GetHiSampleSizeMask@AudManager@@SA?BIXZ 004d0960 f   game.obj
 0001:000cf970       ?GetEchoOnMask@AudManager@@SA?BIXZ 004d0970 f   game.obj
 0001:000cf980       ?GetDSound3DMask@AudManager@@SA?BIXZ 004d0980 f   game.obj
 0001:000cf990       ?GetSoundFXOnMask@AudManager@@SA?BIXZ 004d0990 f   game.obj
 0001:000cf9a0       ?GetCDMusicOnMask@AudManager@@SA?BIXZ 004d09a0 f   game.obj
 0001:000cf9b0       ?GetCommentaryOnMask@AudManager@@SA?BIXZ 004d09b0 f   game.obj
 0001:000cf9c0       ?SetDeviceName@AudManager@@QAEXPAD@Z 004d09c0 f   game.obj
 0001:000cfa00       ?GetCDPosition@AudManager@@QAEKPAE000@Z 004d0a00 f   game.obj
 0001:000cfa40       ?GetMixerPtr@AudManager@@QAEPAVMixerCTL@@XZ 004d0a40 f   game.obj
 0001:000cfa50       ?GetVoiceCommentaryPtr@AudManager@@QAEPAVmmVoiceCommentary@@XZ 004d0a50 f   game.obj
 0001:000cfa60       ?SetVoiceCommentaryPtr@AudManager@@QAEXPAVmmVoiceCommentary@@@Z 004d0a60 f   game.obj
 0001:000cfa70       ?DeactivateApplication@@YAXXZ 004d0a70 f   game.obj
 0001:000cfab0       ?RestoreApplication@@YAXXZ 004d0ab0 f   game.obj
 0001:000cfae0       ?DeclareFields@AudManager@@SAXXZ 004d0ae0 f   game.obj
 0001:000cfb30       ?new_AudManager@@YAPAXH@Z  004d0b30 f   game.obj
 0001:000cfc00       ?delete_AudManager@@YAXPAXH@Z 004d0c00 f   game.obj
 0001:000cfc50       ?GetClass@AudManager@@UAEPAVMetaClass@@XZ 004d0c50 f   game.obj
 0001:000cfcc0       ??0AudSound@@QAE@KHF@Z     004d0cc0 f   game.obj
 0001:000cffa0       ??1AudSound@@UAE@XZ        004d0fa0 f   game.obj
 0001:000d00e0       ?SetPriority@AudSound@@QAEXH@Z 004d10e0 f   game.obj
 0001:000d0100       ?DeallocateSoundObjs@AudSound@@QAEXXZ 004d1100 f   game.obj
 0001:000d0160       ?ReallocateSoundObjs@AudSound@@QAEXXZ 004d1160 f   game.obj
 0001:000d0340       ?Load@AudSound@@QAEHPADH@Z 004d1340 f   game.obj
 0001:000d0590       ?Load@AudSound@@QAEHHH@Z   004d1590 f   game.obj
 0001:000d0780       ?EnabledAction@AudSound@@QAEXXZ 004d1780 f   game.obj
 0001:000d0790       ?Enable@AudSound@@QAEXXZ   004d1790 f   game.obj
 0001:000d07a0       ?Disable@AudSound@@QAEXXZ  004d17a0 f   game.obj
 0001:000d07c0       ?Reset@AudSound@@UAEXXZ    004d17c0 f   game.obj
 0001:000d07d0       ?Update@AudSound@@UAEXXZ   004d17d0 f   game.obj
 0001:000d0860       ?Update3DSettings@AudSound@@QAEXXZ 004d1860 f   game.obj
 0001:000d0a20       ?SetPlayPosition@AudSound@@QAEXK@Z 004d1a20 f   game.obj
 0001:000d0a50       ?PlayOnce@AudSound@@QAEXMM@Z 004d1a50 f   game.obj
 0001:000d0b30       ?PlayLoop@AudSound@@QAEXMM@Z 004d1b30 f   game.obj
 0001:000d0c10       ?Stop@AudSound@@QAEXXZ     004d1c10 f   game.obj
 0001:000d0c50       ?StopEchoBuffers@AudSound@@QAEXXZ 004d1c50 f   game.obj
 0001:000d0c70       ?SetFrequency@AudSound@@QAEXMH@Z 004d1c70 f   game.obj
 0001:000d0cf0       ?SetVolume@AudSound@@QAEXMH@Z 004d1cf0 f   game.obj
 0001:000d0d70       ?SetEAXReverbMix@AudSound@@QAEXMH@Z 004d1d70 f   game.obj
 0001:000d0dd0       ?SetPan@AudSound@@QAEXMH@Z 004d1dd0 f   game.obj
 0001:000d0e70       ?SetEchoFrequency@AudSound@@QAEXMH@Z 004d1e70 f   game.obj
 0001:000d0ee0       ?SetRamp@AudSound@@QAEXMM@Z 004d1ee0 f   game.obj
 0001:000d0fc0       ?IsPlaying@AudSound@@QAEHH@Z 004d1fc0 f   game.obj
 0001:000d0ff0       ?AddWidgets@AudSound@@UAEXPAVBank@@@Z 004d1ff0 f   game.obj
 0001:000d1040       ?SetEchoAttenuation@AudSound@@QAEXM@Z 004d2040 f   game.obj
 0001:000d1080       ?SetDelayTime@AudSound@@QAEXM@Z 004d2080 f   game.obj
 0001:000d10d0       ?SetupOneShotLayerBuffers@AudSound@@QAEXHMH@Z 004d20d0 f   game.obj
 0001:000d1140       ?ReadyOneShotLayerBuf@AudSound@@QAEHXZ 004d2140 f   game.obj
 0001:000d1170       ?AllOneShotLayersPlaying@AudSound@@QAEHXZ 004d2170 f   game.obj
 0001:000d11a0       ?GetEffect@AudSound@@QAEHXZ 004d21a0 f   game.obj
 0001:000d11c0       ?SetEffect@AudSound@@QAEXH@Z 004d21c0 f   game.obj
 0001:000d1230       ?DisableEffect@AudSound@@QAEXH@Z 004d2230 f   game.obj
 0001:000d1280       ?Get2DFlags@AudSound@@SA?BKXZ 004d2280 f   game.obj
 0001:000d12a0       ?GetSoft2DFlags@AudSound@@SA?BKXZ 004d22a0 f   game.obj
 0001:000d12c0       ?GetFreqChange2DFlags@AudSound@@SA?BKXZ 004d22c0 f   game.obj
 0001:000d12e0       ?Get3DFlags@AudSound@@SA?BKXZ 004d22e0 f   game.obj
 0001:000d12f0       ?GetFreqChange3DFlags@AudSound@@SA?BKXZ 004d22f0 f   game.obj
 0001:000d1300       ?GetSecondaryEAXObj@AudSound@@QAEPAVCReverbBuffer@@H@Z 004d2300 f   game.obj
 0001:000d1330       ?Enable3DMode@AudSound@@QAEXXZ 004d2330 f   game.obj
 0001:000d1370       ?Disable3DMode@AudSound@@QAEXXZ 004d2370 f   game.obj
 0001:000d13b0       ?GetVolume@AudSound@@QAEMH@Z 004d23b0 f   game.obj
 0001:000d1410       ??0AudHead@@QAE@PAVMatrix34@@@Z 004d2410 f   game.obj
 0001:000d1460       ?Init@AudHead@@QAEHXZ      004d2460 f   game.obj
 0001:000d14b0       ?Update@AudHead@@EAEXXZ    004d24b0 f   game.obj
 0001:000d1630       ?WidgetSetRolloff@AudHead@@QAEXXZ 004d2630 f   game.obj
 0001:000d1640       ?AddWidgets@AudHead@@UAEXPAVBank@@@Z 004d2640 f   game.obj
 0001:000d16a0       ?SetRolloff@AudHead@@QAEXM@Z 004d26a0 f   game.obj
 0001:000d1700       ?SetDoppler@AudHead@@QAEXM@Z 004d2700 f   game.obj
 0001:000d1760       ?GetPositionPtr@AudHead@@QAEPAVVector3@@XZ 004d2760 f   game.obj
 0001:000d1770       ?GetHeadPtr@AudHead@@QAEPAVMatrix34@@XZ 004d2770 f   game.obj
 0001:000d17b0       ??0mmVoiceCommentary@@QAE@XZ 004d27b0 f   game.obj
 0001:000d1850       ?ValidateCity@mmVoiceCommentary@@QAEXPAD@Z 004d2850 f   game.obj
 0001:000d1890       ?SetFrequency@mmVoiceCommentary@@QAEXM@Z 004d2890 f   game.obj
 0001:000d18b0       ?StopNow@mmVoiceCommentary@@QAEXXZ 004d28b0 f   game.obj
 0001:000d1900       ?PlayRoam@mmVoiceCommentary@@QAEXXZ 004d2900 f   game.obj
 0001:000d1970       ?PlayFinalCheckPoint@mmVoiceCommentary@@QAEXXZ 004d2970 f   game.obj
 0001:000d19e0       ?PlayFinalLap@mmVoiceCommentary@@QAEXXZ 004d29e0 f   game.obj
 0001:000d1a50       ?Play@mmVoiceCommentary@@QAEXPAD@Z 004d2a50 f   game.obj
 0001:000d1aa0       ?PlayPreRace@mmVoiceCommentary@@QAEXXZ 004d2aa0 f   game.obj
 0001:000d1b10       ?GetRandomPreRace@mmVoiceCommentary@@QAEPADXZ 004d2b10 f   game.obj
 0001:000d1c90       ?GetRandomPreBlitz@mmVoiceCommentary@@QAEPADXZ 004d2c90 f   game.obj
 0001:000d1d70       ?GetRandomPreCircuit@mmVoiceCommentary@@QAEPADXZ 004d2d70 f   game.obj
 0001:000d1e50       ?GetRandomPreCheckPoint@mmVoiceCommentary@@QAEPADXZ 004d2e50 f   game.obj
 0001:000d1f60       ?PlayWinResults@mmVoiceCommentary@@QAEXXZ 004d2f60 f   game.obj
 0001:000d1fd0       ?PlayResults@mmVoiceCommentary@@QAEXF@Z 004d2fd0 f   game.obj
 0001:000d2040       ?GetRandomResults@mmVoiceCommentary@@QAEPADF@Z 004d3040 f   game.obj
 0001:000d2120       ?GetRandomPreRaceVeh@mmVoiceCommentary@@QAEPADXZ 004d3120 f   game.obj
 0001:000d2180       ?GetRandomResultsWin@mmVoiceCommentary@@QAEPADXZ 004d3180 f   game.obj
 0001:000d2320       ?GetRandomResultsPoor@mmVoiceCommentary@@QAEPADXZ 004d3320 f   game.obj
 0001:000d24c0       ?GetRandomResultsMid@mmVoiceCommentary@@QAEPADXZ 004d34c0 f   game.obj
 0001:000d2660       ?GetRandomTOD@mmVoiceCommentary@@QAEPADXZ 004d3660 f   game.obj
 0001:000d26c0       ?GetRandomWeather@mmVoiceCommentary@@QAEPADXZ 004d36c0 f   game.obj
 0001:000d2760       ?CatName@mmVoiceCommentary@@QAEPADPADHH@Z 004d3760 f   game.obj
 0001:000d2960       ?PlayCRPreRace@mmVoiceCommentary@@QAEXXZ 004d3960 f   game.obj
 0001:000d2a60       ?PlayCR@mmVoiceCommentary@@QAEXFF@Z 004d3a60 f   game.obj
 0001:000d2af0       ?PlayTeamCR@mmVoiceCommentary@@QAEXFF@Z 004d3af0 f   game.obj
 0001:000d2b60       ?GetRandomRobber@mmVoiceCommentary@@QAEPADF@Z 004d3b60 f   game.obj
 0001:000d2be0       ?GetRandomRedCR@mmVoiceCommentary@@QAEPADF@Z 004d3be0 f   game.obj
 0001:000d2c60       ?GetRandomBlueCR@mmVoiceCommentary@@QAEPADF@Z 004d3c60 f   game.obj
 0001:000d2ce0       ?GetRandomCop@mmVoiceCommentary@@QAEPADF@Z 004d3ce0 f   game.obj
 0001:000d2d60       ?PlayTimePenalty@mmVoiceCommentary@@QAEXXZ 004d3d60 f   game.obj
 0001:000d2e30       ?PlayEndRaceDamage@mmVoiceCommentary@@QAEXXZ 004d3e30 f   game.obj
 0001:000d2ea0       ?PlayUnlock@mmVoiceCommentary@@QAEXH@Z 004d3ea0 f   game.obj
 0001:000d2ef0       ?PlayGTUnlocked@mmVoiceCommentary@@QAEXXZ 004d3ef0 f   game.obj
 0001:000d2f50       ?PlayBusUnlocked@mmVoiceCommentary@@QAEXXZ 004d3f50 f   game.obj
 0001:000d2fb0       ?PlayCopCarUnlocked@mmVoiceCommentary@@QAEXXZ 004d3fb0 f   game.obj
 0001:000d30b0       ?PlayBulletUnlocked@mmVoiceCommentary@@QAEXXZ 004d40b0 f   game.obj
 0001:000d3110       ?PlaySemiUnlocked@mmVoiceCommentary@@QAEXXZ 004d4110 f   game.obj
 0001:000d3170       ?PlayNextRacesUnlocked@mmVoiceCommentary@@QAEXXZ 004d4170 f   game.obj
 0001:000d3240       ?Update@mmVoiceCommentary@@QAEXXZ 004d4240 f   game.obj
 0001:000d3310       ?Init@MixerCTL@@QAEKXZ     004d4310 f   game.obj
 0001:000d3350       ?AssignWaveBalance@MixerCTL@@QAEXM@Z 004d4350 f   game.obj
 0001:000d33a0       ?AssignCDBalance@MixerCTL@@QAEXM@Z 004d43a0 f   game.obj
 0001:000d33f0       ?GetWaveBalance@MixerCTL@@QAEMXZ 004d43f0 f   game.obj
 0001:000d3400       ?GetWaveVolume@MixerCTL@@QAEMXZ 004d4400 f   game.obj
 0001:000d3410       ?AssignWaveVolume@MixerCTL@@QAEXM@Z 004d4410 f   game.obj
 0001:000d3430       ?AssignCDVolume@MixerCTL@@QAEXM@Z 004d4430 f   game.obj
 0001:000d3450       ?GetCDBalance@MixerCTL@@QAEMXZ 004d4450 f   game.obj
 0001:000d3460       ?GetCDVolume@MixerCTL@@QAEMXZ 004d4460 f   game.obj
 0001:000d3470       ?AssignMixerVolume@MixerCTL@@QAEKMK@Z 004d4470 f   game.obj
 0001:000d36d0       ?AssignMixerBalance@MixerCTL@@QAEKMK@Z 004d46d0 f   game.obj
 0001:000d3980       ?GetMixerBalance@MixerCTL@@QAEMK@Z 004d4980 f   game.obj
 0001:000d3c30       ??0DupBuffCreator@@QAE@XZ  004d4c30 f   game.obj
 0001:000d3c70       ??1DupBuffCreator@@QAE@XZ  004d4c70 f   game.obj
 0001:000d3cd0       ?Create@DupBuffCreator@@QAEPAUIDirectSoundBuffer@@PADPAFPAH@Z 004d4cd0 f   game.obj
 0001:000d3dd0       ?Add@DupBuffCreator@@QAEXPADPAUIDirectSoundBuffer@@@Z 004d4dd0 f   game.obj
 0001:000d3f70       ?FindOriginal@DupBuffCreator@@QAEPAUIDirectSoundBuffer@@PADPAF@Z 004d4f70 f   game.obj
 0001:000d4000       ?GetWAVEFORMATEX@DupBuffCreator@@AAEPAUtWAVEFORMATEX@@PAUIDirectSoundBuffer@@@Z 004d5000 f   game.obj
 0001:000d4080       ?IntegrityCheck@DupBuffCreator@@AAEHPAUIDirectSoundBuffer@@0PAH@Z 004d5080 f   game.obj
 0001:000d41b0       ??0DSGlobal@@QAE@XZ        004d51b0 f   game.obj
 0001:000d4270       ??1DSGlobal@@QAE@XZ        004d5270 f   game.obj
 0001:000d4350       ?DeallocateUIADF@DSGlobal@@QAEXXZ 004d5350 f   game.obj
 0001:000d43b0       ?DeallocateCityADF@DSGlobal@@QAEXXZ 004d53b0 f   game.obj
 0001:000d43e0       ?DeallocateADFRecord@DSGlobal@@QAEXH@Z 004d53e0 f   game.obj
 0001:000d4470       ?DeInit@DSGlobal@@QAEXFF@Z 004d5470 f   game.obj
 0001:000d45c0       ?Init@DSGlobal@@QAEHKEPAIPADFF@Z 004d55c0 f   game.obj
 0001:000d47e0       ?Init3DListener@DSGlobal@@QAEHMMMMM@Z 004d57e0 f   game.obj
 0001:000d4870       ?UpperCase@@YAXPAD@Z       004d5870 f   game.obj
 0001:000d48c0       ?IsDSDeviceInList@@YAHPAU_GUID@@@Z 004d58c0 f   game.obj
 0001:000d4920       ?DSEnumProc@@YGHPAU_GUID@@PAD1PAX@Z 004d5920 f   game.obj
 0001:000d4ac0       ?SetDeviceRating@DSGlobal@@QAEXPAUtag_dsdevdesc@@@Z 004d5ac0 f   game.obj
 0001:000d4c20       ?EnumDSDevices@DSGlobal@@QAEHXZ 004d5c20 f   game.obj
 0001:000d4c40       ?InitPrimarySoundBuffer@DSGlobal@@QAEHKEPAD@Z 004d5c40 f   game.obj
 0001:000d4e50       ?ClearDSDeviceList@DSGlobal@@QAEXXZ 004d5e50 f   game.obj
 0001:000d4e90       ?LoadUIADF@DSGlobal@@QAEHPAD@Z 004d5e90 f   game.obj
 0001:000d5030       ?LoadCityADF@DSGlobal@@QAEHPADHK@Z 004d6030 f   game.obj
 0001:000d5240       ?InitCityADF@DSGlobal@@QAEHPADHK@Z 004d6240 f   game.obj
 0001:000d5300       ?InitUIADF@DSGlobal@@QAEHPADHK@Z 004d6300 f   game.obj
 0001:000d53c0       ?ConvertTo8Bit@DSGlobal@@QAEXH@Z 004d63c0 f   game.obj
 0001:000d5550       ?FormatCodeToWFX@@YAHKPAUtWAVEFORMATEX@@@Z 004d6550 f   game.obj
 0001:000d5600       ?SetPrimaryBufferFormat@DSGlobal@@QAEXKE@Z 004d6600 f   game.obj
 0001:000d56f0       ?TranslateDSError@DSGlobal@@QAEPADJ@Z 004d66f0 f   game.obj
 0001:000d58a0       ?SetBitDepth@DSGlobal@@QAEXH@Z 004d68a0 f   game.obj
 0001:000d58d0       ?GetStereoOnMask@DSGlobal@@SA?BIXZ 004d68d0 f   game.obj
 0001:000d58e0       ?GetHiResMask@DSGlobal@@SA?BIXZ 004d68e0 f   game.obj
 0001:000d58f0       ?GetHiSampleSizeMask@DSGlobal@@SA?BIXZ 004d68f0 f   game.obj
 0001:000d5900       ?GetEchoOnMask@DSGlobal@@SA?BIXZ 004d6900 f   game.obj
 0001:000d5910       ?GetDSound3DMask@DSGlobal@@SA?BIXZ 004d6910 f   game.obj
 0001:000d5920       ?GetSoundFXOnMask@DSGlobal@@SA?BIXZ 004d6920 f   game.obj
 0001:000d5930       ?GetCommentaryOnMask@DSGlobal@@SA?BIXZ 004d6930 f   game.obj
 0001:000d5940       ?GetCDMusicOnMask@DSGlobal@@SA?BIXZ 004d6940 f   game.obj
 0001:000d5950       ?GetUsingEAXMask@DSGlobal@@SA?BIXZ 004d6950 f   game.obj
 0001:000d5960       ?EAXEnabled@DSGlobal@@QAEIXZ 004d6960 f   game.obj
 0001:000d5970       ?IsAlwaysEAX@DSGlobal@@QAEIXZ 004d6970 f   game.obj
 0001:000d5980       ?AlwaysEAX@DSGlobal@@QAEII@Z 004d6980 f   game.obj
 0001:000d59b0       ?DSound3DEnabled@DSGlobal@@QAEIXZ 004d69b0 f   game.obj
 0001:000d59c0       ?DisableEAXFlag@DSGlobal@@QAEXXZ 004d69c0 f   game.obj
 0001:000d59d0       ??0SoundObj@@QAE@XZ        004d69d0 f   game.obj
 0001:000d5a90       ??1SoundObj@@QAE@XZ        004d6a90 f   game.obj
 0001:000d5b50       ?DeallocateEffects@SoundObj@@QAEXXZ 004d6b50 f   game.obj
 0001:000d5c20       ?SetDelayTime@SoundObj@@QAEXM@Z 004d6c20 f   game.obj
 0001:000d5d40       ?SetupOneShotLayerBuffers@SoundObj@@QAEFFMPAD@Z 004d6d40 f   game.obj
 0001:000d5dd0       ?FreeOneShotLayerBuffers@SoundObj@@QAEXXZ 004d6dd0 f   game.obj
 0001:000d5e50       ?DSCreateSoundBuffer@SoundObj@@QAEHPAPAUIDirectSoundBuffer@@E@Z 004d6e50 f   game.obj
 0001:000d5ee0       ?DSLoadSoundBuffer@SoundObj@@QAEPAUIDirectSoundBuffer@@PBDK@Z 004d6ee0 f   game.obj
 0001:000d60c0       ?DSLoadSoundBuffer@SoundObj@@QAEXGK@Z 004d70c0 f   game.obj
 0001:000d6200       ?ReadADFRecord@SoundObj@@QAEXG@Z 004d7200 f   game.obj
 0001:000d63c0       ?DSGetWaveResource@SoundObj@@QAEHPAUHINSTANCE__@@PBDPAPAUtWAVEFORMATEX@@PAPAEPAK@Z 004d73c0 f   game.obj
 0001:000d64a0       ?ConvertTo8Bit@SoundObj@@QAEXXZ 004d74a0 f   game.obj
 0001:000d6600       ?DSGetWaveFile@SoundObj@@QAEHPAUHINSTANCE__@@PBDPAPAUtWAVEFORMATEX@@PAPAEPAKPAPAX@Z 004d7600 f   game.obj
 0001:000d68d0       ?InitDummy@SoundObj@@QAEHXZ 004d78d0 f   game.obj
 0001:000d6a80       ?Init@SoundObj@@QAEHPBDKF@Z 004d7a80 f   game.obj
 0001:000d6b40       ?Init@SoundObj@@QAEHGKF@Z  004d7b40 f   game.obj
 0001:000d6bf0       ?SetEffect@SoundObj@@QAEXFPAD@Z 004d7bf0 f   game.obj
 0001:000d6d70       ?SetPlayPosition@SoundObj@@QAEXK@Z 004d7d70 f   game.obj
 0001:000d6d90       ?Play@SoundObj@@QAEHKPAD@Z 004d7d90 f   game.obj
 0001:000d6fd0       ?Stop@SoundObj@@QAEHXZ     004d7fd0 f   game.obj
 0001:000d7060       ?StopEchoBuffers@SoundObj@@QAEXXZ 004d8060 f   game.obj
 0001:000d7080       ?DSFillSoundBuffer@SoundObj@@QAEHPAUIDirectSoundBuffer@@@Z 004d8080 f   game.obj
 0001:000d7140       ?DSParseWaveResource@SoundObj@@QAEHPAXPAPAUtWAVEFORMATEX@@PAPAEPAK@Z 004d8140 f   game.obj
 0001:000d7240       ?IsPlaying@SoundObj@@QAEFF@Z 004d8240 f   game.obj
 0001:000d7320       ?ReadyOneShotLayerBuf@SoundObj@@QAEFXZ 004d8320 f   game.obj
 0001:000d73b0       ?AllOneShotLayersPlaying@SoundObj@@QAEFXZ 004d83b0 f   game.obj
 0001:000d7450       ?SetPosition@SoundObj@@QAEXMMM@Z 004d8450 f   game.obj
 0001:000d7490       ?SetVelocity@SoundObj@@QAEXMMM@Z 004d8490 f   game.obj
 0001:000d74d0       ?SetFrequency@SoundObj@@QAEXM@Z 004d84d0 f   game.obj
 0001:000d7710       ?SetEchoFrequency@SoundObj@@QAEXM@Z 004d8710 f   game.obj
 0001:000d77d0       ?SetVolume@SoundObj@@QAEXM@Z 004d87d0 f   game.obj
 0001:000d7910       ?SetPan@SoundObj@@QAEXM@Z  004d8910 f   game.obj
 0001:000d7a50       ?SetEchoPan@SoundObj@@QAEXM@Z 004d8a50 f   game.obj
 0001:000d7a80       ?SetRamp@SoundObj@@QAEXMM@Z 004d8a80 f   game.obj
 0001:000d7ab0       ?Set3DMode@SoundObj@@QAEXK@Z 004d8ab0 f   game.obj
 0001:000d7ad0       ?SetConeOutsideVolume@SoundObj@@QAEXJ@Z 004d8ad0 f   game.obj
 0001:000d7b00       ?SetConeAngles@SoundObj@@QAEXKK@Z 004d8b00 f   game.obj
 0001:000d7b40       ?SetConeOrientation@SoundObj@@QAEXPAVVector3@@@Z 004d8b40 f   game.obj
 0001:000d7b70       ?SetupEchoBuffer@SoundObj@@QAEXPAD@Z 004d8b70 f   game.obj
 0001:000d7c10       ?SetupChorusBuffer@SoundObj@@AAEPAUIDirectSoundBuffer@@PAD@Z 004d8c10 f   game.obj
 0001:000d7c90       ?UpdateSeconds@SoundObj@@QAEXXZ 004d8c90 f   game.obj
 0001:000d7cc0       ?UpdateEcho@SoundObj@@QAEXXZ 004d8cc0 f   game.obj
 0001:000d7d30       ?UpdatePlayEcho@SoundObj@@QAEXXZ 004d8d30 f   game.obj
 0001:000d7e30       ?UpdateStopEcho@SoundObj@@QAEXXZ 004d8e30 f   game.obj
 0001:000d7ef0       ?UpdateVolumeEcho@SoundObj@@QAEXXZ 004d8ef0 f   game.obj
 0001:000d7fb0       ?UpdatePitchEcho@SoundObj@@QAEXXZ 004d8fb0 f   game.obj
 0001:000d8070       ?DisableEffect@SoundObj@@QAEXF@Z 004d9070 f   game.obj
 0001:000d8170       ?CreateListenerEAXObj@SoundObj@@QAEGXZ 004d9170 f   game.obj
 0001:000d8210       ?CreateSecondaryEAXObj@SoundObj@@QAEGXZ 004d9210 f   game.obj
 0001:000d82d0       ?Enable3DMode@SoundObj@@QAEXXZ 004d92d0 f   game.obj
 0001:000d8300       ?Disable3DMode@SoundObj@@QAEXXZ 004d9300 f   game.obj
 0001:000d8320       ??0AudStream@@QAE@KHF@Z    004d9320 f   game.obj
 0001:000d8460       ??1AudStream@@UAE@XZ       004d9460 f   game.obj
 0001:000d8560       ?SetPriority@AudStream@@QAEXH@Z 004d9560 f   game.obj
 0001:000d8580       ?DeallocateStreamObjs@AudStream@@QAEXXZ 004d9580 f   game.obj
 0001:000d8610       ?ReallocateStreamObjs@AudStream@@QAEXXZ 004d9610 f   game.obj
 0001:000d8690       ?Load@AudStream@@QAEHPADH@Z 004d9690 f   game.obj
 0001:000d8830       ?Reset@AudStream@@UAEXXZ   004d9830 f   game.obj
 0001:000d8850       ?Update@AudStream@@UAEXXZ  004d9850 f   game.obj
 0001:000d88a0       ?PlayOnce@AudStream@@QAEXPADMM@Z 004d98a0 f   game.obj
 0001:000d89b0       ?Stop@AudStream@@QAEXXZ    004d99b0 f   game.obj
 0001:000d89d0       ?SetFrequency@AudStream@@QAEXMH@Z 004d99d0 f   game.obj
 0001:000d8a40       ?SetVolume@AudStream@@QAEXMH@Z 004d9a40 f   game.obj
 0001:000d8ab0       ?SetPan@AudStream@@QAEXMH@Z 004d9ab0 f   game.obj
 0001:000d8b40       ?IsPlaying@AudStream@@QAEHXZ 004d9b40 f   game.obj
 0001:000d8b60       ?GetFreqChange2DFlags@AudStream@@SA?BKXZ 004d9b60 f   game.obj
 0001:000d8bb0       ??0CReverb@@QAE@PAUIDirectSound3DBuffer@@@Z 004d9bb0 f   game.obj
 0001:000d8c50       ??1CReverb@@QAE@XZ         004d9c50 f   game.obj
 0001:000d8c60       ?PropertySetOk@CReverb@@QAEHXZ 004d9c60 f   game.obj
 0001:000d8c70       ?QueryProperty@CReverb@@AAEHK@Z 004d9c70 f   game.obj
 0001:000d8cc0       ?SetEnvironment@CReverb@@QAEXK@Z 004d9cc0 f   game.obj
 0001:000d8ce0       ?SetVolume@CReverb@@QAEXM@Z 004d9ce0 f   game.obj
 0001:000d8d00       ?SetDecayTime@CReverb@@QAEXM@Z 004d9d00 f   game.obj
 0001:000d8d20       ?SetDamping@CReverb@@QAEXM@Z 004d9d20 f   game.obj
 0001:000d8d40       ?SetPreset@CReverb@@QAEXKMMM@Z 004d9d40 f   game.obj
 0001:000d8d80       ?SetPreset@CReverb@@QAEXPAUEAX_REVERBPROPERTIES@@@Z 004d9d80 f   game.obj
 0001:000d8da0       ?GetEnvironment@CReverb@@QAEKXZ 004d9da0 f   game.obj
 0001:000d8de0       ?GetVolume@CReverb@@QAEMXZ 004d9de0 f   game.obj
 0001:000d8e20       ?GetDecayTime@CReverb@@QAEMXZ 004d9e20 f   game.obj
 0001:000d8e60       ?GetDamping@CReverb@@QAEMXZ 004d9e60 f   game.obj
 0001:000d8ea0       ?GetAll@CReverb@@QAEXPAUEAX_REVERBPROPERTIES@@@Z 004d9ea0 f   game.obj
 0001:000d8ed0       ??0CReverbBuffer@@QAE@PAUIDirectSound3DBuffer@@@Z 004d9ed0 f   game.obj
 0001:000d8f20       ??1CReverbBuffer@@QAE@XZ   004d9f20 f   game.obj
 0001:000d8f30       ?PropertySetOk@CReverbBuffer@@QAEHXZ 004d9f30 f   game.obj
 0001:000d8f40       ?QueryProperty@CReverbBuffer@@AAEHK@Z 004d9f40 f   game.obj
 0001:000d8f90       ?SetReverbMix@CReverbBuffer@@QAEXM@Z 004d9f90 f   game.obj
 0001:000d8fb0       ?GetReverbMix@CReverbBuffer@@QAEMXZ 004d9fb0 f   game.obj
 0001:000d8ff0       ??0StreamObj@@QAE@XZ       004d9ff0 f   game.obj
 0001:000d9080       ??1StreamObj@@QAE@XZ       004da080 f   game.obj
 0001:000d9190       ?DSCreateSoundBuffer@StreamObj@@QAEHXZ 004da190 f   game.obj
 0001:000d9220       ?DSLoadSoundBuffer@StreamObj@@QAEPAUIDirectSoundBuffer@@PBDK@Z 004da220 f   game.obj
 0001:000d9270       ?OpenWaveFile@StreamObj@@AAEPAVStream@@PBDF@Z 004da270 f   game.obj
 0001:000d9490       ?GetWaveBytesOffset@StreamObj@@AAEIPAVStream@@F@Z 004da490 f   game.obj
 0001:000d95d0       ?Init@StreamObj@@QAEHPBDK@Z 004da5d0 f   game.obj
 0001:000d9640       ?Play@StreamObj@@QAEHXZ    004da640 f   game.obj
 0001:000d96d0       ?SetPlayOneShotEvent@StreamObj@@QAEXPAD@Z 004da6d0 f   game.obj
 0001:000d9720       ?SetStopEvent@StreamObj@@QAEXXZ 004da720 f   game.obj
 0001:000d9740       ?SetVolumeEvent@StreamObj@@QAEXM@Z 004da740 f   game.obj
 0001:000d9770       ?SetFrequencyEvent@StreamObj@@QAEXM@Z 004da770 f   game.obj
 0001:000d97a0       ?SetPanEvent@StreamObj@@QAEXM@Z 004da7a0 f   game.obj
 0001:000d97d0       ?Play@StreamObj@@QAEHPAD@Z 004da7d0 f   game.obj
 0001:000d9890       ?Stop@StreamObj@@QAEHXZ    004da890 f   game.obj
 0001:000d98c0       ?FillDataBuffer@StreamObj@@QAEHI@Z 004da8c0 f   game.obj
 0001:000d9ad0       ?IsPlaying@StreamObj@@QAEFXZ 004daad0 f   game.obj
 0001:000d9b30       ?SetFrequency@StreamObj@@QAEXM@Z 004dab30 f   game.obj
 0001:000d9be0       ?SetVolume@StreamObj@@QAEXM@Z 004dabe0 f   game.obj
 0001:000d9c20       ?SetPan@StreamObj@@QAEXM@Z 004dac20 f   game.obj
 0001:000d9c60       ?SetupNotifications@StreamObj@@QAEHXZ 004dac60 f   game.obj
 0001:000d9f00       ?HandleNotifications@@YAKPAX@Z 004daf00 f   game.obj
 0001:000da2f0       ?Update@StreamObj@@QAEXXZ  004db2f0 f   game.obj
 0001:000da3b0       ?GetFileStreamPtr@StreamObj@@QAEPAVStream@@XZ 004db3b0 f   game.obj
 0001:000da3c0       ?SetNumLoopIndices@StreamObj@@QAEXF@Z 004db3c0 f   game.obj
 0001:000da420       ?SetLoopPointInfo@StreamObj@@QAEXKKIFF@Z 004db420 f   game.obj
 0001:000da530       ?SetPlayingFlag@StreamObj@@QAEXF@Z 004db530 f   game.obj
 0001:000da550       ??0PovCamCS@@QAE@XZ        004db550 f   game.obj
 0001:000da650       ?MakeActive@PovCamCS@@UAEXXZ 004db650 f   game.obj
 0001:000da6a0       ?AfterLoad@PovCamCS@@UAEXXZ 004db6a0 f   game.obj
 0001:000da6b0       ?Reset@PovCamCS@@UAEXXZ    004db6b0 f   game.obj
 0001:000da6f0       ?AddWidgets@PovCamCS@@UAEXPAVBank@@@Z 004db6f0 f   game.obj
 0001:000da7c0       ?Update@PovCamCS@@UAEXXZ   004db7c0 f   game.obj
 0001:000da7e0       ?UpdatePOV@PovCamCS@@AAEXXZ 004db7e0 f   game.obj
 0001:000daa80       ?DeclareFields@PovCamCS@@SAXXZ 004dba80 f   game.obj
 0001:000dab10       ?new_PovCamCS@@YAPAXH@Z    004dbb10 f   game.obj
 0001:000dabe0       ?delete_PovCamCS@@YAXPAXH@Z 004dbbe0 f   game.obj
 0001:000dac30       ?GetClass@PovCamCS@@UAEPAVMetaClass@@XZ 004dbc30 f   game.obj
 0001:000daca0       ??0TrackCamCS@@QAE@XZ      004dbca0 f   game.obj
 0001:000daf40       ??1TrackCamCS@@UAE@XZ      004dbf40 f   game.obj
 0001:000daf90       ?MakeActive@TrackCamCS@@UAEXXZ 004dbf90 f   game.obj
 0001:000dafd0       ?Reset@TrackCamCS@@UAEXXZ  004dbfd0 f   game.obj
 0001:000db010       ?AddWidgets@TrackCamCS@@UAEXPAVBank@@@Z 004dc010 f   game.obj
 0001:000db4a0       ?Update@TrackCamCS@@UAEXXZ 004dc4a0 f   game.obj
 0001:000db580       ?UpdateCar@TrackCamCS@@AAEXXZ 004dc580 f   game.obj
 0001:000db720       ?UpdateTrack@TrackCamCS@@AAEXXZ 004dc720 f   game.obj
 0001:000dc060       ?UpdateSwing@TrackCamCS@@AAEXXZ 004dd060 f   game.obj
 0001:000dc440       ?MinMax@TrackCamCS@@AAEXVMatrix34@@@Z 004dd440 f   game.obj
 0001:000dc5e0       ?Collide@TrackCamCS@@AAEXVVector3@@@Z 004dd5e0 f   game.obj
 0001:000dca80       ?SwingToRear@TrackCamCS@@QAEXXZ 004dda80 f   game.obj
 0001:000dcaf0       ?Rear@TrackCamCS@@AAEXM@Z  004ddaf0 f   game.obj
 0001:000dcb70       ?DeclareFields@TrackCamCS@@SAXXZ 004ddb70 f   game.obj
 0001:000dcd70       ?new_TrackCamCS@@YAPAXH@Z  004ddd70 f   game.obj
 0001:000dce40       ?delete_TrackCamCS@@YAXPAXH@Z 004dde40 f   game.obj
 0001:000dce90       ?GetClass@TrackCamCS@@UAEPAVMetaClass@@XZ 004dde90 f   game.obj
 0001:000dcf00       ??0mmViewCS@@QAE@XZ        004ddf00 f   game.obj
 0001:000dcfc0       ?Instance@mmViewCS@@SAPAV1@PAVasCamera@@@Z 004ddfc0 f   game.obj
 0001:000dd050       ?SetCurrentCam@mmViewCS@@QAEXPAVCarCamCS@@@Z 004de050 f   game.obj
 0001:000dd0c0       ?NewCam@mmViewCS@@QAEHPAVCarCamCS@@HMVCallback@@@Z 004de0c0 f   game.obj
 0001:000dd170       ?Update@mmViewCS@@UAEXXZ   004de170 f   game.obj
 0001:000dd1a0       ?SetCamera@mmViewCS@@QAEXPAVasCamera@@@Z 004de1a0 f   game.obj
 0001:000dd1f0       ?Reset@mmViewCS@@UAEXXZ    004de1f0 f   game.obj
 0001:000dd250       ?DeclareFields@mmViewCS@@SAXXZ 004de250 f   game.obj
 0001:000dd2a0       ?new_mmViewCS@@YAPAXH@Z    004de2a0 f   game.obj
 0001:000dd370       ?delete_mmViewCS@@YAXPAXH@Z 004de370 f   game.obj
 0001:000dd3c0       ?GetClass@mmViewCS@@UAEPAVMetaClass@@XZ 004de3c0 f   game.obj
 0001:000dd430       ??0PostCamCS@@QAE@XZ       004de430 f   game.obj
 0001:000dd480       ?Init@PostCamCS@@QAEXPAVmmCar@@@Z 004de480 f   game.obj
 0001:000dd4a0       ?Reset@PostCamCS@@UAEXXZ   004de4a0 f   game.obj
 0001:000dd4b0       ?MakeActive@PostCamCS@@UAEXXZ 004de4b0 f   game.obj
 0001:000dd530       ?Update@PostCamCS@@UAEXXZ  004de530 f   game.obj
 0001:000dd660       ?AddWidgets@PostCamCS@@UAEXPAVBank@@@Z 004de660 f   game.obj
 0001:000dd680       ?DeclareFields@PostCamCS@@SAXXZ 004de680 f   game.obj
 0001:000dd6d0       ?new_PostCamCS@@YAPAXH@Z   004de6d0 f   game.obj
 0001:000dd7a0       ?delete_PostCamCS@@YAXPAXH@Z 004de7a0 f   game.obj
 0001:000dd7f0       ?GetClass@PostCamCS@@UAEPAVMetaClass@@XZ 004de7f0 f   game.obj
 0001:000dd860       ?AddWidgets@PreCamCS@@UAEXPAVBank@@@Z 004de860 f   game.obj
 0001:000dd950       ?DeclareFields@PreCamCS@@SAXXZ 004de950 f   game.obj
 0001:000dd9a0       ?new_PreCamCS@@YAPAXH@Z    004de9a0 f   game.obj
 0001:000dda70       ?delete_PreCamCS@@YAXPAXH@Z 004dea70 f   game.obj
 0001:000ddac0       ?GetClass@PreCamCS@@UAEPAVMetaClass@@XZ 004deac0 f   game.obj
 0001:000ddad0       ??0PointCamCS@@QAE@XZ      004dead0 f   game.obj
 0001:000ddb00       ?Init@PointCamCS@@QAEXPAVmmCar@@@Z 004deb00 f   game.obj
 0001:000ddb30       ?Reset@PointCamCS@@UAEXXZ  004deb30 f   game.obj
 0001:000ddb40       ?MakeActive@PointCamCS@@UAEXXZ 004deb40 f   game.obj
 0001:000ddb70       ?SetPos@PointCamCS@@QAEXAAVVector3@@@Z 004deb70 f   game.obj
 0001:000ddbb0       ?SetMaxDist@PointCamCS@@QAEXM@Z 004debb0 f   game.obj
 0001:000ddbd0       ?SetMinDist@PointCamCS@@QAEXM@Z 004debd0 f   game.obj
 0001:000ddbf0       ?SetAppRate@PointCamCS@@QAEXM@Z 004debf0 f   game.obj
 0001:000ddc00       ?SetVel@PointCamCS@@QAEXAAVVector3@@@Z 004dec00 f   game.obj
 0001:000ddc20       ?Update@PointCamCS@@UAEXXZ 004dec20 f   game.obj
 0001:000ddf00       ?DeclareFields@PointCamCS@@SAXXZ 004def00 f   game.obj
 0001:000ddf50       ?new_PointCamCS@@YAPAXH@Z  004def50 f   game.obj
 0001:000de020       ?delete_PointCamCS@@YAXPAXH@Z 004df020 f   game.obj
 0001:000de070       ?GetClass@PointCamCS@@UAEPAVMetaClass@@XZ 004df070 f   game.obj
 0001:000de0e0       ??0AICamCS@@QAE@XZ         004df0e0 f   game.obj
 0001:000de110       ?Init@AICamCS@@QAEXPAVmmCar@@@Z 004df110 f   game.obj
 0001:000de120       ?Reset@AICamCS@@UAEXXZ     004df120 f   game.obj
 0001:000de130       ?MakeActive@AICamCS@@UAEXXZ 004df130 f   game.obj
 0001:000de240       ?Update@AICamCS@@UAEXXZ    004df240 f   game.obj
 0001:000de5a0       ?DeclareFields@AICamCS@@SAXXZ 004df5a0 f   game.obj
 0001:000de5f0       ?new_AICamCS@@YAPAXH@Z     004df5f0 f   game.obj
 0001:000de6c0       ?delete_AICamCS@@YAXPAXH@Z 004df6c0 f   game.obj
 0001:000de710       ?GetClass@AICamCS@@UAEPAVMetaClass@@XZ 004df710 f   game.obj
 0001:000de780       ??0PolarCamCS@@QAE@XZ      004df780 f   game.obj
 0001:000de7d0       ?Init@PolarCamCS@@QAEXPAVmmCar@@@Z 004df7d0 f   game.obj
 0001:000de800       ?Reset@PolarCamCS@@UAEXXZ  004df800 f   game.obj
 0001:000de810       ?MakeActive@PolarCamCS@@UAEXXZ 004df810 f   game.obj
 0001:000de840       ?Update@PolarCamCS@@UAEXXZ 004df840 f   game.obj
 0001:000dec40       ?DeclareFields@PolarCamCS@@SAXXZ 004dfc40 f   game.obj
 0001:000dec90       ?new_PolarCamCS@@YAPAXH@Z  004dfc90 f   game.obj
 0001:000ded60       ?delete_PolarCamCS@@YAXPAXH@Z 004dfd60 f   game.obj
 0001:000dedb0       ?GetClass@PolarCamCS@@UAEPAVMetaClass@@XZ 004dfdb0 f   game.obj
 0001:000dee20       ??0CarCamCS@@QAE@XZ        004dfe20 f   game.obj
 0001:000dee40       ?Init@CarCamCS@@QAEXPAVmmCar@@PAD@Z 004dfe40 f   game.obj
 0001:000dee70       ?AddWidgets@CarCamCS@@UAEXPAVBank@@@Z 004dfe70 f   game.obj
 0001:000dee80       ?DeclareFields@CarCamCS@@SAXXZ 004dfe80 f   game.obj
 0001:000deed0       ?new_CarCamCS@@YAPAXH@Z    004dfed0 f   game.obj
 0001:000defa0       ?delete_CarCamCS@@YAXPAXH@Z 004dffa0 f   game.obj
 0001:000deff0       ?GetClass@CarCamCS@@UAEPAVMetaClass@@XZ 004dfff0 f   game.obj
 0001:000df060       ??0TransitionCS@@QAE@XZ    004e0060 f   game.obj
 0001:000df0f0       ?Init@TransitionCS@@QAEXPAVmmCar@@@Z 004e00f0 f   game.obj
 0001:000df110       ?Update@TransitionCS@@UAEXXZ 004e0110 f   game.obj
 0001:000df790       ?ForceMatrixDelta@TransitionCS@@UAEXABVVector3@@@Z 004e0790 f   game.obj
 0001:000df7c0       ?NewTransition@TransitionCS@@QAEXPAVCarCamCS@@0@Z 004e07c0 f   game.obj
 0001:000df7f0       ?NextTransition@TransitionCS@@QAEXPAVCarCamCS@@@Z 004e07f0 f   game.obj
 0001:000df830       ?StartTransition@TransitionCS@@QAEXXZ 004e0830 f   game.obj
 0001:000df8a0       ?StartNextTransition@TransitionCS@@QAEXXZ 004e08a0 f   game.obj
 0001:000df8e0       ?ReverseTransition@TransitionCS@@QAEXXZ 004e08e0 f   game.obj
 0001:000df960       ??0BaseCamCS@@QAE@XZ       004e0960 f   game.obj
 0001:000dfa00       ?AfterLoad@BaseCamCS@@UAEXXZ 004e0a00 f   game.obj
 0001:000dfa10       ?IsViewCSInTransition@BaseCamCS@@QAEHXZ 004e0a10 f   game.obj
 0001:000dfa40       ?UpdateView@BaseCamCS@@QAEXXZ 004e0a40 f   game.obj
 0001:000dfa90       ?AddWidgets@BaseCamCS@@UAEXPAVBank@@@Z 004e0a90 f   game.obj
 0001:000dfbe0       ?ForceMatrixDelta@BaseCamCS@@UAEXABVVector3@@@Z 004e0be0 f   game.obj
 0001:000dfc30       ?DeclareFields@BaseCamCS@@SAXXZ 004e0c30 f   game.obj
 0001:000dfcf0       ?new_BaseCamCS@@YAPAXH@Z   004e0cf0 f   game.obj
 0001:000dfdc0       ?delete_BaseCamCS@@YAXPAXH@Z 004e0dc0 f   game.obj
 0001:000dfe10       ?GetClass@BaseCamCS@@UAEPAVMetaClass@@XZ 004e0e10 f   game.obj
 0001:000dfe80       ??0AppCamCS@@QAE@XZ        004e0e80 f   game.obj
 0001:000dff70       ?ApproachIt@AppCamCS@@IAEXXZ 004e0f70 f   game.obj
 0001:000dffa0       ?UpdateApproach@AppCamCS@@AAEXXZ 004e0fa0 f   game.obj
 0001:000e0510       ?UpdateMaxDist@AppCamCS@@AAEXXZ 004e1510 f   game.obj
 0001:000e07a0       ?DApproach@AppCamCS@@AAEHAAMMMM0M@Z 004e17a0 f   game.obj
 0001:000e08f0       ?AddWidgets@AppCamCS@@UAEXPAVBank@@@Z 004e18f0 f   game.obj
 0001:000e0c10       ?DeclareFields@AppCamCS@@SAXXZ 004e1c10 f   game.obj
 0001:000e0da0       ?new_AppCamCS@@YAPAXH@Z    004e1da0 f   game.obj
 0001:000e0e70       ?delete_AppCamCS@@YAXPAXH@Z 004e1e70 f   game.obj
 0001:000e0ec0       ?GetClass@AppCamCS@@UAEPAVMetaClass@@XZ 004e1ec0 f   game.obj
 0001:000e0f30       ??0Spline@@QAE@XZ          004e1f30 f   game.obj
 0001:000e0f60       ?InRange@Spline@@QAEHXZ    004e1f60 f   game.obj
 0001:000e0fc0       ?CalcCoeff@Spline@@QAEXXZ  004e1fc0 f   game.obj
 0001:000e1120       ?SetValue@Spline@@QAEXPAM@Z 004e2120 f   game.obj
 0001:000e11a0       ?SetGoal@Spline@@QAEXPAMM@Z 004e21a0 f   game.obj
 0001:000e1290       ?Solve@Spline@@QAEXM@Z     004e2290 f   game.obj
 0001:000e1400       ?FixTimeStop@Spline@@QAEXXZ 004e2400 f   game.obj
 0001:000e1440       ?Update@Spline@@UAEXXZ     004e2440 f   game.obj
 0001:000e1490       ?AddWidgets@Spline@@UAEXPAVBank@@@Z 004e2490 f   game.obj
 0001:000e14a0       ?DeclareFields@Spline@@SAXXZ 004e24a0 f   game.obj
 0001:000e14f0       ?new_Spline@@YAPAXH@Z      004e24f0 f   game.obj
 0001:000e15c0       ?delete_Spline@@YAXPAXH@Z  004e25c0 f   game.obj
 0001:000e1610       ?GetClass@Spline@@UAEPAVMetaClass@@XZ 004e2610 f   game.obj
 0001:000e1680       ??0mmGameRecord@@QAE@M@Z   004e2680 f   game.obj
 0001:000e16b0       ??1mmGameRecord@@QAE@XZ    004e26b0 f   game.obj
 0001:000e16f0       ?Init@mmGameRecord@@QAEXH@Z 004e26f0 f   game.obj
 0001:000e1760       ?Dump@mmGameRecord@@QAEXPAD@Z 004e2760 f   game.obj
 0001:000e1860       ?Register@mmGameRecord@@QAEHAAVVector4@@MMMMMMMM@Z 004e2860 f   game.obj
 0001:000e1940       ?DoScan@mmGameRecord@@QAEXAAVVector4@@@Z 004e2940 f   game.obj
 0001:000e1a10       ?Sim@mmGameRecord@@QAEXXZ  004e2a10 f   game.obj
 0001:000e1a20       ??0Card2D@@QAE@XZ          004e2a20 f   game.obj
 0001:000e1a40       ?Init@Card2D@@QAEXPAVasCamera@@MMMMM@Z 004e2a40 f   game.obj
 0001:000e1a80       ?SetDimensions@Card2D@@QAEXMMMM@Z 004e2a80 f   game.obj
 0001:000e1b70       ?SetPosition@Card2D@@QAEXMM@Z 004e2b70 f   game.obj
 0001:000e1b90       ?SetAlpha@Card2D@@QAEXM@Z  004e2b90 f   game.obj
 0001:000e1bf0       ?Update@Card2D@@UAEXXZ     004e2bf0 f   game.obj
 0001:000e1c00       ?Cull@Card2D@@EAEXXZ       004e2c00 f   game.obj
 0001:000e1e10       ?AddWidgets@Card2D@@EAEXPAVBank@@@Z 004e2e10 f   game.obj
 0001:000e1f20       ?DeclareFields@mmNumber@@SAXXZ 004e2f20 f   game.obj
 0001:000e1f70       ?new_mmNumber@@YAPAXH@Z    004e2f70 f   game.obj
 0001:000e2040       ?delete_mmNumber@@YAXPAXH@Z 004e3040 f   game.obj
 0001:000e2090       ?SetFGColor@mmTextNode@@QAEXAAVVector4@@@Z 004e3090 f   game.obj
 0001:000e20f0       ?GetFGColor@mmTextNode@@QAEIXZ 004e30f0 f   game.obj
 0001:000e2100       ?SetEffects@mmTextNode@@QAEXHH@Z 004e3100 f   game.obj
 0001:000e2130       ?SetTextPosition@mmTextNode@@QAEXHMM@Z 004e3130 f   game.obj
 0001:000e2190       ?AddText@mmTextNode@@QAEHPAXPAULocString@@HMM@Z 004e3190 f   game.obj
 0001:000e22a0       ?SetPosition@mmTextNode@@QAEXHMM@Z 004e32a0 f   game.obj
 0001:000e2300       ?Update@mmTextNode@@UAEXXZ 004e3300 f   game.obj
 0001:000e2330       ??0asMeshSetForm@@QAE@XZ   004e3330 f   game.obj
 0001:000e2350       ?SetShape@asMeshSetForm@@QAEXPAD0PAVVector3@@@Z 004e3350 f   game.obj
 0001:000e2390       ?SetZRead@asMeshSetForm@@QAEXH@Z 004e3390 f   game.obj
 0001:000e23b0       ?SetZWrite@asMeshSetForm@@QAEXH@Z 004e33b0 f   game.obj
 0001:000e23d0       ?Update@asMeshSetForm@@UAEXXZ 004e33d0 f   game.obj
 0001:000e23f0       ?Cull@asMeshSetForm@@UAEXXZ 004e33f0 f   game.obj
 0001:000e2530       ?DeclareFields@asParticles@@SAXXZ 004e3530 f   game.obj
 0001:000e2580       ?new_asParticles@@YAPAXH@Z 004e3580 f   game.obj
 0001:000e2640       ?delete_asParticles@@YAXPAXH@Z 004e3640 f   game.obj
 0001:000e2690       ??0asBirthRule@@QAE@XZ     004e3690 f   game.obj
 0001:000e2740       ?InitSpark@asBirthRule@@QAEXPAUasSparkInfo@@PAUasSparkPos@@@Z 004e3740 f   game.obj
 0001:000e29c0       ?AddWidgets@asBirthRule@@UAEXPAVBank@@@Z 004e39c0 f   game.obj
 0001:000e2f30       ?DeclareFields@asBirthRule@@SAXXZ 004e3f30 f   game.obj
 0001:000e3190       ?new_asBirthRule@@YAPAXH@Z 004e4190 f   game.obj
 0001:000e3260       ?delete_asBirthRule@@YAXPAXH@Z 004e4260 f   game.obj
 0001:000e32b0       ?GetClass@asBirthRule@@UAEPAVMetaClass@@XZ 004e42b0 f   game.obj
 0001:000e3390       ?GetSparkLut@@YAPAVasSparkLut@@PAD@Z 004e4390 f   game.obj
 0001:000e33d0       ?Init@asSparkLut@@QAEXPAD@Z 004e43d0 f   game.obj
 0001:000e35b0       ?RadialBlast@asLineSparks@@QAEXHAAVVector3@@0@Z 004e45b0 f   game.obj
 0001:000e38f0       ??0mmDamage@@QAE@XZ        004e48f0 f   game.obj
 0001:000e3900       ??1mmDamage@@QAE@XZ        004e4900 f   game.obj
 0001:000e3910       ?Init@mmDamage@@QAEXPAVagiMeshSet@@@Z 004e4910 f   game.obj
 0001:000e3af0       ?Reset@mmDamage@@QAEXH@Z   004e4af0 f   game.obj
 0001:000e3b40       ?Apply@mmDamage@@QAEXAAVVector3@@M@Z 004e4b40 f   game.obj
 0001:000e3d80       ?SetShape@mmVehicleForm@@QAEXPAD00PAVVector3@@@Z 004e4d80 f   game.obj
 0001:000e3df0       ?Cull@mmVehicleForm@@UAEXXZ 004e4df0 f   game.obj
 0001:000e3f50       ??0mmMouseSteerBar@@QAE@XZ 004e4f50 f   game.obj
 0001:000e3f70       ?Init@mmMouseSteerBar@@QAEXMMPAM@Z 004e4f70 f   game.obj
 0001:000e4010       ?Update@mmMouseSteerBar@@UAEXXZ 004e5010 f   game.obj
 0001:000e4040       ?Cull@mmMouseSteerBar@@UAEXXZ 004e5040 f   game.obj
 0001:000e40c0       ?AddWidgets@mmMouseSteerBar@@UAEXPAVBank@@@Z 004e50c0 f   game.obj
 0001:000e42f0       ?BeginVerts2@agiTexSorter@@SAPAVagiPolySet@@PAVagiTexDef@@0HH@Z 004e52f0 f   game.obj
 0001:000e4570       ?EndVerts2@agiTexSorter@@SAXXZ 004e5570 f   game.obj
 0001:000e45c0       ?DoTexture@agiTexSorter@@SAXPAVagiPolySet@@@Z 004e55c0 f   game.obj
 0001:000e4850       ?InitMtx@agiMeshSet@@KIXAAVagiViewParameters@@H@Z 004e5850 f   game.obj
 0001:000e4b20       ?InitLocalize@agiMeshSet@@SAXXZ 004e5b20 f   game.obj
 0001:000e4be0       ?LocalizeDirection@agiMeshSet@@SAXAAVVector3@@0@Z 004e5be0 f   game.obj
 0001:000e4c70       ?Init@agiMeshSet@@SIXH@Z   004e5c70 f   game.obj
 0001:000e4cd0       ?ShadowInit@agiMeshSet@@KIXABVVector4@@ABVVector3@@@Z 004e5cd0 f   game.obj
 0001:000e4f00       ?EndGfx@agiMeshSet@@AAEXXZ 004e5f00 f   game.obj
 0001:000e4f10       ?DrawLitSph@agiMeshSet@@QAEXP6AXPAEPAI1PAV1@@ZPAVagiTexDef@@I@Z 004e5f10 f   game.obj
 0001:000e4fe0       ?FirstPass_SW_UV_CPV_DYNTEX@agiMeshSet@@QAEXPAIPAVVector2@@I@Z 004e5fe0 f   game.obj
 0001:000e55e0       ?FirstPass_SW_UV_CPV_noDYNTEX@agiMeshSet@@QAEXPAIPAVVector2@@I@Z 004e65e0 f   game.obj
 0001:000e5bc0       ?FirstPass_SW_UV_noCPV_DYNTEX@agiMeshSet@@QAEXPAIPAVVector2@@I@Z 004e6bc0 f   game.obj
 0001:000e5fe0       ?FirstPass_SW_UV_noCPV_noDYNTEX@agiMeshSet@@QAEXPAIPAVVector2@@I@Z 004e6fe0 f   game.obj
 0001:000e63e0       ?FirstPass_SW_noUV_CPV_DYNTEX@agiMeshSet@@QAEXPAIPAVVector2@@I@Z 004e73e0 f   game.obj
 0001:000e6890       ?FirstPass_SW_noUV_CPV_noDYNTEX@agiMeshSet@@QAEXPAIPAVVector2@@I@Z 004e7890 f   game.obj
 0001:000e6d20       ?FirstPass_SW_noUV_noCPV_DYNTEX@agiMeshSet@@QAEXPAIPAVVector2@@I@Z 004e7d20 f   game.obj
 0001:000e6fe0       ?FirstPass_SW_noUV_noCPV_noDYNTEX@agiMeshSet@@QAEXPAIPAVVector2@@I@Z 004e7fe0 f   game.obj
 0001:000e7290       ?FirstPass_HW_UV_CPV_DYNTEX@agiMeshSet@@QAEXPAIPAVVector2@@I@Z 004e8290 f   game.obj
 0001:000e7a30       ?FirstPass_HW_UV_CPV_noDYNTEX@agiMeshSet@@QAEXPAIPAVVector2@@I@Z 004e8a30 f   game.obj
 0001:000e81c0       ?FirstPass_HW_UV_noCPV_DYNTEX@agiMeshSet@@QAEXPAIPAVVector2@@I@Z 004e91c0 f   game.obj
 0001:000e8790       ?FirstPass_HW_UV_noCPV_noDYNTEX@agiMeshSet@@QAEXPAIPAVVector2@@I@Z 004e9790 f   game.obj
 0001:000e8d40       ?FirstPass_HW_noUV_CPV_DYNTEX@agiMeshSet@@QAEXPAIPAVVector2@@I@Z 004e9d40 f   game.obj
 0001:000e93e0       ?FirstPass_HW_noUV_CPV_noDYNTEX@agiMeshSet@@QAEXPAIPAVVector2@@I@Z 004ea3e0 f   game.obj
 0001:000e9a50       ?FirstPass_HW_noUV_noCPV_DYNTEX@agiMeshSet@@QAEXPAIPAVVector2@@I@Z 004eaa50 f   game.obj
 0001:000e9f00       ?FirstPass_HW_noUV_noCPV_noDYNTEX@agiMeshSet@@QAEXPAIPAVVector2@@I@Z 004eaf00 f   game.obj
 0001:000ea390       ?MultiTexEnvMap@agiMeshSet@@QAEXPAIIPAVagiTexDef@@AAVMatrix34@@@Z 004eb390 f   game.obj
 0001:000ead30       ?EnvMap@agiMeshSet@@QAEXAAVMatrix34@@PAVagiTexDef@@I@Z 004ebd30 f   game.obj
 0001:000eb3f0       ?SphereMap@agiMeshSet@@QAEXPAVagiTexDef@@I@Z 004ec3f0 f   game.obj
 0001:000ebde0       ?Init@agiMeshCardInfo@@QAEXHPAUagiMeshCardVertex@@HHH@Z 004ecde0 f   game.obj
 0001:000ebf80       ?InitCards@agiMeshSet@@SAXAAUagiMeshCardInfo@@@Z 004ecf80 f   game.obj
 0001:000ec0a0       ?agiMeshLighterReset@@YAXXZ 004ed0a0 f   game.obj
 0001:000ec190       ?agiMeshLighterQuarter@@YAXPAEPAI1PAVagiMeshSet@@@Z 004ed190 f   game.obj
 0001:000ec350       ?agiMeshLighterUpdateColors@@YAXXZ 004ed350 f   game.obj
 0001:000ec540       ?agiBeginCones@@YAXXZ      004ed540 f   game.obj
 0001:000ec550       ?agiDeclareCone@@YAXAAVVector3@@00MM0H@Z 004ed550 f   game.obj
 0001:000ec620       ?agiConeLighter@@YAXPAEPAI1PAVagiMeshSet@@@Z 004ed620 f   game.obj
 0001:000eca10       ?agiInitCones@@YAXAAVMatrix34@@M@Z 004eda10 f   game.obj
 0001:000ecc70       ?mystrtok@@YAPADPADPBD@Z   004edc70 f   game.obj
 0001:000eccd0       ?Load@agiTexSheet@@QAEXPAD@Z 004edcd0 f   game.obj
 0001:000ed1c0       ?cmpTex@@YAHPBX0@Z         004ee1c0 f   game.obj
 0001:000ed1e0       ?Kill@agiTexSheet@@QAEXXZ  004ee1e0 f   game.obj
 0001:000ed210       ?Lookup@agiTexSheet@@QAEPAUagiTexProp@@PADH@Z 004ee210 f   game.obj
 0001:000ed270       ?GetVariationCount@agiTexSheet@@QAEHPAD@Z 004ee270 f   game.obj
 0001:000ed2c0       ?RemapName@agiTexSheet@@QAEPADPADH@Z 004ee2c0 f   game.obj
 0001:000ed3e0       ?GetMeshSet@@YAPAVagiMeshSet@@PAD0PAVVector3@@H@Z 004ee3e0 f   game.obj
 0001:000eec00       ??0DLPVertex2@?EN@??GetMeshSet@@YAPAVagiMeshSet@@PAD0PAVVector3@@H@Z@QAE@XZ 004efc00 f   game.obj
 0001:000eec10       ??0DLPVertex2@?EN@??GetMeshSet@@YAPAVagiMeshSet@@PAD0PAVVector3@@H@Z@QAE@ABU0@@Z 004efc10 f   game.obj
 0001:000eec70       ??0nbuf@?EN@??GetMeshSet@@YAPAVagiMeshSet@@PAD0PAVVector3@@H@Z@QAE@XZ 004efc70 f   game.obj
 0001:000eec90       ?ModelGeometry@agiMeshModel@@QAEHIPAVbnAnimation@@H@Z 004efc90 f   game.obj
 0001:000eed90       ?ModelDraw@agiMeshModel@@QAEHIPAVagiLitAnimation@@H@Z 004efd90 f   game.obj
 0001:000eedb0       ?ModelDraw@agiMeshModel@@QAEHIPAVbnAnimation@@H@Z 004efdb0 f   game.obj
 0001:000eee10       ?ModelDrawSkel@agiMeshModel@@QAEHIPAVbnAnimation@@H@Z 004efe10 f   game.obj
 0001:000eefd0       ?ModelDrawLit@agiMeshModel@@QAEHP6AXPAEPAI1PAVagiMeshSet@@@ZIPAVagiLitAnimation@@H@Z 004effd0 f   game.obj
 0001:000ef0a0       ??0agiLitAnimation@@QAE@PAVagiMeshModel@@PAVbnAnimation@@PAVStream@@@Z 004f00a0 f   game.obj
 0001:000ef2b0       ??0bnSkeleton@@QAE@XZ      004f02b0 f   game.obj
 0001:000ef2c0       ?Load@bnSkeleton@@QAEHPBD@Z 004f02c0 f   game.obj
 0001:000ef5f0       ?Transform@bnSkeleton@@QAEXPAVMatrix34@@@Z 004f05f0 f   game.obj
 0001:000ef610       ?Pose@bnSkeleton@@QAEXPBVVector3@@@Z 004f0610 f   game.obj
 0001:000ef660       ?FindBone@bnSkeleton@@QAEPAVbnBone@@PADHD@Z 004f0660 f   game.obj
 0001:000ef780       ?Load@bnAnimation@@QAEHPAD@Z 004f0780 f   game.obj
 0001:000ef980       ?GetModel@@YAPAVagiMeshModel@@PAD00@Z 004f0980 f   game.obj
 0001:000f08b0       ?PackNormal@@YAEAAVVector3@@@Z 004f18b0 f   game.obj
 0001:000f0a40       ??0bnBone@@QAE@XZ          004f1a40 f   game.obj
 0001:000f0aa0       ?AddChild@bnBone@@QAEXPAV1@@Z 004f1aa0 f   game.obj
 0001:000f0ae0       ?Load@bnBone@@QAEHPAVTokenizer@@PAPAV1@@Z 004f1ae0 f   game.obj
 0001:000f0bd0       ?Transform@bnBone@@QAEXPAVMatrix34@@@Z 004f1bd0 f   game.obj
 0001:000f0c20       ?Attach@bnBone@@QAEXQAVMatrix34@@AAH@Z 004f1c20 f   game.obj
 0001:000f0c80       ?Pose@bnBone@@QAEXPBVVector3@@AAH@Z 004f1c80 f   game.obj
 0001:000f0ce0       ?Matrix34__FromEulersXZY@@YAXAAVMatrix34@@ABVVector3@@@Z 004f1ce0 f   game.obj
 0001:000f0e20       ?InitGeometry@mmBoundTemplate@@QAEXHH@Z 004f1e20 f   game.obj
 0001:000f0ed0       ?AddTriangle@mmBoundTemplate@@QAEXHHHHH@Z 004f1ed0 f   game.obj
 0001:000f0fc0       ?AddQuad@mmBoundTemplate@@QAEXHHHHHH@Z 004f1fc0 f   game.obj
 0001:000f1230       ?Load@mmBoundTemplate@@QAEHPAD0PAVVector3@@HHHHHH@Z 004f2230 f   game.obj
 0001:000f2720       ?PageOutCallback@mmBoundTemplate@@CAXPAXH@Z 004f3720 f   game.obj
 0001:000f2870       ?DoPageIn@mmBoundTemplate@@AAEXXZ 004f3870 f   game.obj
 0001:000f2cd0       ?LockIfResident@mmBoundTemplate@@QAEHXZ 004f3cd0 f   game.obj
 0001:000f2d00       ?Unlock@mmBoundTemplate@@QAEXXZ 004f3d00 f   game.obj
 0001:000f2d20       ?ComputeEdgeNormals@mmBoundTemplate@@QAEXXZ 004f3d20 f   game.obj
 0001:000f31b0       ?MakeTable@mmBoundTemplate@@AAEXHHH@Z 004f41b0 f   game.obj
 0001:000f33b0       ?DoMakeTable@mmBoundTemplate@@AAEXHHH@Z 004f43b0 f   game.obj
 0001:000f38f0       ?AddIndex@mmBoundTemplate@@QAEXHHH@Z 004f48f0 f   game.obj
 0001:000f3a10       ??0mmIntersection@@QAE@XZ  004f4a10 f   game.obj
 0001:000f3a20       ?InitSegment@mmIntersection@@QAEXABVVector3@@0PAVmmBoundTemplate@@HH@Z 004f4a20 f   game.obj
 0001:000f3b30       ?InitTransformedSegment@mmIntersection@@QAEXABVVector3@@0PAVmmBoundTemplate@@HH@Z 004f4b30 f   game.obj
 0001:000f3c10       ?InitTransformedSphere@mmIntersection@@QAEXABVVector3@@MPAVmmBoundTemplate@@H@Z 004f4c10 f   game.obj
 0001:000f3c70       ?Reset@mmIntersection@@QAEXXZ 004f4c70 f   game.obj
 0001:000f3cd0       ?Transform@mmIntersection@@QAEXPBVMatrix34@@@Z 004f4cd0 f   game.obj
 0001:000f3da0       ??0mmEdgeBodyIsect@@QAE@XZ 004f4da0 f   game.obj
 0001:000f3db0       ?Reset@mmEdgeBodyIsect@@QAEXXZ 004f4db0 f   game.obj
 0001:000f3dd0       ?InitSegment@mmEdgeBodyIsect@@QAEXABVVector3@@0HH0M@Z 004f4dd0 f   game.obj
 0001:000f3e70       ??0mmPolygon@@QAE@XZ       004f4e70 f   game.obj
 0001:000f3eb0       ?Init@mmPolygon@@AAEXXZ    004f4eb0 f   game.obj
 0001:000f4430       ?FullSegment@mmPolygon@@AAEHPAVmmEdgeBodyIsect@@@Z 004f5430 f   game.obj
 0001:000f49c0       ?FullSegment@mmPolygon@@AAEHPAVmmIntersection@@@Z 004f59c0 f   game.obj
 0001:000f4f10       ?GetCorner@mmPolygon@@AAEHAAVVector3@@00000AAM@Z 004f5f10 f   game.obj
 0001:000f5200       ?FullSphere@mmPolygon@@AAEHPAVmmIntersection@@@Z 004f6200 f   game.obj
 0001:000f5820       ?Draw@mmPolygon@@AAEXXZ    004f6820 f   game.obj
 0001:000f58a0       ?PlotTriangle@mmPolygon@@AAEXHHHPAVmmBoundTemplate@@H@Z 004f68a0 f   game.obj
 0001:000f6160       ?GetBoundTemplate@mmBoundTemplate@@SAPAV1@PAD0PAVVector3@@HHHHH@Z 004f7160 f   game.obj
 0001:000f6270       ?MakeBox@mmBoundTemplate@@SAPAV1@PAD0HPAVVector3@@1@Z 004f7270 f   game.obj
 0001:000f6770       ?AddRef@mmBoundTemplate@@QAEXXZ 004f7770 f   game.obj
 0001:000f6790       ?Release@mmBoundTemplate@@QAEHXZ 004f7790 f   game.obj
 0001:000f67c0       ?ValidatePtr@mmBoundTemplate@@QAEXPAD@Z 004f77c0 f   game.obj
 0001:000f6820       ??0mmBoundTemplate@@QAE@XZ 004f7820 f   game.obj
 0001:000f68e0       ??1mmBoundTemplate@@QAE@XZ 004f78e0 f   game.obj
 0001:000f69a0       ?Collide@mmBoundTemplate@@QAEHPAV1@AAVMatrix34@@11PAVmmEdgeBodyIsect@@HHPAVasInertialCS@@3PAVVector3@@4@Z 004f79a0 f   game.obj
 0001:000f7070       ?CollideTerrains@mmBoundTemplate@@QAEHPAPAV1@AAVMatrix34@@PAVmmEdgeBodyIsect@@HH@Z 004f8070 f   game.obj
 0001:000f7320       ?Collide@mmBoundTemplate@@QAEHPAVmmEdgeBodyIsect@@H@Z 004f8320 f   game.obj
 0001:000f7380       ?Collide@mmBoundTemplate@@QAEHPAVmmIntersection@@@Z 004f8380 f   game.obj
 0001:000f7450       ?QuickLineSphere@mmBoundTemplate@@QAEHPAVmmEdgeBodyIsect@@@Z 004f8450 f   game.obj
 0001:000f75b0       ?QuickLineSphere@mmBoundTemplate@@QAEHPAVmmIntersection@@@Z 004f85b0 f   game.obj
 0001:000f76d0       ?QuickSphereBox@mmBoundTemplate@@QAEHPAVmmIntersection@@@Z 004f86d0 f   game.obj
 0001:000f7790       ?QuickLineBox@mmBoundTemplate@@QAEHPAVmmEdgeBodyIsect@@@Z 004f8790 f   game.obj
 0001:000f7880       ?QuickLineBox@mmBoundTemplate@@QAEHPAVmmIntersection@@@Z 004f8880 f   game.obj
 0001:000f7970       ?SphereSphere@mmBoundTemplate@@QAEHPAVmmIntersection@@@Z 004f8970 f   game.obj
 0001:000f7b10       ?SphereGeometry@mmBoundTemplate@@QAEHPAVmmIntersection@@@Z 004f8b10 f   game.obj
 0001:000f7c40       ?SphereTable@mmBoundTemplate@@QAEHPAVmmIntersection@@@Z 004f8c40 f   game.obj
 0001:000f7ea0       ?LineGeometry@mmBoundTemplate@@QAEHPAVmmEdgeBodyIsect@@H@Z 004f8ea0 f   game.obj
 0001:000f7f60       ?LineTable@mmBoundTemplate@@QAEHPAVmmEdgeBodyIsect@@H@Z 004f8f60 f   game.obj
 0001:000f8280       ?LineSpan@mmBoundTemplate@@QAEHPAVmmEdgeBodyIsect@@HHHH@Z 004f9280 f   game.obj
 0001:000f83f0       ?LineGeometry@mmBoundTemplate@@QAEHPAVmmIntersection@@@Z 004f93f0 f   game.obj
 0001:000f8520       ?LineTable@mmBoundTemplate@@QAEHPAVmmIntersection@@@Z 004f9520 f   game.obj
 0001:000f88a0       ?LineSpan@mmBoundTemplate@@QAEHPAVmmIntersection@@HHH@Z 004f98a0 f   game.obj
 0001:000f8a70       ?Draw@mmBoundTemplate@@QAEXXZ 004f9a70 f   game.obj
 0001:000f8ab0       ?DrawSphere@mmBoundTemplate@@QAEXXZ 004f9ab0 f   game.obj
 0001:000f8af0       ?DrawBox@mmBoundTemplate@@QAEXXZ 004f9af0 f   game.obj
 0001:000f8b10       ?DrawGeometry@mmBoundTemplate@@QAEXXZ 004f9b10 f   game.obj
 0001:000f8b80       ?DrawTable@mmBoundTemplate@@QAEXXZ 004f9b80 f   game.obj
 0001:000f8d80       ?Benchmark@asSimulation@@QAEXXZ 004f9d80 f   game.obj
 0001:000f8e00       ?DeclareFields@asSimulation@@SAXXZ 004f9e00 f   game.obj
 0001:000f8e50       ?new_asSimulation@@YAPAXH@Z 004f9e50 f   game.obj
 0001:000f8f20       ?delete_asSimulation@@YAXPAXH@Z 004f9f20 f   game.obj
 0001:000f8f70       ?DeclareFields@asNode@@SAXXZ 004f9f70 f   game.obj
 0001:000f9050       ?new_asNode@@YAPAXH@Z      004fa050 f   game.obj
 0001:000f9110       ?delete_asNode@@YAXPAXH@Z  004fa110 f   game.obj
 0001:000f9160       ?DeclareFields@asCullable@@SAXXZ 004fa160 f   game.obj
 0001:000f91b0       ?new_asCullable@@YAPAXH@Z  004fa1b0 f   game.obj
 0001:000f9260       ?delete_asCullable@@YAXPAXH@Z 004fa260 f   game.obj
 0001:000f9310       ?DeclareFields@asLinearCS@@SAXXZ 004fa310 f   game.obj
 0001:000f93c0       ?new_asLinearCS@@YAPAXH@Z  004fa3c0 f   game.obj
 0001:000f9490       ?delete_asLinearCS@@YAXPAXH@Z 004fa490 f   game.obj
 0001:000f94e0       ??0asLamp@@QAE@XZ          004fa4e0 f   game.obj
 0001:000f95a0       ?SetColor@asLamp@@QAEXABVVector3@@M@Z 004fa5a0 f   game.obj
 0001:000f95e0       ?SetDistant@asLamp@@QAEXXZ 004fa5e0 f   game.obj
 0001:000f95f0       ?Update@asLamp@@UAEXXZ     004fa5f0 f   game.obj
 0001:000f96f0       ?Cull@asLamp@@UAEXXZ       004fa6f0 f   game.obj
 0001:000f9740       ?Regen@asLamp@@AAEXXZ      004fa740 f   game.obj
 0001:000f9760       ?AddWidgets@asLamp@@UAEXPAVBank@@@Z 004fa760 f   game.obj
 0001:000f9ad0       ?DeclareFields@asLamp@@SAXXZ 004faad0 f   game.obj
 0001:000f9b20       ?new_asLamp@@YAPAXH@Z      004fab20 f   game.obj
 0001:000f9be0       ?delete_asLamp@@YAXPAXH@Z  004fabe0 f   game.obj
 0001:000f9c30       ?GetClass@asLamp@@UAEPAVMetaClass@@XZ 004fac30 f   game.obj
 0001:000f9c40       ??0asForm@@QAE@XZ          004fac40 f   game.obj
 0001:000f9c70       ??1asForm@@UAE@XZ          004fac70 f   game.obj
 0001:000f9cd0       ?SetShape@asForm@@QAEXPAD0PAVVector3@@HH@Z 004facd0 f   game.obj
 0001:000f9d50       ?SetCull@asForm@@QAEXHM@Z  004fad50 f   game.obj
 0001:000f9d70       ?Update@asForm@@UAEXXZ     004fad70 f   game.obj
 0001:000f9da0       ?Cull@asForm@@UAEXXZ       004fada0 f   game.obj
 0001:000f9e80       ?Visible@asForm@@QBEHPAVasCamera@@ABVMatrix34@@@Z 004fae80 f   game.obj
 0001:000fa050       ?AddWidgets@asForm@@UAEXPAVBank@@@Z 004fb050 f   game.obj
 0001:000fa140       ?DeclareFields@asForm@@SAXXZ 004fb140 f   game.obj
 0001:000fa190       ?new_asForm@@YAPAXH@Z      004fb190 f   game.obj
 0001:000fa260       ?delete_asForm@@YAXPAXH@Z  004fb260 f   game.obj
 0001:000fa2b0       ?GetClass@asForm@@UAEPAVMetaClass@@XZ 004fb2b0 f   game.obj
 0001:000fa320       ??1asCamera@@UAE@XZ        004fb320 f   game.obj
 0001:000fa3b0       ??0asCamera@@QAE@XZ        004fb3b0 f   game.obj
 0001:000fa560       ?Update@asCamera@@UAEXXZ   004fb560 f   game.obj
 0001:000fa870       ?SetClipArea@asCamera@@QAEXMMMM@Z 004fb870 f   game.obj
 0001:000fa9a0       ?SetLighting@asCamera@@QAEXH@Z 004fb9a0 f   game.obj
 0001:000fa9c0       ?SetWorld@asCamera@@QAEXAAVMatrix34@@@Z 004fb9c0 f   game.obj
 0001:000fa9e0       ?DrawEnd@asCamera@@QAEXXZ  004fb9e0 f   game.obj
 0001:000fab90       ?SetViewport@asCamera@@QAEXMMMMH@Z 004fbb90 f   game.obj
 0001:000fabe0       ?SetFog@asCamera@@QAEXMMMM@Z 004fbbe0 f   game.obj
 0001:000fac10       ?SetUnderlay@asCamera@@QAEXPAD@Z 004fbc10 f   game.obj
 0001:000fac50       ?SetUnderlayCB@asCamera@@QAEXPAVagiBitmap@@PAVCallback@@@Z 004fbc50 f   game.obj
 0001:000fac70       ?FadeOut@asCamera@@QAEXMH@Z 004fbc70 f   game.obj
 0001:000facd0       ?FadeIn@asCamera@@QAEXMH@Z 004fbcd0 f   game.obj
 0001:000fad30       ?Regen@asCamera@@AAEXXZ    004fbd30 f   game.obj
 0001:000fad50       ?FadeItOut@@YAXPAVasCamera@@@Z 004fbd50 f   game.obj
 0001:000fad70       ?FadeItIn@@YAXPAVasCamera@@@Z 004fbd70 f   game.obj
 0001:000fad90       ?FritzIt@@YAXPAVasCamera@@@Z 004fbd90 f   game.obj
 0001:000fada0       ?ViewIt@@YAXPAVasCamera@@@Z 004fbda0 f   game.obj
 0001:000fadc0       ?AddWidgets@asCamera@@UAEXPAVBank@@@Z 004fbdc0 f   game.obj
 0001:000fb420       ?DeclareFields@asCamera@@SAXXZ 004fc420 f   game.obj
 0001:000fb470       ?new_asCamera@@YAPAXH@Z    004fc470 f   game.obj
 0001:000fb540       ?delete_asCamera@@YAXPAXH@Z 004fc540 f   game.obj
 0001:000fb590       ?GetClass@asCamera@@UAEPAVMetaClass@@XZ 004fc590 f   game.obj
 0001:000fb600       ??0asDofCS@@QAE@XZ         004fc600 f   game.obj
 0001:000fb6f0       ?Reset@asDofCS@@UAEXXZ     004fc6f0 f   game.obj
 0001:000fb720       ?Update@asDofCS@@UAEXXZ    004fc720 f   game.obj
 0001:000fbd30       ?ModeCB@asDofCS@@IAEXXZ    004fcd30 f   game.obj
 0001:000fbd50       ?AddWidgets@asDofCS@@UAEXPAVBank@@@Z 004fcd50 f   game.obj
 0001:000fc140       ?DeclareFields@asDofCS@@SAXXZ 004fd140 f   game.obj
 0001:000fc190       ?new_asDofCS@@YAPAXH@Z     004fd190 f   game.obj
 0001:000fc260       ?delete_asDofCS@@YAXPAXH@Z 004fd260 f   game.obj
 0001:000fc2b0       ?GetClass@asDofCS@@UAEPAVMetaClass@@XZ 004fd2b0 f   game.obj
 0001:000fc2c0       ??0asViewCS@@QAE@XZ        004fd2c0 f   game.obj
 0001:000fc3f0       ?SetAzimuth@asViewCS@@QAEXXZ 004fd3f0 f   game.obj
 0001:000fc450       ?Reset@asViewCS@@UAEXXZ    004fd450 f   game.obj
 0001:000fc620       ?Update@asViewCS@@UAEXXZ   004fd620 f   game.obj
 0001:000fc6a0       ?UpdatePolar@asViewCS@@QAEXXZ 004fd6a0 f   game.obj
 0001:000fc7e0       ?UpdateRoam@asViewCS@@QAEXXZ 004fd7e0 f   game.obj
 0001:000fc8f0       ?UpdatePOV@asViewCS@@QAEXXZ 004fd8f0 f   game.obj
 0001:000fc940       ?UpdateLookAt@asViewCS@@QAEXXZ 004fd940 f   game.obj
 0001:000fc9a0       ?UpdateTrack@asViewCS@@QAEXXZ 004fd9a0 f   game.obj
 0001:000fcd60       ?UpdateStereo@asViewCS@@QAEXXZ 004fdd60 f   game.obj
 0001:000fce90       ?AddWidgets@asViewCS@@UAEXPAVBank@@@Z 004fde90 f   game.obj
 0001:000fd380       ?DeclareFields@asViewCS@@SAXXZ 004fe380 f   game.obj
 0001:000fd3d0       ?new_asViewCS@@YAPAXH@Z    004fe3d0 f   game.obj
 0001:000fd4a0       ?delete_asViewCS@@YAXPAXH@Z 004fe4a0 f   game.obj
 0001:000fd4f0       ?GetClass@asViewCS@@UAEPAVMetaClass@@XZ 004fe4f0 f   game.obj
 0001:000fd560       ?Reset@asBenchStats@@QAEXXZ 004fe560 f   game.obj
 0001:000fd5a0       ?Average@asBenchStats@@QAEXPAV1@MH@Z 004fe5a0 f   game.obj
 0001:000fd6c0       ?Current@asBenchStats@@QAEXPAV1@@Z 004fe6c0 f   game.obj
 0001:000fd710       ?DrawColor@@YAXAAVVector3@@@Z 004fe710 f   game.obj
 0001:000fd770       ?DrawColor@@YAXAAVVector4@@@Z 004fe770 f   game.obj
 0001:000fd7d0       ?DrawLine@@YAXMMMMMM@Z     004fe7d0 f   game.obj
 0001:000fd870       ?DrawLine@@YAXAAVVector3@@0@Z 004fe870 f   game.obj
 0001:000fd8a0       ?DrawTri@@YAXPAVVector3@@AAV1@11@Z 004fe8a0 f   game.obj
 0001:000fd960       ?DrawWireSphere@@YAXAAVVector3@@M@Z 004fe960 f   game.obj
 0001:000fdc60       ?DrawWireSphere@@YAXAAVVector4@@@Z 004fec60 f   game.obj
 0001:000fdc80       ?DrawWireBox@@YAXAAVVector3@@0@Z 004fec80 f   game.obj
 0001:000fde20       ?DrawBegin@@YAXAAVMatrix34@@@Z 004fee20 f   game.obj
 0001:000fdee0       ?DrawQuad@@YAXPAVVector3@@AAV1@111@Z 004feee0 f   game.obj
 0001:000fdfe0       ?DrawLabelf@@YAXAAVVector3@@PADZZ 004fefe0 f   game.obj
 0001:000fe050       ?DrawEnd@@YAXXZ            004ff050 f   game.obj
 0001:000fe510       ?__emitDepthComplexity@@YIXH@Z 004ff510 f   game.obj
 0001:000fe550       ?__emitSolid@@YIXH@Z       004ff550 f   game.obj
 0001:000fe5a0       ?__emitSolidZ@@YIXH@Z      004ff5a0 f   game.obj
 0001:000fe610       ?__emitWireframe@@YIXH@Z   004ff610 f   game.obj
 0001:000fe630       ?swAddEdge@@YAXHH@Z        004ff630 f   game.obj
 0001:000fe750       ?swSetupEdgeScan@@YAXPAUswEdge@@HH@Z 004ff750 f   game.obj
 0001:000fe800       ?__setupUV@@YIXPAUswSurface@@@Z 004ff800 f   game.obj
 0001:000fe8c0       ?__setupUVZ@@YIXPAUswSurface@@@Z 004ff8c0 f   game.obj
 0001:000fe990       ?__setupZ@@YIXPAUswSurface@@@Z 004ff990 f   game.obj
 0001:000fe9d0       ?__spanLinear@@YIXPAUswSurface@@H@Z 004ff9d0 f   game.obj
 0001:000fea00       ?__spanLinearZwrite@@YIXPAUswSurface@@H@Z 004ffa00 f   game.obj
 0001:000fea40       ?__emitZwrite@@YIXPAUswSurface@@H@Z 004ffa40 f   game.obj
 0001:000feb00       ?__spanPerspXY@@YIXPAUswSurface@@H@Z 004ffb00 f   game.obj
 0001:000fed00       ?__spanPerspXYZwrite@@YIXPAUswSurface@@H@Z 004ffd00 f   game.obj
 0001:000fed20       ?swScanSurface@@YAXPAUswSurface@@@Z 004ffd20 f   game.obj
 0001:000fef60       ?swInitSurface@@YAPAUswSurface@@UagiScreenVtx@@00I@Z 004fff60 f   game.obj
 0001:000ff8f0       ?__emitSemiBlack@@YIXH@Z   005008f0 f   game.obj
 0001:000ff930       ?__emitStippleBlack@@YIXH@Z 00500930 f   game.obj
 0001:000ff970       ?swComputeIntensity@@YAHAAUagiScreenVtx@@@Z 00500970 f   game.obj
 0001:000ff990       ?swScanSurfaces@@YAXXZ     00500990 f   game.obj
 0001:000ffa50       ?emms@@YAXXZ               00500a50 f   game.obj
 0001:000ffa60       ?swTri@@YAXPAUagiScreenVtx@@00@Z 00500a60 f   game.obj
 0001:000ffc20       ?swQuad@@YAXPAUagiScreenVtx@@000@Z 00500c20 f   game.obj
 0001:000ffff0       ?swPoly@@YAXPAUagiScreenVtx@@H@Z 00500ff0 f   game.obj
 0001:00100380       ?swLineInt@@YAXHHHHH@Z     00501380 f   game.obj
 0001:00100470       ?swSetInterlace@@YAXH@Z    00501470 f   game.obj
 0001:001004b0       ?swInit@@YAXXZ             005014b0 f   game.obj
 0001:00100580       ?swFindColor555@@YAII@Z    00501580 f   game.obj
 0001:001005c0       ?swFindColor565@@YAII@Z    005015c0 f   game.obj
 0001:00100600       ?swClampAddColor565@@YIII@Z 00501600 f   game.obj
 0001:00100640       ?swClampAddColor555@@YIII@Z 00501640 f   game.obj
 0001:00100680       ?swClampAdd565@@YIIII@Z    00501680 f   game.obj
 0001:001006c0       ?swClampAdd555@@YIIII@Z    005016c0 f   game.obj
 0001:00100700       ?Set@agiSWTexDef@@UAEXAAVVector2@@0@Z 00501700 f   game.obj
 0001:00100720       ?IsAvailable@agiSWTexDef@@UAEHXZ 00501720 f   game.obj
 0001:00100730       ?Lock@agiSWTexDef@@UAEHAAUagiTexLock@@@Z 00501730 f   game.obj
 0001:00100780       ?Request@agiSWTexDef@@UAEXXZ 00501780 f   game.obj
 0001:001007e0       ?BeginGfx@agiSWTexLut@@UAEHXZ 005017e0 f   game.obj
 0001:001009c0       ??0agiSWRasterizer@@QAE@PAVagiPipeline@@@Z 005019c0 f   game.obj
 0001:001009e0       ?Verts@agiSWRasterizer@@UAEXW4agiVtxType@@PATagiVtx@@H@Z 005019e0 f   game.obj
 0001:001009f0       ?Triangle@agiSWRasterizer@@UAEXHHH@Z 005019f0 f   game.obj
 0001:00100a20       ?Quad@agiSWRasterizer@@UAEXHHHH@Z 00501a20 f   game.obj
 0001:00100a60       ?Card@agiSWRasterizer@@UAEXHH@Z 00501a60 f   game.obj
 0001:00100aa0       ?swEmitRun1_NoZOpaqueDecalLinearSolidWUWV@@YIXH@Z 00501aa0 f   game.obj
 0001:00100b30       ?swEmitRun2_NoZOpaqueDecalLinearSolidWUWV@@YIXH@Z 00501b30 f   game.obj
 0001:00100bc0       ?swEmitRun3_NoZOpaqueDecalLinearSolidWUWV@@YIXH@Z 00501bc0 f   game.obj
 0001:00100c50       ?swEmitRun4_NoZOpaqueDecalLinearSolidWUWV@@YIXH@Z 00501c50 f   game.obj
 0001:00100ce0       ?swEmitRun5_NoZOpaqueDecalLinearSolidWUWV@@YIXH@Z 00501ce0 f   game.obj
 0001:00100f00       ?swEmitRun6_NoZOpaqueDecalLinearSolidWUWV@@YIXH@Z 00501f00 f   game.obj
 0001:00101120       ?swEmitRun7_NoZOpaqueDecalLinearSolidWUWV@@YIXH@Z 00502120 f   game.obj
 0001:00101340       ?swEmitRun8_NoZOpaqueDecalLinearSolidWUWV@@YIXH@Z 00502340 f   game.obj
 0001:00101550       ?swEmitRun0_ZReadOpaqueDecalLinearSolidWUWV@@YIXH@Z 00502550 f   game.obj
 0001:00101630       ?swEmitRun1_ZReadWriteOpaqueDecalLinearSolidWUWV@@YIXH@Z 00502630 f   game.obj
 0001:00101710       ?swEmitRun2_ZReadWriteOpaqueDecalLinearSolidWUWV@@YIXH@Z 00502710 f   game.obj
 0001:001017f0       ?swEmitRun3_ZReadWriteOpaqueDecalLinearSolidWUWV@@YIXH@Z 005027f0 f   game.obj
 0001:001018d0       ?swEmitRun4_ZReadWriteOpaqueDecalLinearSolidWUWV@@YIXH@Z 005028d0 f   game.obj
 0001:001019b0       ?swEmitRun5_ZReadWriteOpaqueDecalLinearSolidWUWV@@YIXH@Z 005029b0 f   game.obj
 0001:00101d10       ?swEmitRun6_ZReadWriteOpaqueDecalLinearSolidWUWV@@YIXH@Z 00502d10 f   game.obj
 0001:00102070       ?swEmitRun7_ZReadWriteOpaqueDecalLinearSolidWUWV@@YIXH@Z 00503070 f   game.obj
 0001:001023d0       ?swEmitRun8_ZReadWriteOpaqueDecalLinearSolidWUWV@@YIXH@Z 005033d0 f   game.obj
 0001:00102720       ?swEmitRun0_NoZOpaqueDecalLinearStippleWUWV@@YIXH@Z 00503720 f   game.obj
 0001:001027d0       ?swEmitRun0_ZReadOpaqueDecalLinearStippleWUWV@@YIXH@Z 005037d0 f   game.obj
 0001:001028d0       ?swEmitRun0_ZReadWriteOpaqueDecalLinearStippleWUWV@@YIXH@Z 005038d0 f   game.obj
 0001:001029d0       ?swEmitRun0_NoZChromaDecalLinearSolidWUWV@@YIXH@Z 005039d0 f   game.obj
 0001:00102a70       ?swEmitRun0_ZReadChromaDecalLinearSolidWUWV@@YIXH@Z 00503a70 f   game.obj
 0001:00102b60       ?swEmitRun0_ZReadWriteChromaDecalLinearSolidWUWV@@YIXH@Z 00503b60 f   game.obj
 0001:00102c50       ?swEmitRun0_NoZChromaDecalLinearStippleWUWV@@YIXH@Z 00503c50 f   game.obj
 0001:00102d10       ?swEmitRun0_ZReadChromaDecalLinearStippleWUWV@@YIXH@Z 00503d10 f   game.obj
 0001:00102e10       ?swEmitRun0_ZReadWriteChromaDecalLinearStippleWUWV@@YIXH@Z 00503e10 f   game.obj
 0001:00102f20       ?swEmitRun0_NoZGlowDecalLinearSolidWUWV@@YIXH@Z 00503f20 f   game.obj
 0001:00102ff0       ?swEmitRun0_ZReadGlowDecalLinearSolidWUWV@@YIXH@Z 00503ff0 f   game.obj
 0001:00103110       ?swEmitRun0_ZReadWriteGlowDecalLinearSolidWUWV@@YIXH@Z 00504110 f   game.obj
 0001:00103240       ?swEmitRun0_NoZGlowDecalLinearStippleWUWV@@YIXH@Z 00504240 f   game.obj
 0001:00103320       ?swEmitRun0_ZReadGlowDecalLinearStippleWUWV@@YIXH@Z 00504320 f   game.obj
 0001:00103450       ?swEmitRun0_ZReadWriteGlowDecalLinearStippleWUWV@@YIXH@Z 00504450 f   game.obj
 0001:00103590       ?swEmitRun0_NoZOpaqueModulateLinearSolidWUWV@@YIXH@Z 00504590 f   game.obj
 0001:00103630       ?swEmitRun0_ZReadOpaqueModulateLinearSolidWUWV@@YIXH@Z 00504630 f   game.obj
 0001:00103720       ?swEmitRun0_ZReadWriteOpaqueModulateLinearSolidWUWV@@YIXH@Z 00504720 f   game.obj
 0001:00103820       ?swEmitRun0_NoZOpaqueModulateLinearStippleWUWV@@YIXH@Z 00504820 f   game.obj
 0001:001038d0       ?swEmitRun0_ZReadOpaqueModulateLinearStippleWUWV@@YIXH@Z 005048d0 f   game.obj
 0001:001039d0       ?swEmitRun0_ZReadWriteOpaqueModulateLinearStippleWUWV@@YIXH@Z 005049d0 f   game.obj
 0001:00103ae0       ?swEmitRun0_NoZChromaModulateLinearSolidWUWV@@YIXH@Z 00504ae0 f   game.obj
 0001:00103b90       ?swEmitRun0_ZReadChromaModulateLinearSolidWUWV@@YIXH@Z 00504b90 f   game.obj
 0001:00103c90       ?swEmitRun0_ZReadWriteChromaModulateLinearSolidWUWV@@YIXH@Z 00504c90 f   game.obj
 0001:00103d90       ?swEmitRun0_NoZChromaModulateLinearStippleWUWV@@YIXH@Z 00504d90 f   game.obj
 0001:00103e50       ?swEmitRun0_ZReadChromaModulateLinearStippleWUWV@@YIXH@Z 00504e50 f   game.obj
 0001:00103f60       ?swEmitRun0_ZReadWriteChromaModulateLinearStippleWUWV@@YIXH@Z 00504f60 f   game.obj
 0001:00104070       ?swEmitRun0_NoZGlowModulateLinearSolidWUWV@@YIXH@Z 00505070 f   game.obj
 0001:00104140       ?swEmitRun0_ZReadGlowModulateLinearSolidWUWV@@YIXH@Z 00505140 f   game.obj
 0001:00104260       ?swEmitRun0_ZReadWriteGlowModulateLinearSolidWUWV@@YIXH@Z 00505260 f   game.obj
 0001:00104390       ?swEmitRun0_NoZGlowModulateLinearStippleWUWV@@YIXH@Z 00505390 f   game.obj
 0001:00104470       ?swEmitRun0_ZReadGlowModulateLinearStippleWUWV@@YIXH@Z 00505470 f   game.obj
 0001:001045a0       ?swEmitRun0_ZReadWriteGlowModulateLinearStippleWUWV@@YIXH@Z 005055a0 f   game.obj
 0001:001046e0       ?swEmitRun0_NoZOpaqueDecalParaSolidWUWV@@YIXH@Z 005056e0 f   game.obj
 0001:001047a0       ?swEmitRun0_ZReadOpaqueDecalParaSolidWUWV@@YIXH@Z 005057a0 f   game.obj
 0001:001048b0       ?swEmitRun0_ZReadWriteOpaqueDecalParaSolidWUWV@@YIXH@Z 005058b0 f   game.obj
 0001:001049c0       ?swEmitRun0_NoZOpaqueDecalParaStippleWUWV@@YIXH@Z 005059c0 f   game.obj
 0001:00104a90       ?swEmitRun0_ZReadOpaqueDecalParaStippleWUWV@@YIXH@Z 00505a90 f   game.obj
 0001:00104bb0       ?swEmitRun0_ZReadWriteOpaqueDecalParaStippleWUWV@@YIXH@Z 00505bb0 f   game.obj
 0001:00104cd0       ?swEmitRun0_NoZChromaDecalParaSolidWUWV@@YIXH@Z 00505cd0 f   game.obj
 0001:00104d90       ?swEmitRun0_ZReadChromaDecalParaSolidWUWV@@YIXH@Z 00505d90 f   game.obj
 0001:00104eb0       ?swEmitRun0_ZReadWriteChromaDecalParaSolidWUWV@@YIXH@Z 00505eb0 f   game.obj
 0001:00104fd0       ?swEmitRun0_NoZChromaDecalParaStippleWUWV@@YIXH@Z 00505fd0 f   game.obj
 0001:001050b0       ?swEmitRun0_ZReadChromaDecalParaStippleWUWV@@YIXH@Z 005060b0 f   game.obj
 0001:001051e0       ?swEmitRun0_ZReadWriteChromaDecalParaStippleWUWV@@YIXH@Z 005061e0 f   game.obj
 0001:00105310       ?swEmitRun0_NoZGlowDecalParaSolidWUWV@@YIXH@Z 00506310 f   game.obj
 0001:00105400       ?swEmitRun0_ZReadGlowDecalParaSolidWUWV@@YIXH@Z 00506400 f   game.obj
 0001:00105540       ?swEmitRun0_ZReadWriteGlowDecalParaSolidWUWV@@YIXH@Z 00506540 f   game.obj
 0001:00105690       ?swEmitRun0_NoZGlowDecalParaStippleWUWV@@YIXH@Z 00506690 f   game.obj
 0001:001057a0       ?swEmitRun0_ZReadGlowDecalParaStippleWUWV@@YIXH@Z 005067a0 f   game.obj
 0001:001058f0       ?swEmitRun0_ZReadWriteGlowDecalParaStippleWUWV@@YIXH@Z 005068f0 f   game.obj
 0001:00105a50       ?swEmitRun0_NoZOpaqueModulateParaSolidWUWV@@YIXH@Z 00506a50 f   game.obj
 0001:00105b10       ?swEmitRun0_ZReadOpaqueModulateParaSolidWUWV@@YIXH@Z 00506b10 f   game.obj
 0001:00105c20       ?swEmitRun0_ZReadWriteOpaqueModulateParaSolidWUWV@@YIXH@Z 00506c20 f   game.obj
 0001:00105d30       ?swEmitRun0_NoZOpaqueModulateParaStippleWUWV@@YIXH@Z 00506d30 f   game.obj
 0001:00105e10       ?swEmitRun0_ZReadOpaqueModulateParaStippleWUWV@@YIXH@Z 00506e10 f   game.obj
 0001:00105f30       ?swEmitRun0_ZReadWriteOpaqueModulateParaStippleWUWV@@YIXH@Z 00506f30 f   game.obj
 0001:00106060       ?swEmitRun0_NoZChromaModulateParaSolidWUWV@@YIXH@Z 00507060 f   game.obj
 0001:00106130       ?swEmitRun0_ZReadChromaModulateParaSolidWUWV@@YIXH@Z 00507130 f   game.obj
 0001:00106250       ?swEmitRun0_ZReadWriteChromaModulateParaSolidWUWV@@YIXH@Z 00507250 f   game.obj
 0001:00106370       ?swEmitRun0_NoZChromaModulateParaStippleWUWV@@YIXH@Z 00507370 f   game.obj
 0001:00106450       ?swEmitRun0_ZReadChromaModulateParaStippleWUWV@@YIXH@Z 00507450 f   game.obj
 0001:00106580       ?swEmitRun0_ZReadWriteChromaModulateParaStippleWUWV@@YIXH@Z 00507580 f   game.obj
 0001:001066c0       ?swEmitRun0_NoZGlowModulateParaSolidWUWV@@YIXH@Z 005076c0 f   game.obj
 0001:001067b0       ?swEmitRun0_ZReadGlowModulateParaSolidWUWV@@YIXH@Z 005077b0 f   game.obj
 0001:001068f0       ?swEmitRun0_ZReadWriteGlowModulateParaSolidWUWV@@YIXH@Z 005078f0 f   game.obj
 0001:00106a40       ?swEmitRun0_NoZGlowModulateParaStippleWUWV@@YIXH@Z 00507a40 f   game.obj
 0001:00106b50       ?swEmitRun0_ZReadGlowModulateParaStippleWUWV@@YIXH@Z 00507b50 f   game.obj
 0001:00106ca0       ?swEmitRun0_ZReadWriteGlowModulateParaStippleWUWV@@YIXH@Z 00507ca0 f   game.obj
 0001:00106e00       ?swEmitRun0_NoZOpaqueDecalLinearSolidCUWV@@YIXH@Z 00507e00 f   game.obj
 0001:00106ed0       ?swEmitRun0_ZReadOpaqueDecalLinearSolidCUWV@@YIXH@Z 00507ed0 f   game.obj
 0001:00107000       ?swEmitRun0_ZReadWriteOpaqueDecalLinearSolidCUWV@@YIXH@Z 00508000 f   game.obj
 0001:00107120       ?swEmitRun0_NoZOpaqueDecalLinearStippleCUWV@@YIXH@Z 00508120 f   game.obj
 0001:00107200       ?swEmitRun0_ZReadOpaqueDecalLinearStippleCUWV@@YIXH@Z 00508200 f   game.obj
 0001:00107330       ?swEmitRun0_ZReadWriteOpaqueDecalLinearStippleCUWV@@YIXH@Z 00508330 f   game.obj
 0001:00107470       ?swEmitRun0_NoZChromaDecalLinearSolidCUWV@@YIXH@Z 00508470 f   game.obj
 0001:00107560       ?swEmitRun0_ZReadChromaDecalLinearSolidCUWV@@YIXH@Z 00508560 f   game.obj
 0001:001076a0       ?swEmitRun0_ZReadWriteChromaDecalLinearSolidCUWV@@YIXH@Z 005086a0 f   game.obj
 0001:001077e0       ?swEmitRun0_NoZChromaDecalLinearStippleCUWV@@YIXH@Z 005087e0 f   game.obj
 0001:001078e0       ?swEmitRun0_ZReadChromaDecalLinearStippleCUWV@@YIXH@Z 005088e0 f   game.obj
 0001:00107a30       ?swEmitRun0_ZReadWriteChromaDecalLinearStippleCUWV@@YIXH@Z 00508a30 f   game.obj
 0001:00107b80       ?swEmitRun0_NoZGlowDecalLinearSolidCUWV@@YIXH@Z 00508b80 f   game.obj
 0001:00107c80       ?swEmitRun0_ZReadGlowDecalLinearSolidCUWV@@YIXH@Z 00508c80 f   game.obj
 0001:00107dd0       ?swEmitRun0_ZReadWriteGlowDecalLinearSolidCUWV@@YIXH@Z 00508dd0 f   game.obj
 0001:00107f10       ?swEmitRun0_NoZGlowDecalLinearStippleCUWV@@YIXH@Z 00508f10 f   game.obj
 0001:00108020       ?swEmitRun0_ZReadGlowDecalLinearStippleCUWV@@YIXH@Z 00509020 f   game.obj
 0001:00108180       ?swEmitRun0_ZReadWriteGlowDecalLinearStippleCUWV@@YIXH@Z 00509180 f   game.obj
 0001:001082e0       ?swEmitRun0_NoZOpaqueModulateLinearSolidCUWV@@YIXH@Z 005092e0 f   game.obj
 0001:001083c0       ?swEmitRun0_ZReadOpaqueModulateLinearSolidCUWV@@YIXH@Z 005093c0 f   game.obj
 0001:00108500       ?swEmitRun0_ZReadWriteOpaqueModulateLinearSolidCUWV@@YIXH@Z 00509500 f   game.obj
 0001:00108630       ?swEmitRun0_NoZOpaqueModulateLinearStippleCUWV@@YIXH@Z 00509630 f   game.obj
 0001:00108720       ?swEmitRun0_ZReadOpaqueModulateLinearStippleCUWV@@YIXH@Z 00509720 f   game.obj
 0001:00108860       ?swEmitRun0_ZReadWriteOpaqueModulateLinearStippleCUWV@@YIXH@Z 00509860 f   game.obj
 0001:001089b0       ?swEmitRun0_NoZChromaModulateLinearSolidCUWV@@YIXH@Z 005099b0 f   game.obj
 0001:00108ab0       ?swEmitRun0_ZReadChromaModulateLinearSolidCUWV@@YIXH@Z 00509ab0 f   game.obj
 0001:00108c00       ?swEmitRun0_ZReadWriteChromaModulateLinearSolidCUWV@@YIXH@Z 00509c00 f   game.obj
 0001:00108d50       ?swEmitRun0_NoZChromaModulateLinearStippleCUWV@@YIXH@Z 00509d50 f   game.obj
 0001:00108e60       ?swEmitRun0_ZReadChromaModulateLinearStippleCUWV@@YIXH@Z 00509e60 f   game.obj
 0001:00108fc0       ?swEmitRun0_ZReadWriteChromaModulateLinearStippleCUWV@@YIXH@Z 00509fc0 f   game.obj
 0001:00109120       ?swEmitRun0_NoZGlowModulateLinearSolidCUWV@@YIXH@Z 0050a120 f   game.obj
 0001:00109220       ?swEmitRun0_ZReadGlowModulateLinearSolidCUWV@@YIXH@Z 0050a220 f   game.obj
 0001:00109370       ?swEmitRun0_ZReadWriteGlowModulateLinearSolidCUWV@@YIXH@Z 0050a370 f   game.obj
 0001:001094b0       ?swEmitRun0_NoZGlowModulateLinearStippleCUWV@@YIXH@Z 0050a4b0 f   game.obj
 0001:001095c0       ?swEmitRun0_ZReadGlowModulateLinearStippleCUWV@@YIXH@Z 0050a5c0 f   game.obj
 0001:00109720       ?swEmitRun0_ZReadWriteGlowModulateLinearStippleCUWV@@YIXH@Z 0050a720 f   game.obj
 0001:00109880       ?swEmitRun0_NoZOpaqueDecalParaSolidCUWV@@YIXH@Z 0050a880 f   game.obj
 0001:00109980       ?swEmitRun0_ZReadOpaqueDecalParaSolidCUWV@@YIXH@Z 0050a980 f   game.obj
 0001:00109ad0       ?swEmitRun0_ZReadWriteOpaqueDecalParaSolidCUWV@@YIXH@Z 0050aad0 f   game.obj
 0001:00109c20       ?swEmitRun0_NoZOpaqueDecalParaStippleCUWV@@YIXH@Z 0050ac20 f   game.obj
 0001:00109d30       ?swEmitRun0_ZReadOpaqueDecalParaStippleCUWV@@YIXH@Z 0050ad30 f   game.obj
 0001:00109e90       ?swEmitRun0_ZReadWriteOpaqueDecalParaStippleCUWV@@YIXH@Z 0050ae90 f   game.obj
 0001:00109ff0       ?swEmitRun0_NoZChromaDecalParaSolidCUWV@@YIXH@Z 0050aff0 f   game.obj
 0001:0010a100       ?swEmitRun0_ZReadChromaDecalParaSolidCUWV@@YIXH@Z 0050b100 f   game.obj
 0001:0010a260       ?swEmitRun0_ZReadWriteChromaDecalParaSolidCUWV@@YIXH@Z 0050b260 f   game.obj
 0001:0010a3c0       ?swEmitRun0_NoZChromaDecalParaStippleCUWV@@YIXH@Z 0050b3c0 f   game.obj
 0001:0010a4e0       ?swEmitRun0_ZReadChromaDecalParaStippleCUWV@@YIXH@Z 0050b4e0 f   game.obj
 0001:0010a650       ?swEmitRun0_ZReadWriteChromaDecalParaStippleCUWV@@YIXH@Z 0050b650 f   game.obj
 0001:0010a7c0       ?swEmitRun0_NoZGlowDecalParaSolidCUWV@@YIXH@Z 0050b7c0 f   game.obj
 0001:0010a8e0       ?swEmitRun0_ZReadGlowDecalParaSolidCUWV@@YIXH@Z 0050b8e0 f   game.obj
 0001:0010aa50       ?swEmitRun0_ZReadWriteGlowDecalParaSolidCUWV@@YIXH@Z 0050ba50 f   game.obj
 0001:0010abc0       ?swEmitRun0_NoZGlowDecalParaStippleCUWV@@YIXH@Z 0050bbc0 f   game.obj
 0001:0010acf0       ?swEmitRun0_ZReadGlowDecalParaStippleCUWV@@YIXH@Z 0050bcf0 f   game.obj
 0001:0010ae70       ?swEmitRun0_ZReadWriteGlowDecalParaStippleCUWV@@YIXH@Z 0050be70 f   game.obj
 0001:0010b000       ?swEmitRun0_NoZOpaqueModulateParaSolidCUWV@@YIXH@Z 0050c000 f   game.obj
 0001:0010b110       ?swEmitRun0_ZReadOpaqueModulateParaSolidCUWV@@YIXH@Z 0050c110 f   game.obj
 0001:0010b270       ?swEmitRun0_ZReadWriteOpaqueModulateParaSolidCUWV@@YIXH@Z 0050c270 f   game.obj
 0001:0010b3c0       ?swEmitRun0_NoZOpaqueModulateParaStippleCUWV@@YIXH@Z 0050c3c0 f   game.obj
 0001:0010b4e0       ?swEmitRun0_ZReadOpaqueModulateParaStippleCUWV@@YIXH@Z 0050c4e0 f   game.obj
 0001:0010b640       ?swEmitRun0_ZReadWriteOpaqueModulateParaStippleCUWV@@YIXH@Z 0050c640 f   game.obj
 0001:0010b7b0       ?swEmitRun0_NoZChromaModulateParaSolidCUWV@@YIXH@Z 0050c7b0 f   game.obj
 0001:0010b8d0       ?swEmitRun0_ZReadChromaModulateParaSolidCUWV@@YIXH@Z 0050c8d0 f   game.obj
 0001:0010ba40       ?swEmitRun0_ZReadWriteChromaModulateParaSolidCUWV@@YIXH@Z 0050ca40 f   game.obj
 0001:0010bba0       ?swEmitRun0_NoZChromaModulateParaStippleCUWV@@YIXH@Z 0050cba0 f   game.obj
 0001:0010bcd0       ?swEmitRun0_ZReadChromaModulateParaStippleCUWV@@YIXH@Z 0050ccd0 f   game.obj
 0001:0010be50       ?swEmitRun0_ZReadWriteChromaModulateParaStippleCUWV@@YIXH@Z 0050ce50 f   game.obj
 0001:0010bfd0       ?swEmitRun0_NoZGlowModulateParaSolidCUWV@@YIXH@Z 0050cfd0 f   game.obj
 0001:0010c0f0       ?swEmitRun0_ZReadGlowModulateParaSolidCUWV@@YIXH@Z 0050d0f0 f   game.obj
 0001:0010c260       ?swEmitRun0_ZReadWriteGlowModulateParaSolidCUWV@@YIXH@Z 0050d260 f   game.obj
 0001:0010c3d0       ?swEmitRun0_NoZGlowModulateParaStippleCUWV@@YIXH@Z 0050d3d0 f   game.obj
 0001:0010c500       ?swEmitRun0_ZReadGlowModulateParaStippleCUWV@@YIXH@Z 0050d500 f   game.obj
 0001:0010c680       ?swEmitRun0_ZReadWriteGlowModulateParaStippleCUWV@@YIXH@Z 0050d680 f   game.obj
 0001:0010c810       ?swEmitRun0_NoZOpaqueDecalLinearSolidWUCV@@YIXH@Z 0050d810 f   game.obj
 0001:0010c8e0       ?swEmitRun0_ZReadOpaqueDecalLinearSolidWUCV@@YIXH@Z 0050d8e0 f   game.obj
 0001:0010ca10       ?swEmitRun0_ZReadWriteOpaqueDecalLinearSolidWUCV@@YIXH@Z 0050da10 f   game.obj
 0001:0010cb30       ?swEmitRun0_NoZOpaqueDecalLinearStippleWUCV@@YIXH@Z 0050db30 f   game.obj
 0001:0010cc10       ?swEmitRun0_ZReadOpaqueDecalLinearStippleWUCV@@YIXH@Z 0050dc10 f   game.obj
 0001:0010cd40       ?swEmitRun0_ZReadWriteOpaqueDecalLinearStippleWUCV@@YIXH@Z 0050dd40 f   game.obj
 0001:0010ce80       ?swEmitRun0_NoZChromaDecalLinearSolidWUCV@@YIXH@Z 0050de80 f   game.obj
 0001:0010cf60       ?swEmitRun0_ZReadChromaDecalLinearSolidWUCV@@YIXH@Z 0050df60 f   game.obj
 0001:0010d090       ?swEmitRun0_ZReadWriteChromaDecalLinearSolidWUCV@@YIXH@Z 0050e090 f   game.obj
 0001:0010d1d0       ?swEmitRun0_NoZChromaDecalLinearStippleWUCV@@YIXH@Z 0050e1d0 f   game.obj
 0001:0010d2d0       ?swEmitRun0_ZReadChromaDecalLinearStippleWUCV@@YIXH@Z 0050e2d0 f   game.obj
 0001:0010d420       ?swEmitRun0_ZReadWriteChromaDecalLinearStippleWUCV@@YIXH@Z 0050e420 f   game.obj
 0001:0010d570       ?swEmitRun0_NoZGlowDecalLinearSolidWUCV@@YIXH@Z 0050e570 f   game.obj
 0001:0010d670       ?swEmitRun0_ZReadGlowDecalLinearSolidWUCV@@YIXH@Z 0050e670 f   game.obj
 0001:0010d7b0       ?swEmitRun0_ZReadWriteGlowDecalLinearSolidWUCV@@YIXH@Z 0050e7b0 f   game.obj
 0001:0010d8f0       ?swEmitRun0_NoZGlowDecalLinearStippleWUCV@@YIXH@Z 0050e8f0 f   game.obj
 0001:0010d9f0       ?swEmitRun0_ZReadGlowDecalLinearStippleWUCV@@YIXH@Z 0050e9f0 f   game.obj
 0001:0010db50       ?swEmitRun0_ZReadWriteGlowDecalLinearStippleWUCV@@YIXH@Z 0050eb50 f   game.obj
 0001:0010dcb0       ?swEmitRun0_NoZOpaqueModulateLinearSolidWUCV@@YIXH@Z 0050ecb0 f   game.obj
 0001:0010dd90       ?swEmitRun0_ZReadOpaqueModulateLinearSolidWUCV@@YIXH@Z 0050ed90 f   game.obj
 0001:0010ded0       ?swEmitRun0_ZReadWriteOpaqueModulateLinearSolidWUCV@@YIXH@Z 0050eed0 f   game.obj
 0001:0010e000       ?swEmitRun0_NoZOpaqueModulateLinearStippleWUCV@@YIXH@Z 0050f000 f   game.obj
 0001:0010e0f0       ?swEmitRun0_ZReadOpaqueModulateLinearStippleWUCV@@YIXH@Z 0050f0f0 f   game.obj
 0001:0010e230       ?swEmitRun0_ZReadWriteOpaqueModulateLinearStippleWUCV@@YIXH@Z 0050f230 f   game.obj
 0001:0010e380       ?swEmitRun0_NoZChromaModulateLinearSolidWUCV@@YIXH@Z 0050f380 f   game.obj
 0001:0010e470       ?swEmitRun0_ZReadChromaModulateLinearSolidWUCV@@YIXH@Z 0050f470 f   game.obj
 0001:0010e5b0       ?swEmitRun0_ZReadWriteChromaModulateLinearSolidWUCV@@YIXH@Z 0050f5b0 f   game.obj
 0001:0010e6f0       ?swEmitRun0_NoZChromaModulateLinearStippleWUCV@@YIXH@Z 0050f6f0 f   game.obj
 0001:0010e7f0       ?swEmitRun0_ZReadChromaModulateLinearStippleWUCV@@YIXH@Z 0050f7f0 f   game.obj
 0001:0010e950       ?swEmitRun0_ZReadWriteChromaModulateLinearStippleWUCV@@YIXH@Z 0050f950 f   game.obj
 0001:0010eab0       ?swEmitRun0_NoZGlowModulateLinearSolidWUCV@@YIXH@Z 0050fab0 f   game.obj
 0001:0010ebb0       ?swEmitRun0_ZReadGlowModulateLinearSolidWUCV@@YIXH@Z 0050fbb0 f   game.obj
 0001:0010ecf0       ?swEmitRun0_ZReadWriteGlowModulateLinearSolidWUCV@@YIXH@Z 0050fcf0 f   game.obj
 0001:0010ee30       ?swEmitRun0_NoZGlowModulateLinearStippleWUCV@@YIXH@Z 0050fe30 f   game.obj
 0001:0010ef30       ?swEmitRun0_ZReadGlowModulateLinearStippleWUCV@@YIXH@Z 0050ff30 f   game.obj
 0001:0010f090       ?swEmitRun0_ZReadWriteGlowModulateLinearStippleWUCV@@YIXH@Z 00510090 f   game.obj
 0001:0010f1f0       ?swEmitRun0_NoZOpaqueDecalParaSolidWUCV@@YIXH@Z 005101f0 f   game.obj
 0001:0010f2e0       ?swEmitRun0_ZReadOpaqueDecalParaSolidWUCV@@YIXH@Z 005102e0 f   game.obj
 0001:0010f430       ?swEmitRun0_ZReadWriteOpaqueDecalParaSolidWUCV@@YIXH@Z 00510430 f   game.obj
 0001:0010f570       ?swEmitRun0_NoZOpaqueDecalParaStippleWUCV@@YIXH@Z 00510570 f   game.obj
 0001:0010f670       ?swEmitRun0_ZReadOpaqueDecalParaStippleWUCV@@YIXH@Z 00510670 f   game.obj
 0001:0010f7c0       ?swEmitRun0_ZReadWriteOpaqueDecalParaStippleWUCV@@YIXH@Z 005107c0 f   game.obj
 0001:0010f920       ?swEmitRun0_NoZChromaDecalParaSolidWUCV@@YIXH@Z 00510920 f   game.obj
 0001:0010fa30       ?swEmitRun0_ZReadChromaDecalParaSolidWUCV@@YIXH@Z 00510a30 f   game.obj
 0001:0010fb80       ?swEmitRun0_ZReadWriteChromaDecalParaSolidWUCV@@YIXH@Z 00510b80 f   game.obj
 0001:0010fcd0       ?swEmitRun0_NoZChromaDecalParaStippleWUCV@@YIXH@Z 00510cd0 f   game.obj
 0001:0010fdf0       ?swEmitRun0_ZReadChromaDecalParaStippleWUCV@@YIXH@Z 00510df0 f   game.obj
 0001:0010ff50       ?swEmitRun0_ZReadWriteChromaDecalParaStippleWUCV@@YIXH@Z 00510f50 f   game.obj
 0001:001100c0       ?swEmitRun0_NoZGlowDecalParaSolidWUCV@@YIXH@Z 005110c0 f   game.obj
 0001:001101e0       ?swEmitRun0_ZReadGlowDecalParaSolidWUCV@@YIXH@Z 005111e0 f   game.obj
 0001:00110350       ?swEmitRun0_ZReadWriteGlowDecalParaSolidWUCV@@YIXH@Z 00511350 f   game.obj
 0001:001104c0       ?swEmitRun0_NoZGlowDecalParaStippleWUCV@@YIXH@Z 005114c0 f   game.obj
 0001:001105e0       ?swEmitRun0_ZReadGlowDecalParaStippleWUCV@@YIXH@Z 005115e0 f   game.obj
 0001:00110760       ?swEmitRun0_ZReadWriteGlowDecalParaStippleWUCV@@YIXH@Z 00511760 f   game.obj
 0001:001108e0       ?swEmitRun0_NoZOpaqueModulateParaSolidWUCV@@YIXH@Z 005118e0 f   game.obj
 0001:001109e0       ?swEmitRun0_ZReadOpaqueModulateParaSolidWUCV@@YIXH@Z 005119e0 f   game.obj
 0001:00110b40       ?swEmitRun0_ZReadWriteOpaqueModulateParaSolidWUCV@@YIXH@Z 00511b40 f   game.obj
 0001:00110c90       ?swEmitRun0_NoZOpaqueModulateParaStippleWUCV@@YIXH@Z 00511c90 f   game.obj
 0001:00110da0       ?swEmitRun0_ZReadOpaqueModulateParaStippleWUCV@@YIXH@Z 00511da0 f   game.obj
 0001:00110f00       ?swEmitRun0_ZReadWriteOpaqueModulateParaStippleWUCV@@YIXH@Z 00511f00 f   game.obj
 0001:00111070       ?swEmitRun0_NoZChromaModulateParaSolidWUCV@@YIXH@Z 00512070 f   game.obj
 0001:00111190       ?swEmitRun0_ZReadChromaModulateParaSolidWUCV@@YIXH@Z 00512190 f   game.obj
 0001:001112f0       ?swEmitRun0_ZReadWriteChromaModulateParaSolidWUCV@@YIXH@Z 005122f0 f   game.obj
 0001:00111450       ?swEmitRun0_NoZChromaModulateParaStippleWUCV@@YIXH@Z 00512450 f   game.obj
 0001:00111570       ?swEmitRun0_ZReadChromaModulateParaStippleWUCV@@YIXH@Z 00512570 f   game.obj
 0001:001116e0       ?swEmitRun0_ZReadWriteChromaModulateParaStippleWUCV@@YIXH@Z 005126e0 f   game.obj
 0001:00111850       ?swEmitRun0_NoZGlowModulateParaSolidWUCV@@YIXH@Z 00512850 f   game.obj
 0001:00111970       ?swEmitRun0_ZReadGlowModulateParaSolidWUCV@@YIXH@Z 00512970 f   game.obj
 0001:00111ae0       ?swEmitRun0_ZReadWriteGlowModulateParaSolidWUCV@@YIXH@Z 00512ae0 f   game.obj
 0001:00111c50       ?swEmitRun0_NoZGlowModulateParaStippleWUCV@@YIXH@Z 00512c50 f   game.obj
 0001:00111d70       ?swEmitRun0_ZReadGlowModulateParaStippleWUCV@@YIXH@Z 00512d70 f   game.obj
 0001:00111ef0       ?swEmitRun0_ZReadWriteGlowModulateParaStippleWUCV@@YIXH@Z 00512ef0 f   game.obj
 0001:00112070       ?swEmitRun0_NoZOpaqueDecalLinearSolidCUCV@@YIXH@Z 00513070 f   game.obj
 0001:00112170       ?swEmitRun0_ZReadOpaqueDecalLinearSolidCUCV@@YIXH@Z 00513170 f   game.obj
 0001:001122d0       ?swEmitRun0_ZReadWriteOpaqueDecalLinearSolidCUCV@@YIXH@Z 005132d0 f   game.obj
 0001:00112420       ?swEmitRun0_NoZOpaqueDecalLinearStippleCUCV@@YIXH@Z 00513420 f   game.obj
 0001:00112530       ?swEmitRun0_ZReadOpaqueDecalLinearStippleCUCV@@YIXH@Z 00513530 f   game.obj
 0001:00112690       ?swEmitRun0_ZReadWriteOpaqueDecalLinearStippleCUCV@@YIXH@Z 00513690 f   game.obj
 0001:001127f0       ?swEmitRun0_NoZChromaDecalLinearSolidCUCV@@YIXH@Z 005137f0 f   game.obj
 0001:00112910       ?swEmitRun0_ZReadChromaDecalLinearSolidCUCV@@YIXH@Z 00513910 f   game.obj
 0001:00112a80       ?swEmitRun0_ZReadWriteChromaDecalLinearSolidCUCV@@YIXH@Z 00513a80 f   game.obj
 0001:00112bf0       ?swEmitRun0_NoZChromaDecalLinearStippleCUCV@@YIXH@Z 00513bf0 f   game.obj
 0001:00112d20       ?swEmitRun0_ZReadChromaDecalLinearStippleCUCV@@YIXH@Z 00513d20 f   game.obj
 0001:00112ea0       ?swEmitRun0_ZReadWriteChromaDecalLinearStippleCUCV@@YIXH@Z 00513ea0 f   game.obj
 0001:00113020       ?swEmitRun0_NoZGlowDecalLinearSolidCUCV@@YIXH@Z 00514020 f   game.obj
 0001:00113150       ?swEmitRun0_ZReadGlowDecalLinearSolidCUCV@@YIXH@Z 00514150 f   game.obj
 0001:001132d0       ?swEmitRun0_ZReadWriteGlowDecalLinearSolidCUCV@@YIXH@Z 005142d0 f   game.obj
 0001:00113440       ?swEmitRun0_NoZGlowDecalLinearStippleCUCV@@YIXH@Z 00514440 f   game.obj
 0001:00113580       ?swEmitRun0_ZReadGlowDecalLinearStippleCUCV@@YIXH@Z 00514580 f   game.obj
 0001:00113710       ?swEmitRun0_ZReadWriteGlowDecalLinearStippleCUCV@@YIXH@Z 00514710 f   game.obj
 0001:00113890       ?swEmitRun0_NoZOpaqueModulateLinearSolidCUCV@@YIXH@Z 00514890 f   game.obj
 0001:001139a0       ?swEmitRun0_ZReadOpaqueModulateLinearSolidCUCV@@YIXH@Z 005149a0 f   game.obj
 0001:00113b00       ?swEmitRun0_ZReadWriteOpaqueModulateLinearSolidCUCV@@YIXH@Z 00514b00 f   game.obj
 0001:00113c60       ?swEmitRun0_NoZOpaqueModulateLinearStippleCUCV@@YIXH@Z 00514c60 f   game.obj
 0001:00113d80       ?swEmitRun0_ZReadOpaqueModulateLinearStippleCUCV@@YIXH@Z 00514d80 f   game.obj
 0001:00113ef0       ?swEmitRun0_ZReadWriteOpaqueModulateLinearStippleCUCV@@YIXH@Z 00514ef0 f   game.obj
 0001:00114060       ?swEmitRun0_NoZChromaModulateLinearSolidCUCV@@YIXH@Z 00515060 f   game.obj
 0001:00114190       ?swEmitRun0_ZReadChromaModulateLinearSolidCUCV@@YIXH@Z 00515190 f   game.obj
 0001:00114310       ?swEmitRun0_ZReadWriteChromaModulateLinearSolidCUCV@@YIXH@Z 00515310 f   game.obj
 0001:00114490       ?swEmitRun0_NoZChromaModulateLinearStippleCUCV@@YIXH@Z 00515490 f   game.obj
 0001:001145d0       ?swEmitRun0_ZReadChromaModulateLinearStippleCUCV@@YIXH@Z 005155d0 f   game.obj
 0001:00114760       ?swEmitRun0_ZReadWriteChromaModulateLinearStippleCUCV@@YIXH@Z 00515760 f   game.obj
 0001:001148f0       ?swEmitRun0_NoZGlowModulateLinearSolidCUCV@@YIXH@Z 005158f0 f   game.obj
 0001:00114a20       ?swEmitRun0_ZReadGlowModulateLinearSolidCUCV@@YIXH@Z 00515a20 f   game.obj
 0001:00114ba0       ?swEmitRun0_ZReadWriteGlowModulateLinearSolidCUCV@@YIXH@Z 00515ba0 f   game.obj
 0001:00114d10       ?swEmitRun0_NoZGlowModulateLinearStippleCUCV@@YIXH@Z 00515d10 f   game.obj
 0001:00114e50       ?swEmitRun0_ZReadGlowModulateLinearStippleCUCV@@YIXH@Z 00515e50 f   game.obj
 0001:00114fe0       ?swEmitRun0_ZReadWriteGlowModulateLinearStippleCUCV@@YIXH@Z 00515fe0 f   game.obj
 0001:00115160       ?swEmitRun0_NoZOpaqueDecalParaSolidCUCV@@YIXH@Z 00516160 f   game.obj
 0001:00115280       ?swEmitRun0_ZReadOpaqueDecalParaSolidCUCV@@YIXH@Z 00516280 f   game.obj
 0001:00115400       ?swEmitRun0_ZReadWriteOpaqueDecalParaSolidCUCV@@YIXH@Z 00516400 f   game.obj
 0001:00115570       ?swEmitRun0_NoZOpaqueDecalParaStippleCUCV@@YIXH@Z 00516570 f   game.obj
 0001:001156a0       ?swEmitRun0_ZReadOpaqueDecalParaStippleCUCV@@YIXH@Z 005166a0 f   game.obj
 0001:00115820       ?swEmitRun0_ZReadWriteOpaqueDecalParaStippleCUCV@@YIXH@Z 00516820 f   game.obj
 0001:001159b0       ?swEmitRun0_NoZChromaDecalParaSolidCUCV@@YIXH@Z 005169b0 f   game.obj
 0001:00115af0       ?swEmitRun0_ZReadChromaDecalParaSolidCUCV@@YIXH@Z 00516af0 f   game.obj
 0001:00115c80       ?swEmitRun0_ZReadWriteChromaDecalParaSolidCUCV@@YIXH@Z 00516c80 f   game.obj
 0001:00115e10       ?swEmitRun0_NoZChromaDecalParaStippleCUCV@@YIXH@Z 00516e10 f   game.obj
 0001:00115f60       ?swEmitRun0_ZReadChromaDecalParaStippleCUCV@@YIXH@Z 00516f60 f   game.obj
 0001:00116100       ?swEmitRun0_ZReadWriteChromaDecalParaStippleCUCV@@YIXH@Z 00517100 f   game.obj
 0001:001162a0       ?swEmitRun0_NoZGlowDecalParaSolidCUCV@@YIXH@Z 005172a0 f   game.obj
 0001:001163f0       ?swEmitRun0_ZReadGlowDecalParaSolidCUCV@@YIXH@Z 005173f0 f   game.obj
 0001:00116590       ?swEmitRun0_ZReadWriteGlowDecalParaSolidCUCV@@YIXH@Z 00517590 f   game.obj
 0001:00116720       ?swEmitRun0_NoZGlowDecalParaStippleCUCV@@YIXH@Z 00517720 f   game.obj
 0001:00116880       ?swEmitRun0_ZReadGlowDecalParaStippleCUCV@@YIXH@Z 00517880 f   game.obj
 0001:00116a30       ?swEmitRun0_ZReadWriteGlowDecalParaStippleCUCV@@YIXH@Z 00517a30 f   game.obj
 0001:00116be0       ?swEmitRun0_NoZOpaqueModulateParaSolidCUCV@@YIXH@Z 00517be0 f   game.obj
 0001:00116d10       ?swEmitRun0_ZReadOpaqueModulateParaSolidCUCV@@YIXH@Z 00517d10 f   game.obj
 0001:00116ea0       ?swEmitRun0_ZReadWriteOpaqueModulateParaSolidCUCV@@YIXH@Z 00517ea0 f   game.obj
 0001:00117020       ?swEmitRun0_NoZOpaqueModulateParaStippleCUCV@@YIXH@Z 00518020 f   game.obj
 0001:00117160       ?swEmitRun0_ZReadOpaqueModulateParaStippleCUCV@@YIXH@Z 00518160 f   game.obj
 0001:001172f0       ?swEmitRun0_ZReadWriteOpaqueModulateParaStippleCUCV@@YIXH@Z 005182f0 f   game.obj
 0001:00117490       ?swEmitRun0_NoZChromaModulateParaSolidCUCV@@YIXH@Z 00518490 f   game.obj
 0001:001175e0       ?swEmitRun0_ZReadChromaModulateParaSolidCUCV@@YIXH@Z 005185e0 f   game.obj
 0001:00117780       ?swEmitRun0_ZReadWriteChromaModulateParaSolidCUCV@@YIXH@Z 00518780 f   game.obj
 0001:00117920       ?swEmitRun0_NoZChromaModulateParaStippleCUCV@@YIXH@Z 00518920 f   game.obj
 0001:00117a80       ?swEmitRun0_ZReadChromaModulateParaStippleCUCV@@YIXH@Z 00518a80 f   game.obj
 0001:00117c30       ?swEmitRun0_ZReadWriteChromaModulateParaStippleCUCV@@YIXH@Z 00518c30 f   game.obj
 0001:00117de0       ?swEmitRun0_NoZGlowModulateParaSolidCUCV@@YIXH@Z 00518de0 f   game.obj
 0001:00117f30       ?swEmitRun0_ZReadGlowModulateParaSolidCUCV@@YIXH@Z 00518f30 f   game.obj
 0001:001180d0       ?swEmitRun0_ZReadWriteGlowModulateParaSolidCUCV@@YIXH@Z 005190d0 f   game.obj
 0001:00118260       ?swEmitRun0_NoZGlowModulateParaStippleCUCV@@YIXH@Z 00519260 f   game.obj
 0001:001183c0       ?swEmitRun0_ZReadGlowModulateParaStippleCUCV@@YIXH@Z 005193c0 f   game.obj
 0001:00118570       ?swEmitRun0_ZReadWriteGlowModulateParaStippleCUCV@@YIXH@Z 00519570 f   game.obj
 0001:00118720       ??0agiZBufRenderer@@QAE@PAVagiRasterizer@@@Z 00519720 f   game.obj
 0001:00118740       ?EndGroup@agiZBufRenderer@@UAEXXZ 00519740 f   game.obj
 0001:001194a0       ??0RDLP@@QAE@PAVagiPipeline@@@Z 0051a4a0 f   game.obj
 0001:001194f0       ??1RDLP@@UAE@XZ            0051a4f0 f   game.obj
 0001:00119540       ?InitFacet@RDLP@@AAEHPAUagiPatch@@HHHH@Z 0051a540 f   game.obj
 0001:001198e0       ?BeginGfx@RDLP@@UAEHXZ     0051a8e0 f   game.obj
 0001:00119ea0       ?EndGfx@RDLP@@UAEXXZ       0051aea0 f   game.obj
 0001:00119f30       ??0RDynamicDLP@@QAE@HPAVRDLP@@@Z 0051af30 f   game.obj
 0001:00119f90       ??1RDynamicDLP@@UAE@XZ     0051af90 f   game.obj
 0001:0011a000       ?Init@RDynamicDLP@@UAEHPAD@Z 0051b000 f   game.obj
 0001:0011a050       ?SetTexture@RDynamicDLP@@UAEXF@Z 0051b050 f   game.obj
 0001:0011a0e0       ?Lock@RDynamicDLP@@UAEXXZ  0051b0e0 f   game.obj
 0001:0011a120       ?Unlock@RDynamicDLP@@UAEXXZ 0051b120 f   game.obj
 0001:0011a130       ?GetDynamic@RDLP@@UAEPAVDynamicDLP@@H@Z 0051b130 f   game.obj
 0001:0011a1d0       ?FixROpts@RDLP@@UAEXHH@Z   0051b1d0 f   game.obj
 0001:0011a2d0       ??0agiLighter@@QAE@XZ      0051b2d0 f   game.obj
 0001:0011a2e0       ?BeginScene@agiLighter@@SAXXZ 0051b2e0 f   game.obj
 0001:0011a300       ?RemoveLight@agiLighter@@SAXPAVagiLight@@@Z 0051b300 f   game.obj
 0001:0011a360       ?TransformAll@agiLighter@@UAEXPAVMatrix34@@PAVVector3@@I@Z 0051b360 f   game.obj
 0001:0011a550       ??0agiMonoLighter@@QAE@XZ  0051b550 f   game.obj
 0001:0011a570       ?LightVertex@agiMonoLighter@@UAEIIPAUagiLitVtx@@PAVVector3@@@Z 0051b570 f   game.obj
 0001:0011a990       ??0agiRGBLighter@@QAE@XZ   0051b990 f   game.obj
 0001:0011a9b0       ?LightVertex@agiRGBLighter@@UAEIIPAUagiLitVtx@@PAVVector3@@@Z 0051b9b0 f   game.obj
 0001:0011aff0       ?InitMtx@agiProjVtx@@SAXAAVMatrix34@@MMMM@Z 0051bff0 f   game.obj
 0001:0011b130       ?SetOutcode@agiProjVtx@@SAXH@Z 0051c130 f   game.obj
 0001:0011b210       ?Project@agiProjVtx@@SAHHPAUagiLitVtx@@@Z 0051c210 f   game.obj
 0001:0011b520       ?ToScreen@agiProjVtx@@SAXH@Z 0051c520 f   game.obj
 0001:0011b6a0       ?Init@agiProjVtx@@SAXHPAVagiLighter@@I@Z 0051c6a0 f   game.obj
 0001:0011b860       ??0agiSurfRenderer@@QAE@PAVagiRasterizer@@@Z 0051c860 f   game.obj
 0001:0011b8b0       ?AddSurface@agiSurfRenderer@@CAHPAUagiPatch@@HHHH@Z 0051c8b0 f   game.obj
 0001:0011cfa0       ?Draw@agiSurfRenderer@@UAEXPAVDLP@@H@Z 0051dfa0 f   game.obj
 0001:0011d340       ?DrawCard@agiSurfRenderer@@UAEXAAVVector3@@@Z 0051e340 f   game.obj
 0001:0011d820       ?Verts@agiSurfRenderer@@UAEXPATagiVtx@@H@Z 0051e820 f   game.obj
 0001:0011d8c0       ?Points@agiSurfRenderer@@UAEXPATagiVtx@@H@Z 0051e8c0 f   game.obj
 0001:0011d930       ?DrawTri@agiSurfRenderer@@UAEXHHH@Z 0051e930 f   game.obj
 0001:0011d960       ?DrawLine@agiSurfRenderer@@UAEXHH@Z 0051e960 f   game.obj
 0001:0011dc00       ?DrawLabel@agiSurfRenderer@@UAEXAATagiVtx@@PAD@Z 0051ec00 f   game.obj
 0001:0011dc70       ?EndDraw@agiSurfRenderer@@UAEXXZ 0051ec70 f   game.obj
 0001:0011dce0       ??0agiBILightModel@@QAE@PAVagiPipeline@@@Z 0051ece0 f   game.obj
 0001:0011dd00       ??1agiBILightModel@@UAE@XZ 0051ed00 f   game.obj
 0001:0011dd60       ?BeginGfx@agiBILightModel@@UAEHXZ 0051ed60 f   game.obj
 0001:0011dd90       ?EndGfx@agiBILightModel@@UAEXXZ 0051ed90 f   game.obj
 0001:0011dda0       ?Activate@agiBILightModel@@UAEHXZ 0051eda0 f   game.obj
 0001:0011ddf0       ??0agiBILight@@QAE@PAVagiPipeline@@@Z 0051edf0 f   game.obj
 0001:0011de10       ??1agiBILight@@UAE@XZ      0051ee10 f   game.obj
 0001:0011de60       ?BeginGfx@agiBILight@@UAEHXZ 0051ee60 f   game.obj
 0001:0011de80       ?EndGfx@agiBILight@@UAEXXZ 0051ee80 f   game.obj
 0001:0011de90       ?Update@agiBILight@@UAEHXZ 0051ee90 f   game.obj
 0001:0011dea0       ?Remove@agiBILight@@UAEXXZ 0051eea0 f   game.obj
 0001:0011dee0       ?GetTexLut@agiPipeline@@QAEPAVagiTexLut@@PAD@Z 0051eee0 f   game.obj
 0001:0011df50       ?GetMaterial@agiPipeline@@QAEPAVagiMtlDef@@H@Z 0051ef50 f   game.obj
 0001:0011dfe0       ?GetDLP@agiPipeline@@QAEPAVDLP@@PAD0PAVVector3@@HH@Z 0051efe0 f   game.obj
 0001:0011e210       ?CheckLibraries@@YAXXZ     0051f210 f   game.obj
 0001:0011e2b0       ?LibOutOfDate@@YAHPAD0@Z   0051f2b0 f   game.obj
 0001:0011e340       ?GetDLPTemplate@@YAPAVDLPTemplate@@PAD@Z 0051f340 f   game.obj
 0001:0011e5d0       ?Load@agiPhysParameters@@QAEXPAVStream@@@Z 0051f5d0 f   game.obj
 0001:0011e680       ?Save@agiPhysParameters@@QAEXPAVStream@@@Z 0051f680 f   game.obj
 0001:0011e720       ??0agiViewParameters@@QAE@XZ 0051f720 f   game.obj
 0001:0011e790       ?Perspective@agiViewParameters@@QAEXMMMM@Z 0051f790 f   game.obj
 0001:0011e860       ?SphereVisible@agiViewParameters@@QAEHAAVVector3@@M@Z 0051f860 f   game.obj
 0001:0011e960       ?SetBill@agiViewParameters@@QAEXAAVVector3@@@Z 0051f960 f   game.obj
 0001:0011eaa0       ?SetBillY@agiViewParameters@@QAEXAAVMatrix34@@@Z 0051faa0 f   game.obj
 0001:0011ecb0       ?Init@DLPTemplate@@QAEXHHH@Z 0051fcb0 f   game.obj
 0001:0011ede0       ??0DLPGroup@@QAE@PAVDLPTemplate@@PAV0@@Z 0051fde0 f   game.obj
 0001:0011efc0       ?Save@DLPGroup@@QAEXPAVStream@@@Z 0051ffc0 f   game.obj
 0001:0011f040       ?Print@DLPGroup@@QAEXPAVStream@@@Z 00520040 f   game.obj
 0001:0011f0c0       ?Save@DLPPatch@@QAEXPAVStream@@@Z 005200c0 f   game.obj
 0001:0011f190       ?Print@DLPPatch@@QAEXPAVStream@@@Z 00520190 f   game.obj
 0001:0011f250       ?UnpackAngle@@YAME@Z       00520250 f   game.obj
 0001:0011f280       ?PackAngle@@YAIM@Z         00520280 f   game.obj
 0001:0011f2e0       ?Save@DLPVertex@@QAEXPAVStream@@@Z 005202e0 f   game.obj
 0001:0011f370       ?GroupExists@DLPTemplate@@QAEPAVDLPGroup@@PAD@Z 00520370 f   game.obj
 0001:0011f3f0       ?Restrict@DLPTemplate@@QAEHPAD@Z 005203f0 f   game.obj
 0001:0011f500       ?Release@DLPTemplate@@QAEHXZ 00520500 f   game.obj
 0001:0011f530       ?GetCentroid@DLPTemplate@@QAEHAAVVector3@@PAD@Z 00520530 f   game.obj
 0001:0011f5b0       ?BoundBox@DLPTemplate@@QAEHAAVVector3@@0PAD@Z 005205b0 f   game.obj
 0001:0011f7d0       ?Load@agiSurfaceDesc@@SAPAV1@PAD0HHHH@Z 005207d0 f   game.obj
 0001:0011fb10       ?RescaleJpeg@@YAXIIPAEAAUjpeg_decompress_struct@@@Z 00520b10 f   game.obj
 0001:0011fe10       ?Reload@agiSurfaceDesc@@QAEXPAD0HHPAVStream@@HH@Z 00520e10 f   game.obj
 0001:00120190       ?copyrow565_to_555@@YAXPAX0II@Z 00521190 f   game.obj
 0001:001201e0       ?copyrow565_to_5551@@YAXPAX0II@Z 005211e0 f   game.obj
 0001:00120240       ?copyrow565_to_888rev@@YAXPAX0II@Z 00521240 f   game.obj
 0001:001202c0       ?copyrow4444_to_8888rev@@YAXPAX0II@Z 005212c0 f   game.obj
 0001:00120350       ?copyrow4444_to_555@@YAXPAX0II@Z 00521350 f   game.obj
 0001:001203d0       ?copyrow4444_to_565@@YAXPAX0II@Z 005213d0 f   game.obj
 0001:00120450       ?copyrow4444_to_5551@@YAXPAX0II@Z 00521450 f   game.obj
 0001:001204e0       ??0agiLightModelParameters@@QAE@XZ 005214e0 f   game.obj
 0001:00120510       ??4agiLightModelParameters@@QAEXABV0@@Z 00521510 f   game.obj
 0001:00120530       ??0agiLightModel@@IAE@PAVagiPipeline@@@Z 00521530 f   game.obj
 0001:00120580       ?Init@agiLightModel@@QAEHABVagiLightModelParameters@@@Z 00521580 f   game.obj
 0001:001205b0       ??1agiLightModel@@UAE@XZ   005215b0 f   game.obj
 0001:00120600       ?GetName@agiLightModel@@UAEPADXZ 00521600 f   game.obj
 0001:00120650       ??0agiColorModel8@@QAE@PAVagiPalette@@@Z 00521650 f   game.obj
 0001:001206a0       ?GetColor@agiColorModel8@@UAEIUagiRgba@@@Z 005216a0 f   game.obj
 0001:001206c0       ?FindColor@agiColorModel8@@UAEIUagiRgba@@@Z 005216c0 f   game.obj
 0001:001206e0       ?Filter@agiColorModel8@@UAEIIIII@Z 005216e0 f   game.obj
 0001:001207d0       ??0agiPalette@@QAE@XZ      005217d0 f   game.obj
 0001:001207f0       ?Kill@agiPalette@@QAEXXZ   005217f0 f   game.obj
 0001:00120830       ?GetColor@agiPalette@@QAEIUagiRgba@@@Z 00521830 f   game.obj
 0001:001208c0       ?FindColor@agiPalette@@QAEIUagiRgba@@@Z 005218c0 f   game.obj
 0001:001209c0       ??0agiColorModelRGB555@@QAE@XZ 005219c0 f   game.obj
 0001:00120a00       ?GetColor@agiColorModelRGB555@@UAEIUagiRgba@@@Z 00521a00 f   game.obj
 0001:00120a40       ?FindColor@agiColorModelRGB555@@UAEIUagiRgba@@@Z 00521a40 f   game.obj
 0001:00120a80       ?Filter@agiColorModelRGB555@@UAEIIIII@Z 00521a80 f   game.obj
 0001:00120b10       ?SetPixel@agiColorModelRGB555@@UAEXPAVagiSurfaceDesc@@HHI@Z 00521b10 f   game.obj
 0001:00120b80       ??0agiColorModelRGB565@@QAE@XZ 00521b80 f   game.obj
 0001:00120bc0       ?GetColor@agiColorModelRGB565@@UAEIUagiRgba@@@Z 00521bc0 f   game.obj
 0001:00120c00       ?FindColor@agiColorModelRGB565@@UAEIUagiRgba@@@Z 00521c00 f   game.obj
 0001:00120c40       ?Filter@agiColorModelRGB565@@UAEIIIII@Z 00521c40 f   game.obj
 0001:00120cd0       ?SetPixel@agiColorModelRGB565@@UAEXPAVagiSurfaceDesc@@HHI@Z 00521cd0 f   game.obj
 0001:00120d40       ??0agiColorModelRGB555_Rev@@QAE@XZ 00521d40 f   game.obj
 0001:00120d80       ?GetColor@agiColorModelRGB555_Rev@@UAEIUagiRgba@@@Z 00521d80 f   game.obj
 0001:00120dc0       ?FindColor@agiColorModelRGB555_Rev@@UAEIUagiRgba@@@Z 00521dc0 f   game.obj
 0001:00120e00       ?Filter@agiColorModelRGB555_Rev@@UAEIIIII@Z 00521e00 f   game.obj
 0001:00120e90       ?SetPixel@agiColorModelRGB555_Rev@@UAEXPAVagiSurfaceDesc@@HHI@Z 00521e90 f   game.obj
 0001:00120f00       ??0agiColorModelRGB565_Rev@@QAE@XZ 00521f00 f   game.obj
 0001:00120f40       ?GetColor@agiColorModelRGB565_Rev@@UAEIUagiRgba@@@Z 00521f40 f   game.obj
 0001:00120f80       ?FindColor@agiColorModelRGB565_Rev@@UAEIUagiRgba@@@Z 00521f80 f   game.obj
 0001:00120fc0       ?Filter@agiColorModelRGB565_Rev@@UAEIIIII@Z 00521fc0 f   game.obj
 0001:00121050       ?SetPixel@agiColorModelRGB565_Rev@@UAEXPAVagiSurfaceDesc@@HHI@Z 00522050 f   game.obj
 0001:001210c0       ??0agiColorModelRGB888@@QAE@XZ 005220c0 f   game.obj
 0001:00121100       ?GetColor@agiColorModelRGB888@@UAEIUagiRgba@@@Z 00522100 f   game.obj
 0001:00121130       ?FindColor@agiColorModelRGB888@@UAEIUagiRgba@@@Z 00522130 f   game.obj
 0001:00121160       ?Filter@agiColorModelRGB888@@UAEIIIII@Z 00522160 f   game.obj
 0001:001211e0       ?SetPixel@agiColorModelRGB888@@UAEXPAVagiSurfaceDesc@@HHI@Z 005221e0 f   game.obj
 0001:00121240       ??0agiColorModelRGB888_Rev@@QAE@XZ 00522240 f   game.obj
 0001:00121280       ?GetColor@agiColorModelRGB888_Rev@@UAEIUagiRgba@@@Z 00522280 f   game.obj
 0001:001212b0       ?FindColor@agiColorModelRGB888_Rev@@UAEIUagiRgba@@@Z 005222b0 f   game.obj
 0001:001212e0       ?Filter@agiColorModelRGB888_Rev@@UAEIIIII@Z 005222e0 f   game.obj
 0001:00121360       ?SetPixel@agiColorModelRGB888_Rev@@UAEXPAVagiSurfaceDesc@@HHI@Z 00522360 f   game.obj
 0001:001213c0       ??0agiColorModelRGBA5551@@QAE@XZ 005223c0 f   game.obj
 0001:00121410       ?GetColor@agiColorModelRGBA5551@@UAEIUagiRgba@@@Z 00522410 f   game.obj
 0001:00121460       ?FindColor@agiColorModelRGBA5551@@UAEIUagiRgba@@@Z 00522460 f   game.obj
 0001:001214b0       ?Filter@agiColorModelRGBA5551@@UAEIIIII@Z 005224b0 f   game.obj
 0001:00121570       ?SetPixel@agiColorModelRGBA5551@@UAEXPAVagiSurfaceDesc@@HHI@Z 00522570 f   game.obj
 0001:001215e0       ??0agiColorModelRGBA4444@@QAE@XZ 005225e0 f   game.obj
 0001:00121620       ?GetColor@agiColorModelRGBA4444@@UAEIUagiRgba@@@Z 00522620 f   game.obj
 0001:00121670       ?FindColor@agiColorModelRGBA4444@@UAEIUagiRgba@@@Z 00522670 f   game.obj
 0001:001216c0       ?Filter@agiColorModelRGBA4444@@UAEIIIII@Z 005226c0 f   game.obj
 0001:00121780       ?SetPixel@agiColorModelRGBA4444@@UAEXPAVagiSurfaceDesc@@HHI@Z 00522780 f   game.obj
 0001:001217f0       ??0agiColorModelARGB@@QAE@XZ 005227f0 f   game.obj
 0001:00121830       ?GetColor@agiColorModelARGB@@UAEIUagiRgba@@@Z 00522830 f   game.obj
 0001:00121870       ?FindColor@agiColorModelARGB@@UAEIUagiRgba@@@Z 00522870 f   game.obj
 0001:001218b0       ?Filter@agiColorModelARGB@@UAEIIIII@Z 005228b0 f   game.obj
 0001:00121950       ?SetPixel@agiColorModelARGB@@UAEXPAVagiSurfaceDesc@@HHI@Z 00522950 f   game.obj
 0001:001219b0       ??0agiColorModelABGR@@QAE@XZ 005229b0 f   game.obj
 0001:001219f0       ?GetColor@agiColorModelABGR@@UAEIUagiRgba@@@Z 005229f0 f   game.obj
 0001:00121a30       ?FindColor@agiColorModelABGR@@UAEIUagiRgba@@@Z 00522a30 f   game.obj
 0001:00121a70       ?Filter@agiColorModelABGR@@UAEIIIII@Z 00522a70 f   game.obj
 0001:00121b20       ?SetPixel@agiColorModelABGR@@UAEXPAVagiSurfaceDesc@@HHI@Z 00522b20 f   game.obj
 0001:00121d20       ??0agiMtlParameters@@QAE@XZ 00522d20 f   game.obj
 0001:00121d70       ?Load@agiMtlParameters@@QAEXPAVStream@@@Z 00522d70 f   game.obj
 0001:00121de0       ?Save@agiMtlParameters@@QAEXPAVStream@@@Z 00522de0 f   game.obj
 0001:00121e50       ??4agiMtlParameters@@QAEXABV0@@Z 00522e50 f   game.obj
 0001:00121e70       ??0agiMtlDef@@IAE@PAVagiPipeline@@@Z 00522e70 f   game.obj
 0001:00121ec0       ?Init@agiMtlDef@@QAEHABVagiMtlParameters@@@Z 00522ec0 f   game.obj
 0001:00121ef0       ??1agiMtlDef@@MAE@XZ       00522ef0 f   game.obj
 0001:00121fa0       ?GetName@agiMtlDef@@UAEPADXZ 00522fa0 f   game.obj
 0001:00121ff0       ??0agiRenderer@@QAE@XZ     00522ff0 f   game.obj
 0001:001220c0       ??0DLP@@QAE@PAVagiPipeline@@@Z 005230c0 f   game.obj
 0001:00122120       ??1DLP@@UAE@XZ             00523120 f   game.obj
 0001:00122230       ?FixTemplateRefs@DLP@@IAEXH@Z 00523230 f   game.obj
 0001:00122300       ?BeginGfx@DLP@@UAEHXZ      00523300 f   game.obj
 0001:00122520       ?Init@DLP@@QAEHPAD0PAVVector3@@@Z 00523520 f   game.obj
 0001:001225a0       ?Init@DLP@@QAEHPAVDLPTemplate@@PADPAVVector3@@@Z 005235a0 f   game.obj
 0001:00122680       ?Cull@DLP@@UAEXH@Z         00523680 f   game.obj
 0001:001226e0       ?GetName@DLP@@UAEPADXZ     005236e0 f   game.obj
 0001:00122720       ?FixROpts@DLP@@UAEXHH@Z    00523720 f   game.obj
 0001:001227a0       ??0DynamicDLP@@QAE@H@Z     005237a0 f   game.obj
 0001:001227d0       ??1DynamicDLP@@MAE@XZ      005237d0 f   game.obj
 0001:001227f0       ?InitOffsets@DynamicDLP@@QAEHPAVDLP@@PAD@Z 005237f0 f   game.obj
 0001:00122a80       ?irand@@YAHH@Z             00523a80 f   game.obj
 0001:00122ab0       ?irand@@YAHXZ              00523ab0 f   game.obj
 0001:00122af0       ?frand@@YAMXZ              00523af0 f   game.obj
 0001:00122b10       ?Angle@Vector3@@QBEMABV1@@Z 00523b10 f   game.obj
 0001:00122ce0       ?Area@Vector3@@QBEMABV1@0@Z 00523ce0 f   game.obj
 0001:00122d80       ?Rotate@Vector3@@QAEXMH@Z  00523d80 f   game.obj
 0001:00122f50       ?Approach@Vector3@@QAEHABV1@MMPAM@Z 00523f50 f   game.obj
 0001:00123090       ?CatmullRom@Vector3@@QAEXMABV1@000@Z 00524090 f   game.obj
 0001:00123240       ?Hermite@Vector3@@QAEXMABV1@000M@Z 00524240 f   game.obj
 0001:001233f0       ?Bilinear@Vector3@@QAEXMMABV1@000@Z 005243f0 f   game.obj
 0001:001234c0       ?PointToSegment2@Vector3@@QBEMABV1@0AAV1@AAHPAM@Z 005244c0 f   game.obj
 0001:001236e0       ?Equal@Vector3@@QBEIABV1@M@Z 005246e0 f   game.obj
 0001:00123740       ?GetPolar@Vector3@@QBEXABV1@PAVVector4@@PAV1@@Z 00524740 f   game.obj
 0001:00123880       ?Mag@Vector3@@QBEMXZ       00524880 f   game.obj
 0001:00123940       ?InvMag@Vector3@@QBEMXZ    00524940 f   game.obj
 0001:001239a0       ?Dist@Vector3@@QBEMABV1@@Z 005249a0 f   game.obj
 0001:00123a60       ?TransformVertNorm@@YAXAAVVector3@@0ABV1@0ABVMatrix34@@@Z 00524a60 f   game.obj
 0001:00123b50       ?TransformVertList@@YAXPAVVector3@@PBV1@HABVMatrix34@@@Z 00524b50 f   game.obj
 0001:00123cc0       ?Dot@Matrix34@@QAEXABV1@0@Z 00524cc0 f   game.obj
 0001:00123ee0       ?Dot3x3@Matrix34@@QAEXABV1@0@Z 00524ee0 f   game.obj
 0001:00124070       ?SolveSVD@Matrix34@@QBE?AVVector3@@ABV2@@Z 00525070 f   game.obj
 0001:00124d30       ?Inverse@Matrix34@@QBE?AV1@XZ 00525d30 f   game.obj
 0001:00124f10       ?FastInverse@Matrix34@@QAEXABV1@@Z 00525f10 f   game.obj
 0001:00125010       ?ArbitraryRotation@Matrix34@@AAEXABVVector3@@M@Z 00526010 f   game.obj
 0001:001254c0       ?Rotate@Matrix34@@QAEXABVVector3@@M@Z 005264c0 f   game.obj
 0001:00125b10       ?RotateAbs@Matrix34@@QAEXABVVector3@@M@Z 00526b10 f   game.obj
 0001:00126010       ?RotateFull@Matrix34@@QAEXABVVector3@@M@Z 00527010 f   game.obj
 0001:001266f0       ?RotateToAbs@Matrix34@@QAEXABVVector3@@0M@Z 005276f0 f   game.obj
 0001:00126960       ?RotateTo@Matrix34@@QAEXABVVector3@@0M@Z 00527960 f   game.obj
 0001:00126990       ?Scale@Matrix34@@QAEXMMM@Z 00527990 f   game.obj
 0001:00126a10       ?ScaleAbs@Matrix34@@QAEXMMM@Z 00527a10 f   game.obj
 0001:00126a40       ?Scale@Matrix34@@QAEXM@Z   00527a40 f   game.obj
 0001:00126ac0       ?ScaleFullAbs@Matrix34@@QAEXMMM@Z 00527ac0 f   game.obj
 0001:00126b00       ?Normalize@Matrix34@@QAEXXZ 00527b00 f   game.obj
 0001:00126c20       ?Transpose@Matrix34@@QAEXABV1@@Z 00527c20 f   game.obj
 0001:00126c80       ?GetEulers@Matrix34@@QBE?AVVector3@@PBD@Z 00527c80 f   game.obj
 0001:00127330       ?GetEulers@Matrix34@@QBE?AVVector3@@XZ 00528330 f   game.obj
 0001:001274d0       ?FromEulers@Matrix34@@QAEXABVVector3@@PBD@Z 005284d0 f   game.obj
 0001:00127e30       ?FromEulers@Matrix34@@QAEXABVVector3@@@Z 00528e30 f   game.obj
 0001:00128350       ?FromQuaternion@Matrix34@@QAEXABVQuaternion@@@Z 00529350 f   game.obj
 0001:00128480       ?LookAt@Matrix34@@QAEXABVVector3@@0@Z 00529480 f   game.obj
 0001:00128620       ?PolarView@Matrix34@@QAEXMMMM@Z 00529620 f   game.obj
 0001:00128680       ?PolarView@Matrix34@@QAEXABVVector4@@@Z 00529680 f   game.obj
 0001:001286a0       ?GetLookAt@Matrix34@@QBEXPAVVector3@@0M@Z 005296a0 f   game.obj
 0001:00128730       ?GetPolar@Matrix34@@QBEXPAVVector4@@PAVVector3@@M@Z 00529730 f   game.obj
 0001:00128770       ?RotEqual@Matrix34@@QBEIABV1@M@Z 00529770 f   game.obj
 0001:001287d0       ?Approach@Matrix34@@QAEHABV1@MMM@Z 005297d0 f   game.obj
 0001:00128920       ?DeclareFields@Matrix34@@SAXXZ 00529920 f   game.obj
 0001:001289c0       ?new_Matrix34@@YAPAXH@Z    005299c0 f   game.obj
 0001:00128a10       ?delete_Matrix34@@YAXPAXH@Z 00529a10 f   game.obj
 0001:00128a60       ?ASinf@@YAMM@Z             00529a60 f   game.obj
 0001:00128b00       ?asinf_fast@@YAMM@Z        00529b00 f   game.obj
 0001:00128b30       ?ATan2f@@YAMMM@Z           00529b30 f   game.obj
 0001:00128ba0       ?Seed@Random@@QAEXH@Z      00529ba0 f   game.obj
 0001:00128c60       ?Number@Random@@QAEMXZ     00529c60 f   game.obj
 0001:00128cc0       ??7Vector4@@QBE?AV0@XZ     00529cc0 f   game.obj
 0001:00128d40       ?Bilinear@Vector4@@QAEXMMABV1@000@Z 00529d40 f   game.obj
 0001:00128d90       ?Lerp@Vector4@@QAEXMABV1@0@Z 00529d90 f   game.obj
 0001:00128e60       ?Save@Vector4Type@@UAEXPAVMiniParser@@PAX@Z 00529e60 f   game.obj
 0001:00128ea0       ?Load@Vector4Type@@UAEXPAVMiniParser@@PAX@Z 00529ea0 f   game.obj
 0001:00128ee0       ?SizeOf@Vector4Type@@UAEIXZ 00529ee0 f   game.obj
 0001:00128ef0       ?New@Vector4Type@@UAEPAXH@Z 00529ef0 f   game.obj
 0001:00128f40       ?Delete@Vector4Type@@UAEXPAXH@Z 00529f40 f   game.obj
 0001:00128f70       ??0Matrix44@@QAE@ABVMatrix34@@@Z 00529f70 f   game.obj
 0001:00128fe0       ??TMatrix44@@QBE?AV0@ABV0@@Z 00529fe0 f   game.obj
 0001:00129250       ??TMatrix44@@QBE?AVVector4@@ABV1@@Z 0052a250 f   game.obj
 0001:00129350       ?Determinant@Matrix44@@QBEMXZ 0052a350 f   game.obj
 0001:001295a0       ?Transpose@Matrix44@@QBE?AV1@XZ 0052a5a0 f   game.obj
 0001:00129680       ?Identity@Matrix44@@QAEXXZ 0052a680 f   game.obj
 0001:001296c0       ?Rotate@Matrix44@@QAEXABVVector3@@0@Z 0052a6c0 f   game.obj
 0001:00129910       ?Scale@Matrix44@@QAEXMMM@Z 0052a910 f   game.obj
 0001:00129960       ?FromQuaternion@Matrix44@@QAEXABVQuaternion@@@Z 0052a960 f   game.obj
 0001:00129b10       ??0Matrix44@@QAE@ABV0@@Z   0052ab10 f   game.obj
 0001:00129b90       ??TVector4@@QBEMABV0@@Z    0052ab90 f   game.obj
 0001:00129bd0       ?logf_fast@@YAMM@Z         0052abd0 f   game.obj
 0001:00129c60       ?sqrtf_faster@@YAMM@Z      0052ac60 f   game.obj
 0001:00129cd0       ?invsqrtf_fast@@YAMM@Z     0052acd0 f   game.obj
 0001:00129d50       ?Mag@Vector2@@QBEMXZ       0052ad50 f   game.obj
 0001:00129dd0       ?InvMag@Vector2@@QBEMXZ    0052add0 f   game.obj
 0001:00129e40       ?Save@Vector2Type@@UAEXPAVMiniParser@@PAX@Z 0052ae40 f   game.obj
 0001:00129e70       ?Load@Vector2Type@@UAEXPAVMiniParser@@PAX@Z 0052ae70 f   game.obj
 0001:00129ea0       ?SizeOf@Vector2Type@@UAEIXZ 0052aea0 f   game.obj
 0001:00129eb0       ?New@Vector2Type@@UAEPAXH@Z 0052aeb0 f   game.obj
 0001:00129f00       ?Delete@Vector2Type@@UAEXPAXH@Z 0052af00 f   game.obj
 0001:00129f30       ?GetBoundInfo@@YAXHPAVVector3@@000PAM@Z 0052af30 f   game.obj
 0001:0012a4f0       ?CollideTri@@YAHABVVector3@@0000AAMAAV1@2@Z 0052b4f0 f   game.obj
 0001:0012a9b0       ?IsQuadCoplanar@@YAHAAVVector3@@000@Z 0052b9b0 f   game.obj
 0001:0012ab00       ?Neg@Vector3@@QAEXABV1@@Z  0052bb00 f   game.obj
 0001:0012ab20       ?Init@Quaternion@@QAEXMMMM@Z 0052bb20 f   game.obj
 0001:0012ac70       ?FromMatrix@Quaternion@@QAEXABVMatrix34@@@Z 0052bc70 f   game.obj
 0001:0012adc0       ?Mag@Quaternion@@QBEMXZ    0052bdc0 f   game.obj
 0001:0012ae90       ?Normalize@Quaternion@@QAEXXZ 0052be90 f   game.obj
 0001:0012aef0       ?Angle@Quaternion@@QBEMABV1@@Z 0052bef0 f   game.obj
 0001:0012af60       ?Lerp@Quaternion@@QAEXMABV1@0@Z 0052bf60 f   game.obj
 0001:0012b1e0       ?CatmullRom@Quaternion@@QAEXMABV1@000@Z 0052c1e0 f   game.obj
 0001:0012b290       ?atanf_fast_large_values@@YAMM@Z 0052c290 f   game.obj
 0001:0012b2c0       ?atanf_fast@@YAMM@Z        0052c2c0 f   game.obj
 0001:0012b340       ?atanf_faster@@YAMM@Z      0052c340 f   game.obj
 0001:0012b3a0       ?atan2f_fast@@YAMMM@Z      0052c3a0 f   game.obj
 0001:0012b420       ?atan2f_faster@@YAMMM@Z    0052c420 f   game.obj
 0001:0012b4a0       ?DeclareFields@Base@@SAXXZ 0052c4a0 f   game.obj
 0001:0012b4f0       ?delete_Base@@YAXPAXH@Z    0052c4f0 f   game.obj
 0001:0012b550       ??Hstring@@QBE?AV0@PBD@Z   0052c550 f   game.obj
 0001:0012b680       ??Ystring@@QAEXPBD@Z       0052c680 f   game.obj
 0001:0012b770       ??Ystring@@QAEXD@Z         0052c770 f   game.obj
 0001:0012b810       ??Gstring@@QBE?AV0@PBD@Z   0052c810 f   game.obj
 0001:0012b970       ?Contains@string@@QBEHAAV1@@Z 0052c970 f   game.obj
 0001:0012ba10       ?SaveName@string@@QAEXABV1@H00@Z 0052ca10 f   game.obj
 0001:0012bbe0       ?FileExists@string@@QBEHXZ 0052cbe0 f   game.obj
 0001:0012bc10       ?DirFileExt@string@@QBEXAAV1@00@Z 0052cc10 f   game.obj
 0001:0012be20       ?ExpandEnvs@string@@QAEXXZ 0052ce20 f   game.obj
 0001:0012bfc0       ?SubString@string@@QBE?AV1@H@Z 0052cfc0 f   game.obj
 0001:0012c0d0       ?NumSubStrings@string@@QBEHXZ 0052d0d0 f   game.obj
 0001:0012c120       ??4string@@QAEXPBD@Z       0052d120 f   game.obj
 0001:0012c180       ??Hstring@@QBE?AV0@ABV0@@Z 0052d180 f   game.obj
 0001:0012c1b0       ?GetCount@RefToType@@QAEHPAX@Z 0052d1b0 f   game.obj
 0001:0012c1f0       ?Save@RefToType@@UAEXPAVMiniParser@@PAX@Z 0052d1f0 f   game.obj
 0001:0012c2a0       ?Load@RefToType@@UAEXPAVMiniParser@@PAX@Z 0052d2a0 f   game.obj
 0001:0012c350       ?New@RefToType@@UAEPAXH@Z  0052d350 f   game.obj
 0001:0012c360       ?Delete@RefToType@@UAEXPAXH@Z 0052d360 f   game.obj
 0001:0012c370       ?SizeOf@RefToType@@UAEIXZ  0052d370 f   game.obj
 0001:0012c380       ?Save@ArrayOfType@@UAEXPAVMiniParser@@PAX@Z 0052d380 f   game.obj
 0001:0012c420       ?Load@ArrayOfType@@UAEXPAVMiniParser@@PAX@Z 0052d420 f   game.obj
 0001:0012c4b0       ?SizeOf@ArrayOfType@@UAEIXZ 0052d4b0 f   game.obj
 0001:0012c4d0       ?New@ArrayOfType@@UAEPAXH@Z 0052d4d0 f   game.obj
 0001:0012c4f0       ?Delete@ArrayOfType@@UAEXPAXH@Z 0052d4f0 f   game.obj
 0001:0012c510       ?Save@CharType@@UAEXPAVMiniParser@@PAX@Z 0052d510 f   game.obj
 0001:0012c530       ?Load@CharType@@UAEXPAVMiniParser@@PAX@Z 0052d530 f   game.obj
 0001:0012c550       ?SizeOf@CharType@@UAEIXZ   0052d550 f   game.obj
 0001:0012c560       ?New@CharType@@UAEPAXH@Z   0052d560 f   game.obj
 0001:0012c590       ?Delete@CharType@@UAEXPAXH@Z 0052d590 f   game.obj
 0001:0012c5d0       ?Save@SignedCharType@@UAEXPAVMiniParser@@PAX@Z 0052d5d0 f   game.obj
 0001:0012c5f0       ?Load@SignedCharType@@UAEXPAVMiniParser@@PAX@Z 0052d5f0 f   game.obj
 0001:0012c610       ?SizeOf@SignedCharType@@UAEIXZ 0052d610 f   game.obj
 0001:0012c620       ?New@SignedCharType@@UAEPAXH@Z 0052d620 f   game.obj
 0001:0012c650       ?Delete@SignedCharType@@UAEXPAXH@Z 0052d650 f   game.obj
 0001:0012c690       ?Save@UnsignedCharType@@UAEXPAVMiniParser@@PAX@Z 0052d690 f   game.obj
 0001:0012c6b0       ?Load@UnsignedCharType@@UAEXPAVMiniParser@@PAX@Z 0052d6b0 f   game.obj
 0001:0012c6d0       ?SizeOf@UnsignedCharType@@UAEIXZ 0052d6d0 f   game.obj
 0001:0012c6e0       ?New@UnsignedCharType@@UAEPAXH@Z 0052d6e0 f   game.obj
 0001:0012c710       ?Delete@UnsignedCharType@@UAEXPAXH@Z 0052d710 f   game.obj
 0001:0012c750       ?Save@SignedShortType@@UAEXPAVMiniParser@@PAX@Z 0052d750 f   game.obj
 0001:0012c770       ?Load@SignedShortType@@UAEXPAVMiniParser@@PAX@Z 0052d770 f   game.obj
 0001:0012c790       ?SizeOf@SignedShortType@@UAEIXZ 0052d790 f   game.obj
 0001:0012c7a0       ?New@SignedShortType@@UAEPAXH@Z 0052d7a0 f   game.obj
 0001:0012c7d0       ?Delete@SignedShortType@@UAEXPAXH@Z 0052d7d0 f   game.obj
 0001:0012c810       ?Save@UnsignedShortType@@UAEXPAVMiniParser@@PAX@Z 0052d810 f   game.obj
 0001:0012c840       ?Load@UnsignedShortType@@UAEXPAVMiniParser@@PAX@Z 0052d840 f   game.obj
 0001:0012c860       ?SizeOf@UnsignedShortType@@UAEIXZ 0052d860 f   game.obj
 0001:0012c870       ?New@UnsignedShortType@@UAEPAXH@Z 0052d870 f   game.obj
 0001:0012c8a0       ?Delete@UnsignedShortType@@UAEXPAXH@Z 0052d8a0 f   game.obj
 0001:0012c8f0       ?Save@SignedInt64Type@@UAEXPAVMiniParser@@PAX@Z 0052d8f0 f   game.obj
 0001:0012c920       ?Load@SignedInt64Type@@UAEXPAVMiniParser@@PAX@Z 0052d920 f   game.obj
 0001:0012c940       ?SizeOf@SignedInt64Type@@UAEIXZ 0052d940 f   game.obj
 0001:0012c950       ?New@SignedInt64Type@@UAEPAXH@Z 0052d950 f   game.obj
 0001:0012c980       ?Delete@SignedInt64Type@@UAEXPAXH@Z 0052d980 f   game.obj
 0001:0012c9c0       ?Save@UnsignedIntType@@UAEXPAVMiniParser@@PAX@Z 0052d9c0 f   game.obj
 0001:0012c9e0       ?Load@UnsignedIntType@@UAEXPAVMiniParser@@PAX@Z 0052d9e0 f   game.obj
 0001:0012ca00       ?SizeOf@UnsignedIntType@@UAEIXZ 0052da00 f   game.obj
 0001:0012ca10       ?New@UnsignedIntType@@UAEPAXH@Z 0052da10 f   game.obj
 0001:0012ca40       ?Delete@UnsignedIntType@@UAEXPAXH@Z 0052da40 f   game.obj
 0001:0012cab0       ?jpeg_CreateDecompress@@YAXPAUjpeg_decompress_struct@@HI@Z 0052dab0 f   game.obj
 0001:0012cb90       ?jpeg_destroy_decompress@@YAXPAUjpeg_decompress_struct@@@Z 0052db90 f   game.obj
 0001:0012cbb0       ?jpeg_read_header@@YAHPAUjpeg_decompress_struct@@E@Z 0052dbb0 f   game.obj
 0001:0012cc30       ?jpeg_consume_input@@YAHPAUjpeg_decompress_struct@@@Z 0052dc30 f   game.obj
 0001:0012ceb0       ?jpeg_finish_decompress@@YAEPAUjpeg_decompress_struct@@@Z 0052deb0 f   game.obj
 0001:0012cf80       ?jpeg_start_decompress@@YAEPAUjpeg_decompress_struct@@@Z 0052df80 f   game.obj
 0001:0012d090       ?jpeg_read_scanlines@@YAIPAUjpeg_decompress_struct@@PAPAEI@Z 0052e090 f   game.obj
 0001:0012d130       ?jpeg_stdio_src@@YAXPAUjpeg_decompress_struct@@PAVStream@@@Z 0052e130 f   game.obj
 0001:0012d280       ?jpeg_std_error@@YAPAUjpeg_error_mgr@@PAU1@@Z 0052e280 f   game.obj
 0001:0012d460       ?jinit_input_controller@@YAXPAUjpeg_decompress_struct@@@Z 0052e460 f   game.obj
 0001:0012daa0       ?jpeg_resync_to_restart@@YAEPAUjpeg_decompress_struct@@H@Z 0052eaa0 f   game.obj
 0001:0012dcd0       ?jinit_marker_reader@@YAXPAUjpeg_decompress_struct@@@Z 0052ecd0 f   game.obj
 0001:0012f600       ?jinit_memory_mgr@@YAXPAUjpeg_common_struct@@@Z 00530600 f   game.obj
 0001:00130250       ?jpeg_abort@@YAXPAUjpeg_common_struct@@@Z 00531250 f   game.obj
 0001:001302a0       ?jpeg_destroy@@YAXPAUjpeg_common_struct@@@Z 005312a0 f   game.obj
 0001:001302d0       ?jpeg_alloc_quant_table@@YAPAUJQUANT_TBL@@PAUjpeg_common_struct@@@Z 005312d0 f   game.obj
 0001:001302f0       ?jpeg_alloc_huff_table@@YAPAUJHUFF_TBL@@PAUjpeg_common_struct@@@Z 005312f0 f   game.obj
 0001:00130310       ?jpeg_calc_output_dimensions@@YAXPAUjpeg_decompress_struct@@@Z 00531310 f   game.obj
 0001:001303d0       ?jinit_master_decompress@@YAXPAUjpeg_decompress_struct@@@Z 005313d0 f   game.obj
 0001:001307b0       ?jdiv_round_up@@YAJJJ@Z    005317b0 f   game.obj
 0001:001307d0       ?jround_up@@YAJJJ@Z        005317d0 f   game.obj
 0001:001307f0       ?jcopy_sample_rows@@YAXPAPAEH0HHI@Z 005317f0 f   game.obj
 0001:00130840       ?jzero_far@@YAXPAXI@Z      00531840 f   game.obj
 0001:00130860       ?jpeg_get_small@@YAPAXPAUjpeg_common_struct@@I@Z 00531860 f   game.obj
 0001:00130880       ?jpeg_free_small@@YAXPAUjpeg_common_struct@@PAXI@Z 00531880 f   game.obj
 0001:001308a0       ?jpeg_get_large@@YAPAXPAUjpeg_common_struct@@I@Z 005318a0 f   game.obj
 0001:001308c0       ?jpeg_free_large@@YAXPAUjpeg_common_struct@@PAXI@Z 005318c0 f   game.obj
 0001:001308e0       ?jpeg_mem_available@@YAJPAUjpeg_common_struct@@JJJ@Z 005318e0 f   game.obj
 0001:001308f0       ?jpeg_open_backing_store@@YAXPAUjpeg_common_struct@@PAUbacking_store_struct@@J@Z 005318f0 f   game.obj
 0001:00130910       ?jinit_d_main_controller@@YAXPAUjpeg_decompress_struct@@E@Z 00531910 f   game.obj
 0001:00130fd0       ?jinit_d_coef_controller@@YAXPAUjpeg_decompress_struct@@E@Z 00531fd0 f   game.obj
 0001:00131340       ?jpeg_make_d_derived_tbl@@YAXPAUjpeg_decompress_struct@@EHPAPAUd_derived_tbl@@@Z 00532340 f   game.obj
 0001:00131600       ?jpeg_fill_bit_buffer@@YAEPAUbitread_working_state@@JHH@Z 00532600 f   game.obj
 0001:00131720       ?jpeg_huff_decode@@YAHPAUbitread_working_state@@JHPAUd_derived_tbl@@H@Z 00532720 f   game.obj
 0001:00131820       ?jinit_huff_decoder@@YAXPAUjpeg_decompress_struct@@@Z 00532820 f   game.obj
 0001:00131e80       ?jinit_inverse_dct@@YAXPAUjpeg_decompress_struct@@@Z 00532e80 f   game.obj
 0001:001320e0       ?jinit_d_post_controller@@YAXPAUjpeg_decompress_struct@@E@Z 005330e0 f   game.obj
 0001:00132280       ?jinit_upsampler@@YAXPAUjpeg_decompress_struct@@@Z 00533280 f   game.obj
 0001:001329d0       ?jinit_color_deconverter@@YAXPAUjpeg_decompress_struct@@@Z 005339d0 f   game.obj
 0001:00133030       ?jpeg_idct_islow@@YAXPAUjpeg_decompress_struct@@PAUjpeg_component_info@@PAFPAPAEI@Z 00534030 f   game.obj
 0001:001335e0       ?jpeg_idct_ifast@@YAXPAUjpeg_decompress_struct@@PAUjpeg_component_info@@PAFPAPAEI@Z 005345e0 f   game.obj
 0001:00133a50       ?jpeg_idct_float@@YAXPAUjpeg_decompress_struct@@PAUjpeg_component_info@@PAFPAPAEI@Z 00534a50 f   game.obj
 0001:00133f30       ?GameStaticInit@@YAXXZ     00534f30 f   game.obj
 0001:0013a16d       _SDL_GetError              0053b16d f   SDL3:SDL3.dll
 0001:0013a173       _SDL_SetHintWithPriority   0053b173 f   SDL3:SDL3.dll
 0001:0013a179       _SDL_SetHint               0053b179 f   SDL3:SDL3.dll
 0001:0013a17f       _SDL_HideCursor            0053b17f f   SDL3:SDL3.dll
 0001:0013a185       _SDL_Init                  0053b185 f   SDL3:SDL3.dll
 0001:0013a18b       _SDL_InitSubSystem         0053b18b f   SDL3:SDL3.dll
 0001:0013a191       _SDL_Quit                  0053b191 f   SDL3:SDL3.dll
 0001:0013a197       _SDL_SetLogOutputFunction  0053b197 f   SDL3:SDL3.dll
 0001:0013a19d       _SDL_RunApp                0053b19d f   SDL3:SDL3.dll
 0001:0013a1a3       _SDL_SetWindowsMessageHook 0053b1a3 f   SDL3:SDL3.dll
 0001:0013a1b0       ?ArReportAssertion@@YIXABUArAssertData@@@Z 0053b1b0 f   arts_core:assert.obj
 0001:0013a1d0       ?arts_getenv@@YA?AVConstString@@PBD@Z 0053b1d0 f   arts_core:string.obj
 0001:0013a220       ?arts_strdup@@YAPADPBD@Z   0053b220 f   arts_core:string.obj
 0001:0013a270       ??$sprintf_s@$0EA@@@YAHAAY0EA@DPBDZZ 0053b270 f i arts_agi:bitmap.obj
 0001:0013a2a0       ??0?$CStringBuffer@$0EA@@@QAA@Varts_format_t@@PBDZZ 0053b2a0 f i arts_agi:bitmap.obj
 0001:0013a2d0       ??0agiBitmap@@QAE@PAVagiPipeline@@@Z 0053b2d0 f   arts_agi:bitmap.obj
 0001:0013a330       ??1agiBitmap@@MAE@XZ       0053b330 f   arts_agi:bitmap.obj
 0001:0013a3c0       ??_EagiBitmap@@MAEPAXI@Z   0053b3c0 f i arts_agi:bitmap.obj
 0001:0013a3c0       ??_GagiBitmap@@MAEPAXI@Z   0053b3c0 f i arts_agi:bitmap.obj
 0001:0013a470       ?GetName@agiBitmap@@UAEPADXZ 0053b470 f   arts_agi:bitmap.obj
 0001:0013a490       ?Init@agiBitmap@@QAEHPBDMMH@Z 0053b490 f   arts_agi:bitmap.obj
 0001:0013a6e0       ?SetTransparency@agiBitmap@@QAEXH@Z 0053b6e0 f   arts_agi:bitmap.obj
 0001:0013a710       ?GetColor@agiColorModel@@QAEIABVVector3@@@Z 0053b710 f   arts_agi:cmodel.obj
 0001:0013a770       ?GetColor@agiColorModel@@QAEIHHHH@Z 0053b770 f   arts_agi:cmodel.obj
 0001:0013a7a0       ?GetPixel@agiColorModel8@@UAEIPAVagiSurfaceDesc@@HH@Z 0053b7a0 f   arts_agi:cmodel8.obj
 0001:0013a7c0       ?SetPixel@agiColorModel8@@UAEXPAVagiSurfaceDesc@@HHI@Z 0053b7c0 f   arts_agi:cmodel8.obj
 0001:0013a7e0       ?FindMatch@agiColorModel@@SAPAV1@HHHH@Z 0053b7e0 f   arts_agi:cmodelx.obj
 0001:0013a880       ?FindMatch@agiColorModel@@SAPAV1@PAVagiSurfaceDesc@@@Z 0053b880 f   arts_agi:cmodelx.obj
 0001:0013a930       ?GetPixel@agiColorModelRGB888@@UAEIPAVagiSurfaceDesc@@HH@Z 0053b930 f   arts_agi:cmodelx.obj
 0001:0013a930       ?GetPixel@agiColorModelABGR@@UAEIPAVagiSurfaceDesc@@HH@Z 0053b930 f   arts_agi:cmodelx.obj
 0001:0013a930       ?GetPixel@agiColorModelARGB@@UAEIPAVagiSurfaceDesc@@HH@Z 0053b930 f   arts_agi:cmodelx.obj
 0001:0013a930       ?GetPixel@agiColorModelRGB888_Rev@@UAEIPAVagiSurfaceDesc@@HH@Z 0053b930 f   arts_agi:cmodelx.obj
 0001:0013a950       ?GetPixel@agiColorModelRGB565@@UAEIPAVagiSurfaceDesc@@HH@Z 0053b950 f   arts_agi:cmodelx.obj
 0001:0013a950       ?GetPixel@agiColorModelRGB555@@UAEIPAVagiSurfaceDesc@@HH@Z 0053b950 f   arts_agi:cmodelx.obj
 0001:0013a950       ?GetPixel@agiColorModelRGBA4444@@UAEIPAVagiSurfaceDesc@@HH@Z 0053b950 f   arts_agi:cmodelx.obj
 0001:0013a950       ?GetPixel@agiColorModelRGB555_Rev@@UAEIPAVagiSurfaceDesc@@HH@Z 0053b950 f   arts_agi:cmodelx.obj
 0001:0013a950       ?GetPixel@agiColorModelRGBA5551@@UAEIPAVagiSurfaceDesc@@HH@Z 0053b950 f   arts_agi:cmodelx.obj
 0001:0013a950       ?GetPixel@agiColorModelRGB565_Rev@@UAEIPAVagiSurfaceDesc@@HH@Z 0053b950 f   arts_agi:cmodelx.obj
 0001:0013a970       ??$Get@E@Stream@@QAEEXZ    0053b970 f i arts_agi:dlptmpl.obj
 0001:0013a990       ??$Get@G@Stream@@QAEGXZ    0053b990 f i arts_agi:dlptmpl.obj
 0001:0013a9c0       ??$Get@VVector2@@@Stream@@QAE?AVVector2@@XZ 0053b9c0 f i arts_agi:dlptmpl.obj
 0001:0013aa30       ??$Get@VVector3@@@Stream@@QAE?AVVector3@@XZ 0053ba30 f i arts_agi:dlptmpl.obj
 0001:0013aac0       ??$GetN@G@Stream@@QAEXPAGH@Z 0053bac0 f i arts_agi:dlptmpl.obj
 0001:0013ab70       ??$GetN@VVector3@@@Stream@@QAEXPAVVector3@@H@Z 0053bb70 f i arts_agi:dlptmpl.obj
 0001:0013ac00       ??0DLPGroup@@QAE@XZ        0053bc00 f i arts_agi:dlptmpl.obj
 0001:0013ac30       ??0DLPPatch@@QAE@XZ        0053bc30 f i arts_agi:dlptmpl.obj
 0001:0013ac50       ??0DLPTemplate@@QAE@PAD@Z  0053bc50 f   arts_agi:dlptmpl.obj
 0001:0013ace0       ??1?$unique_ptr@$$BY0A@VDLPGroup@@U?$default_delete@$$BY0A@VDLPGroup@@@std@@@std@@QAE@XZ 0053bce0 f i arts_agi:dlptmpl.obj
 0001:0013ad40       ??1?$unique_ptr@$$BY0A@VDLPPatch@@U?$default_delete@$$BY0A@VDLPPatch@@@std@@@std@@QAE@XZ 0053bd40 f i arts_agi:dlptmpl.obj
 0001:0013adb0       ??1DLPGroup@@QAE@XZ        0053bdb0 f i arts_agi:dlptmpl.obj
 0001:0013ade0       ??1DLPPatch@@QAE@XZ        0053bde0 f i arts_agi:dlptmpl.obj
 0001:0013ae10       ??1DLPTemplate@@AAE@XZ     0053be10 f   arts_agi:dlptmpl.obj
 0001:0013ae90       ?Add@?$agiLib@VagiTexParameters@@VagiTexDef@@@@QAEHAAVagiTexParameters@@@Z 0053be90 f i arts_agi:dlptmpl.obj
 0001:0013af60       ?AddRef@DLPTemplate@@QAEXXZ 0053bf60 f i arts_agi:dlptmpl.obj
 0001:0013af70       ?Init@?$agiLib@VagiTexParameters@@VagiTexDef@@@@QAEXH@Z 0053bf70 f i arts_agi:dlptmpl.obj
 0001:0013aff0       ?InitRemap@DLPTemplate@@QAEXAAV?$agiLib@VagiMtlParameters@@VagiMtlDef@@@@AAV?$agiLib@VagiTexParameters@@VagiTexDef@@@@AAV?$agiLib@VagiPhysParameters@@VagiPhysDef@@@@@Z 0053bff0 f   arts_agi:dlptmpl.obj
 0001:0013b420       ?Kill@?$agiLib@VagiMtlParameters@@VagiMtlDef@@@@QAEXXZ 0053c420 f i arts_agi:dlptmpl.obj
 0001:0013b490       ?Kill@?$agiLib@VagiPhysParameters@@VagiPhysDef@@@@QAEXXZ 0053c490 f i arts_agi:dlptmpl.obj
 0001:0013b500       ?Kill@?$agiLib@VagiTexParameters@@VagiTexDef@@@@QAEXXZ 0053c500 f i arts_agi:dlptmpl.obj
 0001:0013b570       ?Load@DLPPatch@@QAEXPAVStream@@@Z 0053c570 f   arts_agi:dlptmpl.obj
 0001:0013b800       ?Load@DLPTemplate@@QAEXPAVStream@@@Z 0053c800 f   arts_agi:dlptmpl.obj
 0001:0013bee0       ?agiDisplayf@@YAXPBDZZ     0053cee0 f   arts_agi:error.obj
 0001:0013bf00       ?agiGetError@@YAPBDH@Z     0053cf00 f   arts_agi:error.obj
 0001:0013bf60       ?OutOfDate@@YAHPAD0@Z      0053cf60 f   arts_agi:getdlp.obj
 0001:0013bfe0       ??0agiLight@@QAE@PAVagiPipeline@@@Z 0053cfe0 f i arts_agi:light.obj
 0001:0013c0d0       ??0agiLightParameters@@QAE@XZ 0053d0d0 f i arts_agi:light.obj
 0001:0013c1a0       ??1agiSWRasterizer@@UAE@XZ 0053d1a0 f i arts_agisdl:sdlswpipe.obj
 0001:0013c1a0       ??1agiLight@@UAE@XZ        0053d1a0 f i arts_agi:light.obj
 0001:0013c1b0       ??_EagiLight@@UAEPAXI@Z    0053d1b0 f i arts_agi:light.obj
 0001:0013c240       ?GetName@agiLight@@UAEPADXZ 0053d240 f   arts_agi:light.obj
 0001:0013c260       ?Init@agiLight@@QAEHABVagiLightParameters@@@Z 0053d260 f   arts_agi:light.obj
 0001:0013c290       ??0agiPipeline@@IAE@XZ     0053d290 f   arts_agi:pipeline.obj
 0001:0013c7c0       ??1agiPipeline@@UAE@XZ     0053d7c0 f   arts_agi:pipeline.obj
 0001:0013c8a0       ?BeginAllGfx@agiPipeline@@QAEHXZ 0053d8a0 f   arts_agi:pipeline.obj
 0001:0013cb00       ?BeginFrame@agiPipeline@@UAEXXZ 0053db00 f   arts_agi:pipeline.obj
 0001:0013cb50       ?BeginScene@agiPipeline@@UAEXXZ 0053db50 f   arts_agi:pipeline.obj
 0001:0013cb60       ?ClearBorder@agiPipeline@@QAEXHHHHI@Z 0053db60 f   arts_agi:pipeline.obj
 0001:0013cbe0       ?ClearRect@agiPipeline@@UAEXHHHHI@Z 0053dbe0 f   arts_agi:pipeline.obj
 0001:0013cbf0       ?CopyBitmap@agiPipeline@@UAEXHHPAVagiBitmap@@HHHH@Z 0053dbf0 f   arts_agi:pipeline.obj
 0001:0013cc00       ?CopyClippedBitmap@agiPipeline@@QAEHHHPAVagiBitmap@@HHHH@Z 0053dc00 f   arts_agi:pipeline.obj
 0001:0013cc30       ?CopyClippedBitmap@agiPipeline@@QAEHHHPAVagiBitmap@@HHHHHHHH@Z 0053dc30 f   arts_agi:pipeline.obj
 0001:0013cd00       ?CreatePipelineAttachableWindow@@YAPAUSDL_Window@@PBDHHHHPAX@Z 0053dd00 f   arts_agi:pipeline.obj
 0001:0013cd30       ?AddWidgets@RadialGauge@@UAEXPAVBank@@@Z 0053dd30 f   arts_mmgame:gauge.obj
 0001:0013cd30       ?AddWidgets@mmWPHUD@@UAEXPAVBank@@@Z 0053dd30 f   arts_mmgame:wphud.obj
 0001:0013cd30       ?Hit@mmMatrixInstance@@UAEXPAVmmInstance@@@Z 0053dd30 f   arts_mmcity:inst.obj
 0001:0013cd30       ?UsesLobby@HostRaceMenu@@UAEXH@Z 0053dd30 f   arts_mmui:racehost.obj
 0001:0013cd30       ?Unlock@agiTexDef@@UAEXAAUagiTexLock@@@Z 0053dd30 f   arts_agi:texdef.obj
 0001:0013cd30       ?AddWidgets@mmTrailerInstance@@UAEXPAVBank@@@Z 0053dd30 f   arts_mmcar:trailer.obj
 0001:0013cd30       ?WideFOV@mmExternalView@@QAEXH@Z 0053dd30 f   arts_mmgame:dash.obj
 0001:0013cd30       ?AddWidgets@mmInstChain@@QAEXPAVBank@@@Z 0053dd30 f   arts_mmcity:instchn.obj
 0001:0013cd30       ?AddWidgets@mmWaypointInstance@@UAEXPAVBank@@@Z 0053dd30 f   arts_mmgame:wpinst.obj
 0001:0013cd30       ?SetTCPLocalButton@NetSelectMenu@@QAEXH@Z 0053dd30 f   arts_mmui:netselect.obj
 0001:0013cd30       ?AddWidgets@mmViewCS@@UAEXPAVBank@@@Z 0053dd30 f   arts_mmcamcs:viewcs.obj
 0001:0013cd30       ?AddWidgets@aiPedestrianInstance@@UAEXPAVBank@@@Z 0053dd30 f   arts_mmai:aiPedestrian.obj
 0001:0013cd30       ?UsesLobby@RaceMenuBase@@UAEXH@Z 0053dd30 f   arts_mmui:racebase.obj
 0001:0013cd30       ?UpdateDebugKeyInput@mmMultiCircuit@@UAEXH@Z 0053dd30 f   arts_mmgame:multicircuit.obj
 0001:0013cd30       ?AddWidgets@mmRunwayLight@@UAEXPAVBank@@@Z 0053dd30 f   arts_mmcity:cullcity.obj
 0001:0013cd30       ?AddWidgets@aiVehicleInstance@@UAEXPAVBank@@@Z 0053dd30 f   arts_mmai:aiVehicleMGR.obj
 0001:0013cd30       ?Switch@uiWidget@@UAEXH@Z  0053dd30 f   arts_mmwidget:widget.obj
 0001:0013cd30       ?PushColumn@asMidgets@@UAEXH@Z 0053dd30 f   arts_arts7:midgets.obj
 0001:0013cd30       ?UpdateDebugKeyInput@mmSingleBlitz@@UAEXH@Z 0053dd30 f   arts_mmgame:singleblitz.obj
 0001:0013cd30       ?AddWidgets@mmMatrixInstance@@UAEXPAVBank@@@Z 0053dd30 f   arts_mmcity:inst.obj
 0001:0013cd30       ?UpdateDebugKeyInput@mmSingleCircuit@@UAEXH@Z 0053dd30 f   arts_mmgame:singlecircuit.obj
 0001:0013cd30       ?UpdateGameInput@mmSingleCircuit@@UAEXH@Z 0053dd30 f   arts_mmgame:singlecircuit.obj
 0001:0013cd30       ?UpdateDebugKeyInput@mmMultiCR@@UAEXH@Z 0053dd30 f   arts_mmgame:multicr.obj
 0001:0013cd30       ?DumpStatus@agiPipeline@@UAEXAAUagiMemStatus@@@Z 0053dd30 f   arts_agi:pipeline.obj
 0001:0013cd30       ?AddWidgets@mmSkid@@UAEXPAVBank@@@Z 0053dd30 f   arts_mmcar:skid.obj
 0001:0013cd30       ?AddWidgets@MenuManager@@UAEXPAVBank@@@Z 0053dd30 f   arts_mmwidget:manager.obj
 0001:0013cd30       ?AddWidgets@mmNumber@@UAEXPAVBank@@@Z 0053dd30 f   arts_mmeffects:mmnumber.obj
 0001:0013cd30       ?SetST@BaseCamCS@@UAEXPAM@Z 0053dd30 f   arts_mmcamcs:basecamcs.obj
 0001:0013cd30       ?UpdateDebugKeyInput@mmGameSingle@@UAEXH@Z 0053dd30 f   arts_mmgame:gamesingle.obj
 0001:0013cd30       ?ImpactAudioReaction@aiVehicleSpline@@UAEXM@Z 0053dd30 f   arts_mmai:aiVehicleSpline.obj
 0001:0013cd30       ?AddWidgets@mmBangerInstance@@UAEXPAVBank@@@Z 0053dd30 f   arts_mmbangers:banger.obj
 0001:0013cd30       ?Switch@UILabel@@UAEXH@Z   0053dd30 f   arts_mmwidget:label.obj
 0001:0013cd30       ?Impact@aiVehicleSpline@@UAEXH@Z 0053dd30 f   arts_mmai:aiVehicleSpline.obj
 0001:0013cd30       ?Unlock@agiSWTexDef@@UAEXAAUagiTexLock@@@Z 0053dd30 f   arts_agisw:swtexdef.obj
 0001:0013cd30       ?SetVertCount@agiSWRasterizer@@UAEXH@Z 0053dd30 f   arts_agisw:swrsys.obj
 0001:0013cd30       ?UpdateGameInput@mmGameEdit@@UAEXH@Z 0053dd30 f   arts_mmgame:gameedit.obj
 0001:0013cd30       ?EvalMouseX@uiWidget@@UAEXM@Z 0053dd30 f   arts_mmwidget:widget.obj
 0001:0013cd30       ?PlayCar@mmImpactAudio@@QAEXM@Z 0053dd30 f   arts_mmcar:impactaudio.obj
 0001:0013cd30       ?SetDescription@NetSelectMenu@@QAEXPAULocString@@@Z 0053dd30 f   arts_mmui:netselect.obj
 0001:0013cd30       ?AddWidgets@asCullable@@QAEXPAVBank@@@Z 0053dd30 f   arts_arts7:cullable.obj
 0001:0013cd30       ?UpdateDebugKeyInput@mmGameMulti@@UAEXH@Z 0053dd30 f   arts_mmgame:gamemulti.obj
 0001:0013cd40       ?EndAllGfx@agiPipeline@@QAEXXZ 0053dd40 f   arts_agi:pipeline.obj
 0001:0013cde0       ?GetBitmap@agiPipeline@@QAEPAVagiBitmap@@PBDMMH@Z 0053dde0 f   arts_agi:pipeline.obj
 0001:0013cec0       ?GetTexture@agiPipeline@@QAEPAVagiTexDef@@HH@Z 0053dec0 f   arts_agi:pipeline.obj
 0001:0013d010       ?GetTexture@agiPipeline@@QAEPAVagiTexDef@@PBDH@Z 0053e010 f   arts_agi:pipeline.obj
 0001:0013d070       ?Unacquire@SDL_DirectInputDevice2A_GamePad@@UAGJXZ 0053e070 f   arts_pcwindis:sdldinput.obj
 0001:0013d070       ?New@PtrToType@@UAEPAXH@Z  0053e070 f   arts_data7:metatype.obj
 0001:0013d070       ?LockFrameBuffer@agiPipeline@@UAEHAAVagiSurfaceDesc@@@Z 0053e070 f   arts_agi:pipeline.obj
 0001:0013d070       ?GetMultipass@RDLP@@UAEPAVMultipassDLP@@H@Z 0053e070 f   arts_agirend:rdlp.obj
 0001:0013d070       ?Acquire@SDL_DirectInputDevice2A_GamePad@@UAGJXZ 0053e070 f   arts_pcwindis:sdldinput.obj
 0001:0013d070       ?LineSphere@mmBoundTemplate@@QAEHPAVmmIntersection@@@Z 0053e070 f   arts_mmdyna:bndtmpl.obj
 0001:0013d070       ?ChangeDir@VirtualFileSystem@@UAEHPBD@Z 0053e070 f   arts_stream:vfsystem.obj
 0001:0013d070       ?Lock@agiTexDef@@UAEHAAUagiTexLock@@@Z 0053e070 f   arts_agi:texdef.obj
 0001:0013d080       ?NotifyDelete@agiPipeline@@QAEXPAVagiRefreshable@@@Z 0053e080 f   arts_agi:pipeline.obj
 0001:0013d0b0       ?NotifyNew@agiPipeline@@QAEXPAVagiRefreshable@@@Z 0053e0b0 f   arts_agi:pipeline.obj
 0001:0013d500       ?Print@agiPipeline@@UAEXHHHPBD@Z 0053e500 f   arts_agi:print.obj
 0001:0013dce0       ?PrintInit@agiPipeline@@UAEXXZ 0053ece0 f   arts_agi:print.obj
 0001:0013dcf0       ?PrintShutdown@agiPipeline@@UAEXXZ 0053ecf0 f   arts_agi:print.obj
 0001:0013dd10       ?agiPrint@@YAXHHHPBD@Z     0053ed10 f   arts_agi:print.obj
 0001:0013dd30       ?agiPrintInit@@YAXXZ       0053ed30 f   arts_agi:print.obj
 0001:0013dd40       ?agiPrintIs3D@@YAHXZ       0053ed40 f   arts_agi:print.obj
 0001:0013dd50       ?agiPrintShutdown@@YAXXZ   0053ed50 f   arts_agi:print.obj
 0001:0013dd60       ?agiPrintf@@YAXHHHPBDZZ    0053ed60 f   arts_agi:print.obj
 0001:0013dde0       ??0agiRefreshable@@QAE@PAVagiPipeline@@@Z 0053ede0 f   arts_agi:refresh.obj
 0001:0013de20       ??1agiRefreshable@@MAE@XZ  0053ee20 f   arts_agi:refresh.obj
 0001:0013de60       ??_EagiRefreshable@@MAEPAXI@Z 0053ee60 f i arts_agi:refresh.obj
 0001:0013df40       ?AddRef@agiRefreshable@@QAEXXZ 0053ef40 f   arts_agi:refresh.obj
 0001:0013df60       ?GetName@agiRefreshable@@UAEPADXZ 0053ef60 f   arts_agi:refresh.obj
 0001:0013df70       ?Release@agiRefreshable@@QAEHXZ 0053ef70 f   arts_agi:refresh.obj
 0001:0013dfa0       ?SafeBeginGfx@agiRefreshable@@QAEHXZ 0053efa0 f   arts_agi:refresh.obj
 0001:0013dfd0       ?ValidatePtr@agiRefreshable@@AAEXPBD@Z 0053efd0 f   arts_agi:refresh.obj
 0001:0013e020       ??0agiRasterizer@@QAE@PAVagiPipeline@@@Z 0053f020 f   arts_agi:rsys.obj
 0001:0013e1a0       ??_GagiRasterizer@@UAEPAXI@Z 0053f1a0 f i arts_agi:rsys.obj
 0001:0013e1a0       ??_EagiRasterizer@@UAEPAXI@Z 0053f1a0 f i arts_agi:rsys.obj
 0001:0013e1d0       ?LineList@agiRasterizer@@UAEXW4agiVtxType@@PATagiVtx@@H@Z 0053f1d0 f   arts_agi:rsys.obj
 0001:0013e220       ?Mesh2@agiRasterizer@@UAEXPAUagiScreenVtx2@@HPAGH@Z 0053f220 f   arts_agi:rsys.obj
 0001:0013e230       ?Poly@agiRasterizer@@UAEXPAHH@Z 0053f230 f   arts_agi:rsys.obj
 0001:0013e280       ?Quad@agiRasterizer@@UAEXHHHH@Z 0053f280 f   arts_agi:rsys.obj
 0001:0013e2b0       ?Reset@agiRendStateStruct@@QAEXXZ 0053f2b0 f   arts_agi:rsys.obj
 0001:0013e420       ?Clear@agiSurfaceDesc@@QAEXXZ 0053f420 f   arts_agi:surface.obj
 0001:0013e440       ?CopyFrom@agiSurfaceDesc@@QAEXPAV1@H@Z 0053f440 f   arts_agi:surface.obj
 0001:0013e460       ?CopyFrom@agiSurfaceDesc@@QAEXPAV1@HPAVagiTexParameters@@@Z 0053f460 f   arts_agi:surface.obj
 0001:0013e710       ?Fill@agiSurfaceDesc@@QAEXHHHHI@Z 0053f710 f   arts_agi:surface.obj
 0001:0013e7f0       ?FixPitch@agiSurfaceDesc@@QAEXXZ 0053f7f0 f   arts_agi:surface.obj
 0001:0013e860       ?FromFormat@agiSurfaceDesc@@SA?AV1@ABUagiPixelFormat@@@Z 0053f860 f   arts_agi:surface.obj
 0001:0013e920       ?Init@agiSurfaceDesc@@SAPAV1@HHABV1@@Z 0053f920 f   arts_agi:surface.obj
 0001:0013e990       ?Load@agiSurfaceDesc@@QAEXXZ 0053f990 f   arts_agi:surface.obj
 0001:0013e9b0       ?Unload@agiSurfaceDesc@@QAEXXZ 0053f9b0 f   arts_agi:surface.obj
 0001:0013ecc0       ??0?$CStringBuffer@$0CA@@@QAA@Varts_format_t@@PBDZZ 0053fcc0 f i arts_agi:texdef.obj
 0001:0013ecf0       ??0agiTexDef@@IAE@PAVagiPipeline@@@Z 0053fcf0 f   arts_agi:texdef.obj
 0001:0013ed90       ??0agiTexLut@@IAE@PAVagiPipeline@@@Z 0053fd90 f   arts_agi:texdef.obj
 0001:0013edd0       ??1agiTexDef@@MAE@XZ       0053fdd0 f   arts_agi:texdef.obj
 0001:0013eef0       ??_GagiTexDef@@MAEPAXI@Z   0053fef0 f i arts_agi:texdef.obj
 0001:0013eef0       ??_EagiTexDef@@MAEPAXI@Z   0053fef0 f i arts_agi:texdef.obj
 0001:0013f030       ??_EagiTexLut@@MAEPAXI@Z   00540030 f i arts_agi:texdef.obj
 0001:0013f030       ??_GagiTexLut@@MAEPAXI@Z   00540030 f i arts_agi:texdef.obj
 0001:0013f070       ?DoPageIn@agiTexDef@@QAEXXZ 00540070 f   arts_agi:texdef.obj
 0001:0013f1b0       ?GetName@agiTexDef@@UAEPADXZ 005401b0 f   arts_agi:texdef.obj
 0001:0013f1e0       ?GetName@agiTexLut@@UAEPADXZ 005401e0 f   arts_agi:texdef.obj
 0001:0013f200       ?Init@agiTexDef@@QAEHABVagiTexParameters@@@Z 00540200 f   arts_agi:texdef.obj
 0001:0013f310       ?Init@agiTexDef@@QAEHABVagiTexParameters@@V?$unique_ptr@VagiSurfaceDesc@@U?$default_delete@VagiSurfaceDesc@@@std@@@std@@@Z 00540310 f   arts_agi:texdef.obj
 0001:0013f3b0       ?Init@agiTexLut@@QAEHPBD@Z 005403b0 f   arts_agi:texdef.obj
 0001:0013f490       ?IsAvailable@agiTexDef@@UAEHXZ 00540490 f   arts_agi:texdef.obj
 0001:0013f4a0       ?Priority@aiGoalChase@@UAEHXZ 005404a0 f   arts_mmai:aiGoalChase.obj
 0001:0013f4a0       ?IsTexture@agiTexDef@@UAEHXZ 005404a0 f   arts_agi:texdef.obj
 0001:0013f4a0       ?AlignSize@Stream@@MAEHXZ  005404a0 f   arts_stream:stream.obj
 0001:0013f4a0       ?Priority@aiGoalStop@@UAEHXZ 005404a0 f   arts_mmai:aiGoalStop.obj
 0001:0013f4a0       ?Priority@aiGoalBackup@@UAEHXZ 005404a0 f   arts_mmai:aiGoalBackup.obj
 0001:0013f4b0       ?Load@agiTexParameters@@QAEXPAVStream@@@Z 005404b0 f   arts_agi:texdef.obj
 0001:0013f510       ?LockSurfaceIfResident@agiTexDef@@QAEHXZ 00540510 f   arts_agi:texdef.obj
 0001:0013f540       ?PageInSurface@agiTexDef@@QAEXXZ 00540540 f   arts_agi:texdef.obj
 0001:0013f720       ?PageOutCallback@agiTexDef@@SAXPAXH@Z 00540720 f   arts_agi:texdef.obj
 0001:0013f760       ?ShutdownLutQueue@@YAXXZ   00540760 f   arts_agi:texdef.obj
 0001:0013f780       ?UnlockAndFreeSurface@agiTexDef@@QAEXXZ 00540780 f   arts_agi:texdef.obj
 0001:0013f7a0       ?UnlockSurface@agiTexDef@@QAEXXZ 005407a0 f   arts_agi:texdef.obj
 0001:0013f7c0       ?UpdateLutQueue@@YAXXZ     005407c0 f   arts_agi:texdef.obj
 0001:0013f870       ??$sprintf_s@$0IA@@@YAHAAY0IA@DPBDZZ 00540870 f i arts_agi:viewport.obj
 0001:0013f8a0       ??0agiViewport@@IAE@PAVagiPipeline@@@Z 005408a0 f   arts_agi:viewport.obj
 0001:0013f8d0       ??1agiViewport@@MAE@XZ     005408d0 f   arts_agi:viewport.obj
 0001:0013f8f0       ??_EagiViewport@@MAEPAXI@Z 005408f0 f i arts_agi:viewport.obj
 0001:0013f8f0       ??_GagiViewport@@MAEPAXI@Z 005408f0 f i arts_agi:viewport.obj
 0001:0013f930       ?GetName@agiViewport@@UAEPADXZ 00540930 f   arts_agi:viewport.obj
 0001:0013f950       ?SetWorld@agiViewport@@UAEXAAVMatrix34@@@Z 00540950 f   arts_agi:viewport.obj
 0001:0013f990       ??_EagiGLBitmap@@UAEPAXI@Z 00540990 f i arts_agigl:glpipe.obj
 0001:0013f990       ??_GagiGLBitmap@@UAEPAXI@Z 00540990 f i arts_agigl:glpipe.obj
 0001:0013f9d0       ??_EagiGLPipeline@@UAEPAXI@Z 005409d0 f i arts_agigl:glpipe.obj
 0001:0013f9d0       ??_GagiGLPipeline@@UAEPAXI@Z 005409d0 f i arts_agigl:glpipe.obj
 0001:0013fa30       ??_GagiGLTexDef@@UAEPAXI@Z 00540a30 f i arts_agigl:glpipe.obj
 0001:0013fa30       ??_EagiGLTexDef@@UAEPAXI@Z 00540a30 f i arts_agigl:glpipe.obj
 0001:0013fa70       ??_EagiGLViewport@@UAEPAXI@Z 00540a70 f i arts_agigl:glpipe.obj
 0001:0013fa70       ??_GagiGLViewport@@UAEPAXI@Z 00540a70 f i arts_agigl:glpipe.obj
 0001:0013faa0       ?BeginFrame@agiGLPipeline@@UAEXXZ 00540aa0 f   arts_agigl:glpipe.obj
 0001:0013fbb0       ?BeginGfx@agiGLPipeline@@UAEHXZ 00540bb0 f   arts_agigl:glpipe.obj
 0001:00140400       ?BeginScene@agiGLPipeline@@UAEXXZ 00541400 f   arts_agigl:glpipe.obj
 0001:00140450       ?ClearAll@agiGLPipeline@@UAEXH@Z 00541450 f   arts_agigl:glpipe.obj
 0001:001404d0       ?ClearRect@agiGLPipeline@@UAEXHHHHI@Z 005414d0 f   arts_agigl:glpipe.obj
 0001:00140800       ?CopyBitmap@agiGLPipeline@@UAEXHHPAVagiBitmap@@HHHH@Z 00541800 f   arts_agigl:glpipe.obj
 0001:00140c10       ?CreateBitmap@agiGLPipeline@@UAEPAVagiBitmap@@XZ 00541c10 f   arts_agigl:glpipe.obj
 0001:00140c40       ?CreateDLP@agiSDLSWPipeline@@UAEPAVDLP@@XZ 00541c40 f   arts_agisdl:sdlswpipe.obj
 0001:00140c40       ?CreateDLP@agiGLPipeline@@UAEPAVDLP@@XZ 00541c40 f   arts_agigl:glpipe.obj
 0001:00140c60       ?CreateLight@agiSDLSWPipeline@@UAEPAVagiLight@@XZ 00541c60 f   arts_agisdl:sdlswpipe.obj
 0001:00140c60       ?CreateLight@agiGLPipeline@@UAEPAVagiLight@@XZ 00541c60 f   arts_agigl:glpipe.obj
 0001:00140c80       ?CreateLightModel@agiGLPipeline@@UAEPAVagiLightModel@@XZ 00541c80 f   arts_agigl:glpipe.obj
 0001:00140c80       ?CreateLightModel@agiSDLSWPipeline@@UAEPAVagiLightModel@@XZ 00541c80 f   arts_agisdl:sdlswpipe.obj
 0001:00140ca0       ?CreateTexDef@agiGLPipeline@@UAEPAVagiTexDef@@XZ 00541ca0 f   arts_agigl:glpipe.obj
 0001:00140d00       ?CreateViewport@agiGLPipeline@@UAEPAVagiViewport@@XZ 00541d00 f   arts_agigl:glpipe.obj
 0001:00140d60       ?EndFrame@agiGLPipeline@@UAEXXZ 00541d60 f   arts_agigl:glpipe.obj
 0001:00140fb0       ?EndGfx@agiGLPipeline@@UAEXXZ 00541fb0 f   arts_agigl:glpipe.obj
 0001:001410e0       ?EndScene@agiGLPipeline@@UAEXXZ 005420e0 f   arts_agigl:glpipe.obj
 0001:00141120       ?glCreatePipeline@@YAPAVagiPipeline@@HPAPAD@Z 00542120 f   arts_agigl:glpipe.obj
 0001:00141310       ?BeginGfx@agiGLBitmap@@UAEHXZ 00542310 f   arts_agigl:glbitmap.obj
 0001:00141560       ?EndGfx@agiGLBitmap@@UAEXXZ 00542560 f   arts_agigl:glbitmap.obj
 0001:001415a0       ?UpdateFlags@agiGLBitmap@@UAEXXZ 005425a0 f   arts_agigl:glbitmap.obj
 0001:001415c0       ??0agiGLContext@@QAE@PAUSDL_Window@@PAUSDL_GLContextState@@H@Z 005425c0 f   arts_agigl:glcontext.obj
 0001:001416b0       ??1agiGLContext@@QAE@XZ    005426b0 f   arts_agigl:glcontext.obj
 0001:00141700       ?BindTextureUnit@agiGLContext@@QAEXIII@Z 00542700 f   arts_agigl:glcontext.obj
 0001:00141740       ?BlendFunc@agiGLContext@@QAEXII@Z 00542740 f   arts_agigl:glcontext.obj
 0001:00141770       ?CheckErrors@agiGLContext@@QAEX_N@Z 00542770 f   arts_agigl:glcontext.obj
 0001:00141840       ?DepthFunc@agiGLContext@@QAEXI@Z 00542840 f   arts_agigl:glcontext.obj
 0001:00141860       ?DepthMask@agiGLContext@@QAEX_N@Z 00542860 f   arts_agigl:glcontext.obj
 0001:00141880       ?EnableDisable@agiGLContext@@QAEXI_N@Z 00542880 f   arts_agigl:glcontext.obj
 0001:00141920       ?FrontFace@agiGLContext@@QAEXI@Z 00542920 f   arts_agigl:glcontext.obj
 0001:00141940       ?GetProc@agiGLContext@@SAPAXPBD@Z 00542940 f   arts_agigl:glcontext.obj
 0001:00141a60       ?InitState@agiGLContext@@AAEXXZ 00542a60 f   arts_agigl:glcontext.obj
 0001:00141c30       ?InitVersioning@agiGLContext@@AAEXXZ 00542c30 f   arts_agigl:glcontext.obj
 0001:00141f30       ?MakeCurrent@agiGLContext@@QAEXXZ 00542f30 f   arts_agigl:glcontext.obj
 0001:00141f70       ?PolygonMode@agiGLContext@@QAEXI@Z 00542f70 f   arts_agigl:glcontext.obj
 0001:00141f90       ___local_stdio_scanf_options 00542f90 f i arts_agigl:glcontext.obj
 0001:00141fa0       _sscanf_s                  00542fa0 f i arts_agigl:glcontext.obj
 0001:00141fd0       ??0agiGLRasterizer@@QAE@PAVagiPipeline@@@Z 00542fd0 f   arts_agigl:glrsys.obj
 0001:00142090       ??_EagiGLAMDPinnedStreamBuffer@@UAEPAXI@Z 00543090 f i arts_agigl:glrsys.obj
 0001:00142090       ??_GagiGLAMDPinnedStreamBuffer@@UAEPAXI@Z 00543090 f i arts_agigl:glrsys.obj
 0001:001420c0       ??_GagiGLBasicStreamBuffer@@UAEPAXI@Z 005430c0 f i arts_agigl:glrsys.obj
 0001:001420c0       ??_EagiGLBasicStreamBuffer@@UAEPAXI@Z 005430c0 f i arts_agigl:glrsys.obj
 0001:001420f0       ??_GagiGLMapRangeStreamBuffer@@UAEPAXI@Z 005430f0 f i arts_agigl:glrsys.obj
 0001:001420f0       ??_EagiGLMapRangeStreamBuffer@@UAEPAXI@Z 005430f0 f i arts_agigl:glrsys.obj
 0001:00142120       ??_EagiGLMappedRingStreamBuffer@@UAEPAXI@Z 00543120 f i arts_agigl:glstream.obj
 0001:00142120       ??_GagiGLMappedRingStreamBuffer@@UAEPAXI@Z 00543120 f i arts_agigl:glstream.obj
 0001:00142120       ??_GagiGLMapUnsafeStreamBuffer@@UAEPAXI@Z 00543120 f i arts_agigl:glrsys.obj
 0001:00142120       ??_EagiGLMapUnsafeStreamBuffer@@UAEPAXI@Z 00543120 f i arts_agigl:glrsys.obj
 0001:00142150       ??_GagiGLPersistentStreamBuffer@@UAEPAXI@Z 00543150 f i arts_agigl:glrsys.obj
 0001:00142150       ??_EagiGLPersistentStreamBuffer@@UAEPAXI@Z 00543150 f i arts_agigl:glrsys.obj
 0001:00142180       ??_GagiGLRasterizer@@UAEPAXI@Z 00543180 f i arts_agigl:glrsys.obj
 0001:00142180       ??_EagiGLRasterizer@@UAEPAXI@Z 00543180 f i arts_agigl:glrsys.obj
 0001:001421c0       ?BeginGfx@agiGLRasterizer@@UAEHXZ 005431c0 f   arts_agigl:glrsys.obj
 0001:001424d0       ?Card@agiGLRasterizer@@UAEXHH@Z 005434d0 f   arts_agigl:glrsys.obj
 0001:00142610       ?DrawMesh@agiGLRasterizer@@AAEXIPATagiVtx@@HPAGH@Z 00543610 f   arts_agigl:glrsys.obj
 0001:001428b0       ?EndGfx@agiGLRasterizer@@UAEXXZ 005438b0 f   arts_agigl:glrsys.obj
 0001:00142900       ?EndGroup@agiGLRasterizer@@UAEXXZ 00543900 f   arts_agigl:glrsys.obj
 0001:00142950       ?FlushState@agiGLRasterizer@@AAEXXZ 00543950 f   arts_agigl:glrsys.obj
 0001:00143240       ?ImmAddIndices@agiGLRasterizer@@AAEPAGIG@Z 00544240 f   arts_agigl:glrsys.obj
 0001:001432c0       ?InitModern@agiGLRasterizer@@AAEXXZ 005442c0 f   arts_agigl:glrsys.obj
 0001:00143820       ?Line@agiGLRasterizer@@UAEXHH@Z 00544820 f   arts_agigl:glrsys.obj
 0001:00143850       ?Mesh@agiGLRasterizer@@UAEXW4agiVtxType@@PATagiVtx@@HPAGH@Z 00544850 f   arts_agigl:glrsys.obj
 0001:001438a0       ?Points@agiGLRasterizer@@UAEXW4agiVtxType@@PATagiVtx@@H@Z 005448a0 f   arts_agigl:glrsys.obj
 0001:001438a0       ?Points@agiSWRasterizer@@UAEXW4agiVtxType@@PATagiVtx@@H@Z 005448a0 f   arts_agisw:swrsys.obj
 0001:001438a0       ?InitVScroll@UITextScroll@@QAEXMMM@Z 005448a0 f   arts_mmwidget:tscroll.obj
 0001:001438b0       ?SetVertCount@agiGLRasterizer@@UAEXH@Z 005448b0 f   arts_agigl:glrsys.obj
 0001:001438c0       ?Triangle@agiGLRasterizer@@UAEXHHH@Z 005448c0 f   arts_agigl:glrsys.obj
 0001:001438f0       ?Verts@agiGLRasterizer@@UAEXW4agiVtxType@@PATagiVtx@@H@Z 005448f0 f   arts_agigl:glrsys.obj
 0001:00143920       ?BeginGfx@agiGLTexDef@@UAEHXZ 00544920 f   arts_agigl:gltexdef.obj
 0001:00143fb0       ?EndGfx@agiGLTexDef@@UAEXXZ 00544fb0 f   arts_agigl:gltexdef.obj
 0001:00144040       ?GetHandle@agiGLTexDef@@QAEIXZ 00545040 f   arts_agigl:gltexdef.obj
 0001:00144190       ?IsAvailable@agiGLTexDef@@UAEHXZ 00545190 f   arts_agigl:gltexdef.obj
 0001:001441a0       ?Lock@agiGLTexDef@@UAEHAAUagiTexLock@@@Z 005451a0 f   arts_agigl:gltexdef.obj
 0001:00144270       ?Request@agiGLTexDef@@UAEXXZ 00545270 f   arts_agigl:gltexdef.obj
 0001:001443c0       ?Set@agiGLTexDef@@UAEXAAVVector2@@0@Z 005453c0 f   arts_agigl:gltexdef.obj
 0001:001443e0       ?SetFilters@agiGLTexDef@@QAEXII@Z 005453e0 f   arts_agigl:gltexdef.obj
 0001:00144450       ?Unlock@agiGLTexDef@@UAEXAAUagiTexLock@@@Z 00545450 f   arts_agigl:gltexdef.obj
 0001:00144490       ?Activate@agiGLViewport@@UAEXXZ 00545490 f   arts_agigl:glview.obj
 0001:001444c0       ?BeginGfx@agiGLViewport@@UAEHXZ 005454c0 f   arts_agigl:glview.obj
 0001:001444f0       ?Clear@agiGLViewport@@UAEXH@Z 005454f0 f   arts_agigl:glview.obj
 0001:001446e0       ?EndGfx@agiGLViewport@@UAEXXZ 005456e0 f   arts_agigl:glview.obj
 0001:001446f0       ?SetBackground@agiGLViewport@@UAEXAAVVector3@@@Z 005456f0 f   arts_agigl:glview.obj
 0001:00144710       ??0agiGLAMDPinnedStreamBuffer@@QAE@I@Z 00545710 f   arts_agigl:glstream.obj
 0001:00144780       ??0agiGLBasicStreamBuffer@@QAE@XZ 00545780 f   arts_agigl:glstream.obj
 0001:001447b0       ??0agiGLMapRangeStreamBuffer@@QAE@I@Z 005457b0 f   arts_agigl:glstream.obj
 0001:00144820       ??0agiGLMapUnsafeStreamBuffer@@QAE@I@Z 00545820 f   arts_agigl:glstream.obj
 0001:001448e0       ??0agiGLMappedRingStreamBuffer@@QAE@I@Z 005458e0 f   arts_agigl:glstream.obj
 0001:00144960       ??0agiGLPersistentStreamBuffer@@QAE@I_N@Z 00545960 f   arts_agigl:glstream.obj
 0001:001449e0       ??1agiGLAMDPinnedStreamBuffer@@UAE@XZ 005459e0 f   arts_agigl:glstream.obj
 0001:00144a60       ??1agiGLMappedRingStreamBuffer@@UAE@XZ 00545a60 f   arts_agigl:glstream.obj
 0001:00144ab0       ??1agiGLPersistentStreamBuffer@@UAE@XZ 00545ab0 f   arts_agigl:glstream.obj
 0001:00144ae0       ??1agiGLStreamBuffer@@UAE@XZ 00545ae0 f   arts_agigl:glstream.obj
 0001:00144b00       ??_EagiGLStreamBuffer@@UAEPAXI@Z 00545b00 f i arts_agigl:glstream.obj
 0001:00144b00       ??_GagiGLStreamBuffer@@UAEPAXI@Z 00545b00 f i arts_agigl:glstream.obj
 0001:00144b30       ?Discard@agiGLMappedRingStreamBuffer@@UAEXXZ 00545b30 f   arts_agigl:glstream.obj
 0001:00144b40       ?Map@agiGLMapRangeStreamBuffer@@UAEPAXII@Z 00545b40 f   arts_agigl:glstream.obj
 0001:00144b70       ?Map@agiGLMappedRingStreamBuffer@@UAEPAXII@Z 00545b70 f   arts_agigl:glstream.obj
 0001:00144bd0       ?UnlockRange@agiGLMappedRingStreamBuffer@@QAEXII_N@Z 00545bd0 f   arts_agigl:glstream.obj
 0001:00144c80       ?Unmap@agiGLMapRangeStreamBuffer@@UAEXII@Z 00545c80 f   arts_agigl:glstream.obj
 0001:00144c90       ?Highlight@mmCompBase@@UAEXPAVmmTextNode@@H@Z 00545c90 f   arts_mmwidget:compbase.obj
 0001:00144c90       ?Delete@StringType@@UAEXPAXH@Z 00545c90 f   arts_data7:metatype.obj
 0001:00144c90       ?AddToolTip@uiWidget@@QAEXPAVUIMenu@@PAULocString@@@Z 00545c90 f   arts_mmwidget:widget.obj
 0001:00144c90       ?EvalMouseXY@mmCompBase@@UAEXMM@Z 00545c90 f   arts_mmwidget:compbase.obj
 0001:00144c90       ?Impact@mmInstance@@UAEXPAV1@PAVVector3@@@Z 00545c90 f   arts_mmcity:inst.obj
 0001:00144c90       ?PlayHorn@aiVehicleSpline@@UAEXMM@Z 00545c90 f   arts_mmai:aiVehicleSpline.obj
 0001:00144c90       ?Delete@PtrToType@@UAEXPAXH@Z 00545c90 f   arts_data7:metatype.obj
 0001:00144c90       ?OpenWidgets@asNode@@UAEXPADPAVbkWindow@@@Z 00545c90 f   arts_arts7:node.obj
 0001:00144c90       ?WidgetSwitch@NetSelectMenu@@QAEXHH@Z 00545c90 f   arts_mmui:netselect.obj
 0001:00144c90       ?Delete@ConstStringType@@UAEXPAXH@Z 00545c90 f   arts_data7:metatype.obj
 0001:00144c90       ?Unmap@agiGLMappedRingStreamBuffer@@UAEXII@Z 00545c90 f   arts_agigl:glstream.obj
 0001:00144c90       ?Key@SMI@@UAEXHH@Z         00545c90 f   arts_arts7:midgets.obj
 0001:00144c90       ?SetPosition@uiWidget@@UAEXMM@Z 00545c90 f   arts_mmwidget:widget.obj
 0001:00144ca0       ?Unmap@agiGLPersistentStreamBuffer@@UAEXII@Z 00545ca0 f   arts_agigl:glstream.obj
 0001:00144cc0       ?Upload@agiGLBasicStreamBuffer@@UAEXPAPBXPBI1I@Z 00545cc0 f   arts_agigl:glstream.obj
 0001:00144d90       ?Upload@agiGLMappedStreamBuffer@@UAEXPAPBXPBI1I@Z 00545d90 f   arts_agigl:glstream.obj
 0001:00144e70       ??_GagiSDLBitmap@@UAEPAXI@Z 00545e70 f i arts_agisdl:sdlswpipe.obj
 0001:00144e70       ??_EagiSDLBitmap@@UAEPAXI@Z 00545e70 f i arts_agisdl:sdlswpipe.obj
 0001:00144ec0       ??_EagiSDLSWPipeline@@UAEPAXI@Z 00545ec0 f i arts_agisdl:sdlswpipe.obj
 0001:00144ec0       ??_GagiSDLSWPipeline@@UAEPAXI@Z 00545ec0 f i arts_agisdl:sdlswpipe.obj
 0001:00144ef0       ??_EagiSDLViewport@@UAEPAXI@Z 00545ef0 f i arts_agisdl:sdlswpipe.obj
 0001:00144ef0       ??_GagiSDLViewport@@UAEPAXI@Z 00545ef0 f i arts_agisdl:sdlswpipe.obj
 0001:00144f20       ??_GagiSWTexDef@@UAEPAXI@Z 00545f20 f i arts_agisdl:sdlswpipe.obj
 0001:00144f20       ??_EagiSWTexDef@@UAEPAXI@Z 00545f20 f i arts_agisdl:sdlswpipe.obj
 0001:00144f70       ??_GagiSWTexLut@@UAEPAXI@Z 00545f70 f i arts_agisdl:sdlswpipe.obj
 0001:00144f70       ??_EagiSWTexLut@@UAEPAXI@Z 00545f70 f i arts_agisdl:sdlswpipe.obj
 0001:00144fb0       ?Activate@agiSDLViewport@@UAEXXZ 00545fb0 f i arts_agisdl:sdlswpipe.obj
 0001:00144fd0       ?BeginFrame@agiSDLSWPipeline@@UAEXXZ 00545fd0 f   arts_agisdl:sdlswpipe.obj
 0001:00145020       ?BeginGfx@agiSDLBitmap@@UAEHXZ 00546020 f i arts_agisdl:sdlswpipe.obj
 0001:001451b0       ?BeginGfx@agiSDLSWPipeline@@UAEHXZ 005461b0 f   arts_agisdl:sdlswpipe.obj
 0001:00145580       ?BeginScene@agiSDLSWPipeline@@UAEXXZ 00546580 f   arts_agisdl:sdlswpipe.obj
 0001:001455f0       ?Clear@agiSDLViewport@@UAEXH@Z 005465f0 f i arts_agisdl:sdlswpipe.obj
 0001:001457d0       ?ClearAll@agiSDLSWPipeline@@UAEXH@Z 005467d0 f   arts_agisdl:sdlswpipe.obj
 0001:001457f0       ?ClearRect@agiSDLSWPipeline@@UAEXHHHHI@Z 005467f0 f   arts_agisdl:sdlswpipe.obj
 0001:00145840       ?CopyBitmap@agiSDLSWPipeline@@UAEXHHPAVagiBitmap@@HHHH@Z 00546840 f   arts_agisdl:sdlswpipe.obj
 0001:00145970       ?CreateBitmap@agiSDLSWPipeline@@UAEPAVagiBitmap@@XZ 00546970 f   arts_agisdl:sdlswpipe.obj
 0001:001459a0       ?CreateTexDef@agiSDLSWPipeline@@UAEPAVagiTexDef@@XZ 005469a0 f   arts_agisdl:sdlswpipe.obj
 0001:00145a00       ?CreateTexLut@agiSDLSWPipeline@@UAEPAVagiTexLut@@XZ 00546a00 f   arts_agisdl:sdlswpipe.obj
 0001:00145a30       ?CreateViewport@agiSDLSWPipeline@@UAEPAVagiViewport@@XZ 00546a30 f   arts_agisdl:sdlswpipe.obj
 0001:00145a60       ?EndFrame@agiSDLSWPipeline@@UAEXXZ 00546a60 f   arts_agisdl:sdlswpipe.obj
 0001:00145bc0       ?EndGfx@agiSDLBitmap@@UAEXXZ 00546bc0 f i arts_agisdl:sdlswpipe.obj
 0001:00145bf0       ?EndGfx@agiSDLSWPipeline@@UAEXXZ 00546bf0 f   arts_agisdl:sdlswpipe.obj
 0001:00145c80       ?EndScene@agiSDLSWPipeline@@UAEXXZ 00546c80 f   arts_agisdl:sdlswpipe.obj
 0001:00145d20       ?Restore@agiSDLBitmap@@UAEXXZ 00546d20 f i arts_agisdl:sdlswpipe.obj
 0001:00145d50       ?SetBackground@agiSDLViewport@@UAEXAAVVector3@@@Z 00546d50 f i arts_agisdl:sdlswpipe.obj
 0001:00145d80       ?UpdateFlags@agiSDLBitmap@@UAEXXZ 00546d80 f i arts_agisdl:sdlswpipe.obj
 0001:00145da0       ?sdlCreatePipeline@@YAPAVagiPipeline@@HPAPAD@Z 00546da0 f   arts_agisdl:sdlswpipe.obj
 0001:00145f80       ?BeginGfx@agiSDLPipeline@@UAEHXZ 00546f80 f   arts_agisdl:sdlpipe.obj
 0001:001460b0       ?InitScaling@agiSDLPipeline@@IAEXXZ 005470b0 f   arts_agisdl:sdlpipe.obj
 0001:001461d0       ?swKill@@YAXXZ             005471d0 f   arts_agisw:swrend.obj
 0001:00146210       ?swLine@@YAXPAUagiScreenVtx@@0@Z 00547210 f   arts_agisw:swrend.obj
 0001:001462e0       ?Line@agiSWRasterizer@@UAEXHH@Z 005472e0 f   arts_agisw:swrsys.obj
 0001:00146310       ?Mesh@agiSWRasterizer@@UAEXW4agiVtxType@@PATagiVtx@@HPAGH@Z 00547310 f   arts_agisw:swrsys.obj
 0001:001463b0       ?BeginGfx@agiSWTexDef@@UAEHXZ 005473b0 f   arts_agisw:swtexdef.obj
 0001:001464e0       ?EndGfx@agiSWTexDef@@UAEXXZ 005474e0 f   arts_agisw:swtexdef.obj
 0001:00146580       ?FixTexFlags@@YAXAAVagiTexParameters@@@Z 00547580 f   arts_agiworld:getmesh.obj
 0001:001467b0       ?agiMeshLighterTriple@@YAXPIAEPIAI1PAVagiMeshSet@@@Z 005477b0 f   arts_agiworld:meshlight.obj
 0001:00146a00       ??$ReadMapped@VVector3@@@Stream@@QAEPAVVector3@@H@Z 00547a00 f i arts_agiworld:meshload.obj
 0001:00146ab0       ?BinaryLoad@agiMeshSet@@QAEXPAVStream@@@Z 00547ab0 f   arts_agiworld:meshload.obj
 0001:00147090       ?DoPageIn@agiMeshSet@@AAEXXZ 00548090 f   arts_agiworld:meshload.obj
 0001:001474c0       ?PageOutCallback@agiMeshSet@@CAXPAXH@Z 005484c0 f   arts_agiworld:meshload.obj
 0001:00147960       ?ClipTri@agiMeshSet@@IAEXHHHH@Z 00548960 f   arts_agiworld:meshrend.obj
 0001:00147ca0       ?Draw@agiMeshSet@@QAEHI@Z  00548ca0 f   arts_agiworld:meshrend.obj
 0001:00147dc0       ?DrawCard@agiMeshSet@@SAXAAVVector3@@MIII@Z 00548dc0 f   arts_agiworld:meshrend.obj
 0001:001487b0       ?DrawColor@agiMeshSet@@QAEHII@Z 005497b0 f   arts_agiworld:meshrend.obj
 0001:00148900       ?DrawLines@agiMeshSet@@SAXPAVVector3@@0PAIH@Z 00549900 f   arts_agiworld:meshrend.obj
 0001:00148db0       ?DrawLit@agiMeshSet@@QAEHP6AXPAEPAI1PAV1@@ZI1@Z 00549db0 f   arts_agiworld:meshrend.obj
 0001:00148f00       ?DrawLitEnv@agiMeshSet@@QAEXP6AXPAEPAI1PAV1@@ZPAVagiTexDef@@AAVMatrix34@@I@Z 00549f00 f   arts_agiworld:meshrend.obj
 0001:00148ff0       ?DrawNormals@agiMeshSet@@QAEXAAVVector3@@@Z 00549ff0 f   arts_agiworld:meshrend.obj
 0001:001490e0       ?DrawShadow@agiMeshSet@@QAEXIABVVector4@@ABVVector3@@@Z 0054a0e0 f   arts_agiworld:meshrend.obj
 0001:00149180       ?DrawWideLines@agiMeshSet@@SAXPAVVector3@@0PAMPAIH@Z 0054a180 f   arts_agiworld:meshrend.obj
 0001:00149970       ?FirstPass@agiMeshSet@@QAEXPAIPAVVector2@@I@Z 0054a970 f   arts_agiworld:meshrend.obj
 0001:0014a120       ?Geometry@agiMeshSet@@QAEHIPAVVector3@@PAVVector4@@@Z 0054b120 f   arts_agiworld:meshrend.obj
 0001:0014a630       ?InitViewport@agiMeshSet@@KIXAAVagiViewParameters@@@Z 0054b630 f   arts_agiworld:meshrend.obj
 0001:0014a870       ?SetFog@agiMeshSet@@SAXMH@Z 0054b870 f   arts_agiworld:meshrend.obj
 0001:0014a8a0       ?ShadowGeometry@agiMeshSet@@QAEHIPAVVector3@@ABVVector4@@ABV2@@Z 0054b8a0 f   arts_agiworld:meshrend.obj
 0001:0014acb0       ?ShadowTransform@agiMeshSet@@KIXPIAVVector4@@PIAVVector3@@H@Z 0054bcb0 f   arts_agiworld:meshrend.obj
 0001:0014b370       ?ShadowTransformOutcode@agiMeshSet@@KIIPIAEPIAVVector4@@PIAVVector3@@H@Z 0054c370 f   arts_agiworld:meshrend.obj
 0001:0014b770       ?BinarySave@agiMeshSet@@QAEXPAVStream@@@Z 0054c770 f   arts_agiworld:meshsave.obj
 0001:0014b960       ??0agiMeshSet@@QAE@XZ      0054c960 f   arts_agiworld:meshset.obj
 0001:0014ba20       ??1agiMeshSet@@QAE@XZ      0054ca20 f   arts_agiworld:meshset.obj
 0001:0014baa0       ?ComputePlaneEquations@agiMeshSet@@QAEXXZ 0054caa0 f   arts_agiworld:meshset.obj
 0001:0014bd90       ?GetBaseCacheSize@agiMeshSet@@ABEIXZ 0054cd90 f   arts_agiworld:meshset.obj
 0001:0014be30       ?IsFullyResident@agiMeshSet@@QAEHH@Z 0054ce30 f   arts_agiworld:meshset.obj
 0001:0014bec0       ?LockIfResident@agiMeshSet@@QAEHXZ 0054cec0 f   arts_agiworld:meshset.obj
 0001:0014bef0       ?MakeResident@agiMeshSet@@QAEXXZ 0054cef0 f   arts_agiworld:meshset.obj
 0001:0014bf50       ?Offset@agiMeshSet@@QAEXVVector3@@@Z 0054cf50 f   arts_agiworld:meshset.obj
 0001:0014bfb0       ?PageIn@agiMeshSet@@QAEXXZ 0054cfb0 f   arts_agiworld:meshset.obj
 0001:0014bfe0       ?Unlock@agiMeshSet@@QAEXXZ 0054cfe0 f   arts_agiworld:meshset.obj
 0001:0014c000       ?UnlockAndFree@agiMeshSet@@QAEXXZ 0054d000 f   arts_agiworld:meshset.obj
 0001:0014c020       ?ToScreen@agiMeshSet@@KIXPIAEPIAVVector4@@H@Z 0054d020 f   arts_agiworld:mrkni.obj
 0001:0014c390       ?Transform@agiMeshSet@@KIXPIAVVector4@@PIAVVector3@@H@Z 0054d390 f   arts_agiworld:mrkni.obj
 0001:0014c4f0       ?TransformOutcode@agiMeshSet@@KIIPIAEPIAVVector4@@PIAVVector3@@H@Z 0054d4f0 f   arts_agiworld:mrkni.obj
 0001:0014c720       ?agiBlendColors@@YAXPIAI0HI@Z 0054d720 f   arts_agiworld:mrkni.obj
 0001:0014cb20       ??0agiPolySet@@QAE@HH@Z    0054db20 f   arts_agiworld:texsort.obj
 0001:0014cbc0       ??0agiTexSorter@@QAE@XZ    0054dbc0 f   arts_agiworld:texsort.obj
 0001:0014cd50       ??1agiTexSorter@@QAE@XZ    0054dd50 f   arts_agiworld:texsort.obj
 0001:0014ceb0       ?AddWidgets@agiTexSorter@@QAEXPAVBank@@@Z 0054deb0 f   arts_agiworld:texsort.obj
 0001:0014cf40       ?BeginVerts@agiTexSorter@@SAPAVagiPolySet@@PAVagiTexDef@@HH@Z 0054df40 f   arts_agiworld:texsort.obj
 0001:0014d180       ?Cull@agiTexSorter@@QAEXH@Z 0054e180 f   arts_agiworld:texsort.obj
 0001:0014d250       ?EndVerts@agiTexSorter@@SAXXZ 0054e250 f   arts_agiworld:texsort.obj
 0001:0014d290       ?GetEnv@agiTexSorter@@SAPAVagiPolySet@@PAVagiTexDef@@HH@Z 0054e290 f   arts_agiworld:texsort.obj
 0001:0014d370       ?GetPackedTexture@@YAPAVagiTexDef@@PADH@Z 0054e370 f   arts_agiworld:texsort.obj
 0001:0014d570       ?DrawBegin@asCamera@@QAEXXZ 0054e570 f   arts_arts7:camera.obj
 0001:0014d780       ?SetView@asCamera@@QAEXMMMM@Z 0054e780 f   arts_arts7:camera.obj
 0001:0014d880       ??$GetMetaClass@VasCullable@@@@YAPAVMetaClass@@XZ 0054e880 f   arts_arts7:cullable.obj
 0001:0014d880       ?GetClass@asCullable@@UAEPAVMetaClass@@XZ 0054e880 f   arts_arts7:cullable.obj
 0001:0014d890       ??$MetaDeclareFields@VasSimulation@@@@YAXXZ 0054e890 f i arts_arts7:sim.obj
 0001:0014d890       ??$MetaDeclareFields@VasRenderWeb@@@@YAXXZ 0054e890 f i arts_mmcity:renderweb.obj
 0001:0014d890       ??$MetaDeclareFields@VmmInfoBase@@@@YAXXZ 0054e890 f i arts_mmcityinfo:infobase.obj
 0001:0014d890       ??$MetaDeclareFields@VasCullable@@@@YAXXZ 0054e890 f i arts_arts7:cullable.obj
 0001:0014d890       ??$MetaDeclareFields@VmmNumber@@@@YAXXZ 0054e890 f i arts_mmeffects:mmnumber.obj
 0001:0014d890       ??$MetaDeclareFields@VBase@@@@YAXXZ 0054e890 f i arts_data7:base.obj
 0001:0014d890       ??$MetaDeclareFields@VasParticles@@@@YAXXZ 0054e890 f i arts_mmeffects:ptx.obj
 0001:0014d890       ??$MetaDeclareFields@VasCullManager@@@@YAXXZ 0054e890 f i arts_arts7:cullmgr.obj
 0001:0014d890       ??$MetaDeclareFields@VmmAxle@@@@YAXXZ 0054e890 f i arts_mmcar:axle.obj
 0001:0014d890       ??$MetaDeclareFields@VasPortalWeb@@@@YAXXZ 0054e890 f i arts_mmcity:portal.obj
 0001:0014d890       ??$MetaDeclareFields@VmmDropDown@@@@YAXXZ 0054e890 f i arts_mmwidget:dropdown.obj
 0001:0014d8c0       ??$MetaDelete@VasCullable@@@@YAXPAXH@Z 0054e8c0 f i arts_arts7:cullable.obj
 0001:0014d8f0       ??$MetaDelete@VasCullManager@@@@YAXPAXH@Z 0054e8f0 f i arts_arts7:cullmgr.obj
 0001:0014d980       ??0asCullManager@@QAE@HH@Z 0054e980 f   arts_arts7:cullmgr.obj
 0001:0014ddb0       ??1asCullManager@@UAE@XZ   0054edb0 f   arts_arts7:cullmgr.obj
 0001:0014de30       ??_EasCullManager@@UAEPAXI@Z 0054ee30 f i arts_arts7:cullmgr.obj
 0001:0014dec0       ?AddPage@asCullManager@@QAEXVCallback@@@Z 0054eec0 f   arts_arts7:cullmgr.obj
 0001:0014df00       ?DeclareBitmap@asCullManager@@QAEXPAVasCullable@@PAVagiBitmap@@@Z 0054ef00 f   arts_arts7:cullmgr.obj
 0001:0014dfb0       ?DeclareCamera@asCullManager@@UAEXPAVasCamera@@@Z 0054efb0 f   arts_arts7:cullmgr.obj
 0001:0014e010       ?DeclareCullable2D@asCullManager@@UAEXPAVasCullable@@@Z 0054f010 f   arts_arts7:cullmgr.obj
 0001:0014e0a0       ?DeclareCullable@asCullManager@@UAEXPAVasCullable@@@Z 0054f0a0 f   arts_arts7:cullmgr.obj
 0001:0014e140       ?DeclarePrint@asCullManager@@QAEXPAVasCullable@@@Z 0054f140 f   arts_arts7:cullmgr.obj
 0001:0014e180       ?GetClass@asCullManager@@UAEPAVMetaClass@@XZ 0054f180 f   arts_arts7:cullmgr.obj
 0001:0014e190       ?Invoke@?$CallbackInvoker@P6AXXZX@@SIXPAX0@Z 0054f190 f i arts_arts7:cullmgr.obj
 0001:0014e5f0       ?PrintMiniStats@asCullManager@@IAEXXZ 0054f5f0 f   arts_arts7:cullmgr.obj
 0001:0014ec40       ?Reset@asCullManager@@UAEXXZ 0054fc40 f   arts_arts7:cullmgr.obj
 0001:0014ecb0       ?Statsf@@YAXPBDZZ          0054fcb0 f   arts_arts7:cullmgr.obj
 0001:0014ed80       ?Update@asCullManager@@UAEXXZ 0054fd80 f   arts_arts7:cullmgr.obj
 0001:0014f0d0       ??1asLamp@@UAE@XZ          005500d0 f   arts_arts7:lamp.obj
 0001:0014f100       ??_EasLamp@@UAEPAXI@Z      00550100 f i arts_arts7:lamp.obj
 0001:0014f1d0       ??$GetMetaClass@VasLinearCS@@@@YAPAVMetaClass@@XZ 005501d0 f   arts_arts7:linear.obj
 0001:0014f1d0       ?GetClass@asLinearCS@@UAEPAVMetaClass@@XZ 005501d0 f   arts_arts7:linear.obj
 0001:0014f1e0       ??$MetaDeclareFields@VasLinearCS@@@@YAXXZ 005501e0 f i arts_arts7:linear.obj
 0001:0014f260       ??$MetaDelete@VasLinearCS@@@@YAXPAXH@Z 00550260 f i arts_arts7:linear.obj
 0001:0014f260       ??$MetaDelete@VasNode@@@@YAXPAXH@Z 00550260 f i arts_arts7:node.obj
 0001:0014f260       ??$MetaDelete@VmmInfoBase@@@@YAXPAXH@Z 00550260 f i arts_mmcityinfo:infobase.obj
 0001:0014f2a0       ??$MetaNew@VasLinearCS@@@@YAPAXH@Z 005502a0 f i arts_arts7:linear.obj
 0001:0014f310       ??0asLinearCS@@QAE@XZ      00550310 f   arts_arts7:linear.obj
 0001:0014f3b0       ??_EasLinearCS@@UAEPAXI@Z  005503b0 f i arts_arts7:linear.obj
 0001:0014f440       ?AddWidgets@asLinearCS@@UAEXPAVBank@@@Z 00550440 f   arts_arts7:linear.obj
 0001:0014f5c0       ?Cull@asLinearCS@@UAEXXZ   005505c0 f   arts_arts7:linear.obj
 0001:0014f650       ?Update@asLinearCS@@UAEXXZ 00550650 f   arts_arts7:linear.obj
 0001:0014f740       ??$GetMetaClass@VasNode@@@@YAPAVMetaClass@@XZ 00550740 f   arts_arts7:node.obj
 0001:0014f740       ?GetClass@asNode@@UAEPAVMetaClass@@XZ 00550740 f   arts_arts7:node.obj
 0001:0014f750       ??$MetaDeclareFields@VasNode@@@@YAXXZ 00550750 f i arts_arts7:node.obj
 0001:0014f800       ??$MetaNew@VasNode@@@@YAPAXH@Z 00550800 f i arts_arts7:node.obj
 0001:0014f8e0       ??0?$CStringBuffer@$0IA@@@QAA@Varts_format_t@@PBDZZ 005508e0 f i arts_arts7:node.obj
 0001:0014f910       ??1asNode@@UAE@XZ          00550910 f   arts_arts7:node.obj
 0001:0014f950       ?AddChild@asNode@@QAEHPAV1@@Z 00550950 f   arts_arts7:node.obj
 0001:0014f9c0       ?AddWidgets@asNode@@UAEXPAVBank@@@Z 005509c0 f   arts_arts7:node.obj
 0001:0014fa50       ?AdoptChild@asNode@@QAEXV?$unique_ptr@VasNode@@U?$default_delete@VasNode@@@std@@@std@@@Z 00550a50 f   arts_arts7:node.obj
 0001:0014fad0       ?CloseWidgets@asNode@@UAEXXZ 00550ad0 f   arts_arts7:node.obj
 0001:0014fae0       ?GetTypeNameV@Base@@UAEPBDXZ 00550ae0 f   arts_data7:base.obj
 0001:0014fae0       ?GetNodeType@asNode@@QAEPBDXZ 00550ae0 f   arts_arts7:node.obj
 0001:0014faf0       ?InsertChild@asNode@@QAEHHPAV1@@Z 00550af0 f   arts_arts7:node.obj
 0001:0014fb80       ?Load@asNode@@QAEHPBD@Z    00550b80 f   arts_arts7:node.obj
 0001:0014fc30       ?Load@asNode@@UAEXXZ       00550c30 f   arts_arts7:node.obj
 0001:0014fe40       ?PerfReport@asNode@@QAEXPAVStream@@H@Z 00550e40 f   arts_arts7:node.obj
 0001:0014ff10       ?RemoveAllChildren@asNode@@QAEXXZ 00550f10 f   arts_arts7:node.obj
 0001:0014ff50       ?RemoveChild@asNode@@QAEHPAV1@@Z 00550f50 f   arts_arts7:node.obj
 0001:0014ff90       ?ResChange@asNode@@UAEXHH@Z 00550f90 f   arts_arts7:node.obj
 0001:0014ffc0       ?Reset@asNode@@UAEXXZ      00550fc0 f   arts_arts7:node.obj
 0001:0014ffe0       ?ResetTime@asNode@@QAEXXZ  00550fe0 f   arts_arts7:node.obj
 0001:00150000       ?Save@asNode@@UAEXXZ       00551000 f   arts_arts7:node.obj
 0001:00150200       ?SetName@asNode@@QAEXPBD@Z 00551200 f   arts_arts7:node.obj
 0001:00150240       ?Update@asNode@@UAEXXZ     00551240 f   arts_arts7:node.obj
 0001:00150320       ?DoPlayback@artsReplayChannel@@UAEXPAVStream@@@Z 00551320 f i arts_arts7:sim.obj
 0001:00150380       ?DoRecord@artsReplayChannel@@UAEXPAVStream@@@Z 00551380 f i arts_arts7:sim.obj
 0001:001503c0       ??$Get@M@Stream@@QAEMXZ    005513c0 f i arts_arts7:sim.obj
 0001:00150400       ??$MetaDelete@VasSimulation@@@@YAXPAXH@Z 00551400 f i arts_arts7:sim.obj
 0001:00150490       ??$MetaNew@VasSimulation@@@@YAPAXH@Z 00551490 f i arts_arts7:sim.obj
 0001:00150500       ??$sprintf_s@$0EAA@@@YAHAAY0EAA@DPBDZZ 00551500 f i arts_arts7:sim.obj
 0001:00150530       ??0asSimulation@@QAE@XZ    00551530 f   arts_arts7:sim.obj
 0001:00150990       ??1asSimulation@@UAE@XZ    00551990 f   arts_arts7:sim.obj
 0001:00150b60       ??_EasSimulation@@UAEPAXI@Z 00551b60 f i arts_arts7:sim.obj
 0001:00150bf0       ??_EVirtualFileSystem@@UAEPAXI@Z 00551bf0 f i arts_arts7:sim.obj
 0001:00150bf0       ??_GVirtualFileSystem@@UAEPAXI@Z 00551bf0 f i arts_arts7:sim.obj
 0001:00150c20       ??_EasMidgets@@UAEPAXI@Z   00551c20 f i arts_arts7:sim.obj
 0001:00150c20       ??_GasMidgets@@UAEPAXI@Z   00551c20 f i arts_arts7:sim.obj
 0001:00150c60       ?AddWidgets@asSimulation@@UAEXPAVBank@@@Z 00551c60 f   arts_arts7:sim.obj
 0001:00151050       ?BeginOverSample@asSimulation@@QAEXH@Z 00552050 f   arts_arts7:sim.obj
 0001:00151090       ?Cull@asSimulation@@UAEXXZ 00552090 f   arts_arts7:sim.obj
 0001:00151120       ?DeclareVector@asSimulation@@QAEXPBVVector3@@00@Z 00552120 f   arts_arts7:sim.obj
 0001:001511b0       ?Device@asSimulation@@QAEXXZ 005521b0 f   arts_arts7:sim.obj
 0001:00151750       ?EndOverSample@asSimulation@@QAEXH@Z 00552750 f   arts_arts7:sim.obj
 0001:00151790       ?GetClass@asSimulation@@UAEPAVMetaClass@@XZ 00552790 f   arts_arts7:sim.obj
 0001:001517a0       ?Init@asSimulation@@QAEXPADHPAPAD@Z 005527a0 f   arts_arts7:sim.obj
 0001:00151d30       ?InitPipeline@@YAHPBDHPAPAD@Z 00552d30 f   arts_arts7:sim.obj
 0001:00151f00       ?Reset@asSimulation@@UAEXXZ 00552f00 f   arts_arts7:sim.obj
 0001:00151f10       ?ResetClock@asSimulation@@QAEXXZ 00552f10 f   arts_arts7:sim.obj
 0001:00152030       ?ShutdownPipeline@@YAXXZ   00553030 f   arts_arts7:sim.obj
 0001:001520b0       ?Simulate@asSimulation@@QAEXXZ 005530b0 f   arts_arts7:sim.obj
 0001:00152140       ?Update@asSimulation@@UAEXXZ 00553140 f   arts_arts7:sim.obj
 0001:001525a0       ?UpdatePaused@asSimulation@@QAEXPAVasNode@@@Z 005535a0 f   arts_arts7:sim.obj
 0001:001525f0       ?VerifyTree@asNode@@QAEPBDXZ 005535f0 f   arts_arts7:sim.obj
 0001:001526b0       ?Widgets@asSimulation@@QAEXXZ 005536b0 f   arts_arts7:sim.obj
 0001:001527a0       ??0asMidgets@@QAE@XZ       005537a0 f   arts_arts7:midgets.obj
 0001:00152830       ??1asMidgets@@UAE@XZ       00553830 f   arts_arts7:midgets.obj
 0001:00152859       ??_EasMidgets@@W3AEPAXI@Z  00553859 f i arts_arts7:midgets.obj
 0001:00152870       ??_EBMI@@UAEPAXI@Z         00553870 f i arts_arts7:midgets.obj
 0001:00152870       ??_GBMI@@UAEPAXI@Z         00553870 f i arts_arts7:midgets.obj
 0001:001528a0       ??_GMI@@UAEPAXI@Z          005538a0 f i arts_arts7:midgets.obj
 0001:001528a0       ??_GSMI@@UAEPAXI@Z         005538a0 f i arts_arts7:midgets.obj
 0001:001528a0       ??_EMI@@UAEPAXI@Z          005538a0 f i arts_arts7:midgets.obj
 0001:001528a0       ??_ESMI@@UAEPAXI@Z         005538a0 f i arts_arts7:midgets.obj
 0001:001528d0       ??_GSBMI@@UAEPAXI@Z        005538d0 f i arts_arts7:midgets.obj
 0001:001528d0       ??_ESBMI@@UAEPAXI@Z        005538d0 f i arts_arts7:midgets.obj
 0001:00152900       ??_EushortMI@@UAEPAXI@Z    00553900 f i arts_arts7:midgets.obj
 0001:00152900       ??_GscharMI@@UAEPAXI@Z     00553900 f i arts_arts7:midgets.obj
 0001:00152900       ??_EucharMI@@UAEPAXI@Z     00553900 f i arts_arts7:midgets.obj
 0001:00152900       ??_GshortMI@@UAEPAXI@Z     00553900 f i arts_arts7:midgets.obj
 0001:00152900       ??_GTMI@@UAEPAXI@Z         00553900 f i arts_arts7:midgets.obj
 0001:00152900       ??_GucharMI@@UAEPAXI@Z     00553900 f i arts_arts7:midgets.obj
 0001:00152900       ??_ETMI@@UAEPAXI@Z         00553900 f i arts_arts7:midgets.obj
 0001:00152900       ??_EshortMI@@UAEPAXI@Z     00553900 f i arts_arts7:midgets.obj
 0001:00152900       ??_EscharMI@@UAEPAXI@Z     00553900 f i arts_arts7:midgets.obj
 0001:00152900       ??_GushortMI@@UAEPAXI@Z    00553900 f i arts_arts7:midgets.obj
 0001:00152930       ??_GintMI@@UAEPAXI@Z       00553930 f i arts_arts7:midgets.obj
 0001:00152930       ??_EintMI@@UAEPAXI@Z       00553930 f i arts_arts7:midgets.obj
 0001:00152930       ??_GuintMI@@UAEPAXI@Z      00553930 f i arts_arts7:midgets.obj
 0001:00152930       ??_EfloatMI@@UAEPAXI@Z     00553930 f i arts_arts7:midgets.obj
 0001:00152930       ??_GfloatMI@@UAEPAXI@Z     00553930 f i arts_arts7:midgets.obj
 0001:00152930       ??_EuintMI@@UAEPAXI@Z      00553930 f i arts_arts7:midgets.obj
 0001:00152960       ?AddButton@asMidgets@@UAEPAVbkButton@@PBDVCallback@@@Z 00553960 f   arts_arts7:midgets.obj
 0001:001529d0       ?AddColor@asMidgets@@UAEXPBDPAVVector3@@VCallback@@@Z 005539d0 f   arts_arts7:midgets.obj
 0001:00152b10       ?AddColor@asMidgets@@UAEXPBDPAVVector4@@VCallback@@@Z 00553b10 f   arts_arts7:midgets.obj
 0001:00152cb0       ?AddFileButton@asMidgets@@UAEXPBDVCallback@@@Z 00553cb0 f   arts_arts7:midgets.obj
 0001:00152ce0       ?AddMex@asMidgets@@UAEPAVbkButton@@PBDPAHHVCallback@@@Z 00553ce0 f   arts_arts7:midgets.obj
 0001:00152d60       ?AddSlider@asMidgets@@UAEPAVbkSlider@@PBDPADDDMVCallback@@@Z 00553d60 f   arts_arts7:midgets.obj
 0001:00152df0       ?AddSlider@asMidgets@@UAEPAVbkSlider@@PBDPAEEEMVCallback@@@Z 00553df0 f   arts_arts7:midgets.obj
 0001:00152e80       ?AddSlider@asMidgets@@UAEPAVbkSlider@@PBDPAFFFMVCallback@@@Z 00553e80 f   arts_arts7:midgets.obj
 0001:00152f10       ?AddSlider@asMidgets@@UAEPAVbkSlider@@PBDPAGGGMVCallback@@@Z 00553f10 f   arts_arts7:midgets.obj
 0001:00152fa0       ?AddSlider@asMidgets@@UAEPAVbkSlider@@PBDPAHHHMVCallback@@@Z 00553fa0 f   arts_arts7:midgets.obj
 0001:00153030       ?AddSlider@asMidgets@@UAEPAVbkSlider@@PBDPAIIIMVCallback@@@Z 00554030 f   arts_arts7:midgets.obj
 0001:001530c0       ?AddSlider@asMidgets@@UAEPAVbkSlider@@PBDPAMMMMVCallback@@@Z 005540c0 f   arts_arts7:midgets.obj
 0001:00153150       ?AddText@asMidgets@@UAEPAVbkButton@@PBDVCallback@@@Z 00554150 f   arts_arts7:midgets.obj
 0001:00153170       ?AddText@asMidgets@@UAEPAVbkButton@@VCallback@@@Z 00554170 f   arts_arts7:midgets.obj
 0001:00153190       ?AddTextSlider@asMidgets@@UAEPAVbkSlider@@PBD0PAHMVCallback@@@Z 00554190 f   arts_arts7:midgets.obj
 0001:001531c0       ?AddTitle@asMidgets@@UAEPAVbkWindow@@PBD@Z 005541c0 f   arts_arts7:midgets.obj
 0001:00153220       ?AddToggle@asMidgets@@UAEPAVbkButton@@PBDPAHHVCallback@@@Z 00554220 f   arts_arts7:midgets.obj
 0001:001532a0       ?AddVector@asMidgets@@UAEXPBDPAVVector2@@MMMVCallback@@@Z 005542a0 f   arts_arts7:midgets.obj
 0001:001533a0       ?AddVector@asMidgets@@UAEXPBDPAVVector3@@MMMVCallback@@@Z 005543a0 f   arts_arts7:midgets.obj
 0001:00153500       ?AddVector@asMidgets@@UAEXPBDPAVVector4@@MMMVCallback@@@Z 00554500 f   arts_arts7:midgets.obj
 0001:001536c0       ?Cull@asMidgets@@UAEXXZ    005546c0 f   arts_arts7:midgets.obj
 0001:00153890       ?IndexAfter@asMidgets@@AAEHHH@Z 00554890 f   arts_arts7:midgets.obj
 0001:001538d0       ?IndexBefore@asMidgets@@AAEHHH@Z 005548d0 f   arts_arts7:midgets.obj
 0001:00153990       ?Key@?$sliderMI@D@@UAEXHH@Z 00554990 f i arts_arts7:midgets.obj
 0001:00153a50       ?Key@?$sliderMI@E@@UAEXHH@Z 00554a50 f i arts_arts7:midgets.obj
 0001:00153b10       ?Key@?$sliderMI@F@@UAEXHH@Z 00554b10 f i arts_arts7:midgets.obj
 0001:00153bd0       ?Key@?$sliderMI@G@@UAEXHH@Z 00554bd0 f i arts_arts7:midgets.obj
 0001:00153c90       ?Key@?$sliderMI@H@@UAEXHH@Z 00554c90 f i arts_arts7:midgets.obj
 0001:00153d40       ?Key@?$sliderMI@I@@UAEXHH@Z 00554d40 f i arts_arts7:midgets.obj
 0001:00153e10       ?Key@?$sliderMI@M@@UAEXHH@Z 00554e10 f i arts_arts7:midgets.obj
 0001:00153ec0       ?Key@BMI@@UAEXHH@Z         00554ec0 f i arts_arts7:midgets.obj
 0001:00153ee0       ?Key@SBMI@@UAEXHH@Z        00554ee0 f i arts_arts7:midgets.obj
 0001:00153f00       ?Key@TMI@@UAEXHH@Z         00554f00 f i arts_arts7:midgets.obj
 0001:00153f60       ?Off@asMidgets@@UAEXXZ     00554f60 f   arts_arts7:midgets.obj
 0001:00153fc0       ?Open@asMidgets@@QAEXPAVasNode@@@Z 00554fc0 f   arts_arts7:midgets.obj
 0001:00154210       ?PopSection@asMidgets@@UAEXXZ 00555210 f   arts_arts7:midgets.obj
 0001:00154290       ?PushSection@asMidgets@@UAEXPBDH@Z 00555290 f   arts_arts7:midgets.obj
 0001:00154320       ?SetCurrentIndex@asMidgets@@AAEXH@Z 00555320 f   arts_arts7:midgets.obj
 0001:00154340       ?SetLabel@asMidgets@@UAEXPBD@Z 00555340 f   arts_arts7:midgets.obj
 0001:001543a0       ?Toggle@asMidgets@@QAEXXZ  005553a0 f   arts_arts7:midgets.obj
 0001:001543c0       ?Update@BMI@@UAEHH@Z       005553c0 f i arts_arts7:midgets.obj
 0001:001543e0       ?Update@SBMI@@UAEHH@Z      005553e0 f i arts_arts7:midgets.obj
 0001:00154410       ?Update@SMI@@UAEHH@Z       00555410 f i arts_arts7:midgets.obj
 0001:00154430       ?Update@TMI@@UAEHH@Z       00555430 f i arts_arts7:midgets.obj
 0001:00154480       ?Update@asMidgets@@QAEXXZ  00555480 f   arts_arts7:midgets.obj
 0001:001546b0       ?Update@floatMI@@UAEHH@Z   005556b0 f i arts_arts7:midgets.obj
 0001:001546e0       ?Update@intMI@@UAEHH@Z     005556e0 f i arts_arts7:midgets.obj
 0001:00154700       ?Update@scharMI@@UAEHH@Z   00555700 f i arts_arts7:midgets.obj
 0001:00154720       ?Update@shortMI@@UAEHH@Z   00555720 f i arts_arts7:midgets.obj
 0001:00154740       ?Update@ucharMI@@UAEHH@Z   00555740 f i arts_arts7:midgets.obj
 0001:00154760       ?Update@uintMI@@UAEHH@Z    00555760 f i arts_arts7:midgets.obj
 0001:00154780       ?Update@ushortMI@@UAEHH@Z  00555780 f i arts_arts7:midgets.obj
 0001:001547a0       ??0asPerfGraph@@QAE@XZ     005557a0 f   arts_arts7:pgraph.obj
 0001:00154900       ??1asPerfGraph@@QAE@XZ     00555900 f   arts_arts7:pgraph.obj
 0001:00154920       ?AddComponent@asPerfGraph@@QAEXPBDPAMABVVector3@@@Z 00555920 f   arts_arts7:pgraph.obj
 0001:001549f0       ?Cull@asPerfGraph@@QAEXXZ  005559f0 f   arts_arts7:pgraph.obj
 0001:001552c0       ?Key@asPerfGraph@@QAEXH@Z  005562c0 f   arts_arts7:pgraph.obj
 0001:00155350       ?Update@asPerfGraph@@QAEXXZ 00556350 f   arts_arts7:pgraph.obj
 0001:00155450       ?ParseArgs@ArgSet@@QAEXHPAPBD@Z 00556450 f   arts_data7:args.obj
 0001:001556a0       ?Usage@ArgSet@@QAEXXZ      005566a0 f   arts_data7:args.obj
 0001:00155710       ?GetClass@Base@@UAEPAVMetaClass@@XZ 00556710 f   arts_data7:base.obj
 0001:00155710       ??$GetMetaClass@VBase@@@@YAPAVMetaClass@@XZ 00556710 f   arts_data7:base.obj
 0001:00155720       ??$MetaDelete@VBase@@@@YAXPAXH@Z 00556720 f i arts_data7:base.obj
 0001:00155750       ?GetTypeName@Base@@QAEPBDXZ 00556750 f   arts_data7:base.obj
 0001:00155770       ??0DataCache@@QAE@XZ       00556770 f   arts_data7:cache.obj
 0001:001557f0       ??1DataCache@@QAE@XZ       005567f0 f   arts_data7:cache.obj
 0001:001558c0       ?Age@DataCache@@QAEXXZ     005568c0 f   arts_data7:cache.obj
 0001:00155ae0       ?Allocate@DataCache@@QAEPAXHI@Z 00556ae0 f   arts_data7:cache.obj
 0001:00155b40       ?BeginObject@DataCache@@QAEHPAHP6AXPAXH@Z1I@Z 00556b40 f   arts_data7:cache.obj
 0001:00155cb0       ?CleanEndOfHeap@DataCache@@AAEXXZ 00556cb0 f   arts_data7:cache.obj
 0001:00155d20       ?EndObject@DataCache@@QAEXH@Z 00556d20 f   arts_data7:cache.obj
 0001:00155d60       ?Free@DataCache@@QAEXH@Z   00556d60 f   arts_data7:cache.obj
 0001:00155d90       ?GetName@DataCacheObject@@QAEPBDXZ 00556d90 f i arts_data7:cache.obj
 0001:00155da0       ?GetStatus@DataCache@@QAEXAAI00@Z 00556da0 f   arts_data7:cache.obj
 0001:00155e00       ?Init@DataCache@@QAEXIHPBD@Z 00556e00 f   arts_data7:cache.obj
 0001:00155f10       ?InitObject@DataCache@@AAEXHPAHP6AXPAXH@Z1PAEI@Z 00556f10 f   arts_data7:cache.obj
 0001:00155fb0       ?Lock@DataCache@@QAEHPAH@Z 00556fb0 f   arts_data7:cache.obj
 0001:00156030       ?Shutdown@DataCache@@QAEXXZ 00557030 f   arts_data7:cache.obj
 0001:001560f0       ?Unload@DataCache@@AAEXH@Z 005570f0 f   arts_data7:cache.obj
 0001:00156190       ?Unlock@DataCache@@QAEXH@Z 00557190 f   arts_data7:cache.obj
 0001:001561e0       ?UnlockAndFree@DataCache@@QAEXH@Z 005571e0 f   arts_data7:cache.obj
 0001:00156240       ??0Callback@@QAE@P6AXPAX0@Z0@Z 00557240 f   arts_data7:callback.obj
 0001:00156270       ??0Callback@@QAE@P6AXPAX@Z0@Z 00557270 f   arts_data7:callback.obj
 0001:001562a0       ??0Callback@@QAE@P6AXXZ@Z  005572a0 f   arts_data7:callback.obj
 0001:001562c0       ??0Callback@@QAE@P8Base@@AEXPAX0@ZPAV1@0@Z 005572c0 f   arts_data7:callback.obj
 0001:00156300       ??0Callback@@QAE@P8Base@@AEXPAX@ZPAV1@0@Z 00557300 f   arts_data7:callback.obj
 0001:00156340       ??0Callback@@QAE@P8Base@@AEXXZPAV1@@Z 00557340 f   arts_data7:callback.obj
 0001:00156380       ??0CallbackArray@@QAE@PAVCallback@@I@Z 00557380 f   arts_data7:callback.obj
 0001:001563a0       ?Append@CallbackArray@@QAEXVCallback@@@Z 005573a0 f   arts_data7:callback.obj
 0001:00156430       ?Call@Callback@@QAEXPAX@Z  00557430 f   arts_data7:callback.obj
 0001:001564a0       ?Invoke@CallbackArray@@QAEX_NPAX@Z 005574a0 f   arts_data7:callback.obj
 0001:001564f0       ?HexDump@@YAXPBXH@Z        005574f0 f   arts_data7:global.obj
 0001:00156600       _printf                    00557600 f i arts_data7:global.obj
